EXPORTS 
	?$TSS0@?1??instance@registry@details@spdlog@@SAAEAV234@XZ@4HA 	 DATA
	?$TSS0@?1??mutex@console_mutex@details@spdlog@@SAAEAV1std@@XZ@4HA 	 DATA
	?$TSS0@?6??err_handler_@logger@spdlog@@IEAAXAEBV?$basic_string@DU?$char_traits@D@std@@V?$allocator@D@2@@std@@@Z@4HA 	 DATA
	??_R0?AU_Crt_new_delete@std@@@8 	 DATA
	??_R0?AV?$A_formatter@Unull_scoped_padder@details@spdlog@@@details@spdlog@@@8 	 DATA
	??_R0?AV?$A_formatter@Vscoped_padder@details@spdlog@@@details@spdlog@@@8 	 DATA
	??_R0?AV?$B_formatter@Unull_scoped_padder@details@spdlog@@@details@spdlog@@@8 	 DATA
	??_R0?AV?$B_formatter@Vscoped_padder@details@spdlog@@@details@spdlog@@@8 	 DATA
	??_R0?AV?$C_formatter@Unull_scoped_padder@details@spdlog@@@details@spdlog@@@8 	 DATA
	??_R0?AV?$C_formatter@Vscoped_padder@details@spdlog@@@details@spdlog@@@8 	 DATA
	??_R0?AV?$D_formatter@Unull_scoped_padder@details@spdlog@@@details@spdlog@@@8 	 DATA
	??_R0?AV?$D_formatter@Vscoped_padder@details@spdlog@@@details@spdlog@@@8 	 DATA
	??_R0?AV?$E_formatter@Unull_scoped_padder@details@spdlog@@@details@spdlog@@@8 	 DATA
	??_R0?AV?$E_formatter@Vscoped_padder@details@spdlog@@@details@spdlog@@@8 	 DATA
	??_R0?AV?$F_formatter@Unull_scoped_padder@details@spdlog@@@details@spdlog@@@8 	 DATA
	??_R0?AV?$F_formatter@Vscoped_padder@details@spdlog@@@details@spdlog@@@8 	 DATA
	??_R0?AV?$H_formatter@Unull_scoped_padder@details@spdlog@@@details@spdlog@@@8 	 DATA
	??_R0?AV?$H_formatter@Vscoped_padder@details@spdlog@@@details@spdlog@@@8 	 DATA
	??_R0?AV?$I_formatter@Unull_scoped_padder@details@spdlog@@@details@spdlog@@@8 	 DATA
	??_R0?AV?$I_formatter@Vscoped_padder@details@spdlog@@@details@spdlog@@@8 	 DATA
	??_R0?AV?$M_formatter@Unull_scoped_padder@details@spdlog@@@details@spdlog@@@8 	 DATA
	??_R0?AV?$M_formatter@Vscoped_padder@details@spdlog@@@details@spdlog@@@8 	 DATA
	??_R0?AV?$R_formatter@Unull_scoped_padder@details@spdlog@@@details@spdlog@@@8 	 DATA
	??_R0?AV?$R_formatter@Vscoped_padder@details@spdlog@@@details@spdlog@@@8 	 DATA
	??_R0?AV?$S_formatter@Unull_scoped_padder@details@spdlog@@@details@spdlog@@@8 	 DATA
	??_R0?AV?$S_formatter@Vscoped_padder@details@spdlog@@@details@spdlog@@@8 	 DATA
	??_R0?AV?$T_formatter@Unull_scoped_padder@details@spdlog@@@details@spdlog@@@8 	 DATA
	??_R0?AV?$T_formatter@Vscoped_padder@details@spdlog@@@details@spdlog@@@8 	 DATA
	??_R0?AV?$Y_formatter@Unull_scoped_padder@details@spdlog@@@details@spdlog@@@8 	 DATA
	??_R0?AV?$Y_formatter@Vscoped_padder@details@spdlog@@@details@spdlog@@@8 	 DATA
	??_R0?AV?$_Binder@U_Unforced@std@@P8Application@Engine@@EAAXAEAVEvent@4@@ZPEAV34@AEBU?$_Ph@$00@2@@std@@@8 	 DATA
	??_R0?AV?$_Binder@U_Unforced@std@@P8Application@Engine@@EAA_NAEAVWindowCloseEvent@4@@ZPEAV34@AEBU?$_Ph@$00@2@@std@@@8 	 DATA
	??_R0?AV?$_Binder@U_Unforced@std@@P8ImGuiLayer@Engine@@EAA_NAEAVKeyPressedEvent@4@@ZPEAV34@AEBU?$_Ph@$00@2@@std@@@8 	 DATA
	??_R0?AV?$_Binder@U_Unforced@std@@P8ImGuiLayer@Engine@@EAA_NAEAVKeyReleasedEvent@4@@ZPEAV34@AEBU?$_Ph@$00@2@@std@@@8 	 DATA
	??_R0?AV?$_Binder@U_Unforced@std@@P8ImGuiLayer@Engine@@EAA_NAEAVKeyTypedEvent@4@@ZPEAV34@AEBU?$_Ph@$00@2@@std@@@8 	 DATA
	??_R0?AV?$_Binder@U_Unforced@std@@P8ImGuiLayer@Engine@@EAA_NAEAVMouseButtonPressedEvent@4@@ZPEAV34@AEBU?$_Ph@$00@2@@std@@@8 	 DATA
	??_R0?AV?$_Binder@U_Unforced@std@@P8ImGuiLayer@Engine@@EAA_NAEAVMouseButtonReleasedEvent@4@@ZPEAV34@AEBU?$_Ph@$00@2@@std@@@8 	 DATA
	??_R0?AV?$_Binder@U_Unforced@std@@P8ImGuiLayer@Engine@@EAA_NAEAVMouseMovedEvent@4@@ZPEAV34@AEBU?$_Ph@$00@2@@std@@@8 	 DATA
	??_R0?AV?$_Binder@U_Unforced@std@@P8ImGuiLayer@Engine@@EAA_NAEAVMouseScrolledEvent@4@@ZPEAV34@AEBU?$_Ph@$00@2@@std@@@8 	 DATA
	??_R0?AV?$_Binder@U_Unforced@std@@P8ImGuiLayer@Engine@@EAA_NAEAVWindowResizeEvent@4@@ZPEAV34@AEBU?$_Ph@$00@2@@std@@@8 	 DATA
	??_R0?AV?$_Func_base@XAEAVEvent@Engine@@@std@@@8 	 DATA
	??_R0?AV?$_Func_base@_NAEAVKeyPressedEvent@Engine@@@std@@@8 	 DATA
	??_R0?AV?$_Func_base@_NAEAVKeyReleasedEvent@Engine@@@std@@@8 	 DATA
	??_R0?AV?$_Func_base@_NAEAVKeyTypedEvent@Engine@@@std@@@8 	 DATA
	??_R0?AV?$_Func_base@_NAEAVMouseButtonPressedEvent@Engine@@@std@@@8 	 DATA
	??_R0?AV?$_Func_base@_NAEAVMouseButtonReleasedEvent@Engine@@@std@@@8 	 DATA
	??_R0?AV?$_Func_base@_NAEAVMouseMovedEvent@Engine@@@std@@@8 	 DATA
	??_R0?AV?$_Func_base@_NAEAVMouseScrolledEvent@Engine@@@std@@@8 	 DATA
	??_R0?AV?$_Func_base@_NAEAVWindowCloseEvent@Engine@@@std@@@8 	 DATA
	??_R0?AV?$_Func_base@_NAEAVWindowResizeEvent@Engine@@@std@@@8 	 DATA
	??_R0?AV?$_Func_impl_no_alloc@V?$_Binder@U_Unforced@std@@P8Application@Engine@@EAAXAEAVEvent@4@@ZPEAV34@AEBU?$_Ph@$00@2@@std@@XAEAVEvent@Engine@@@std@@@8 	 DATA
	??_R0?AV?$_Func_impl_no_alloc@V?$_Binder@U_Unforced@std@@P8Application@Engine@@EAA_NAEAVWindowCloseEvent@4@@ZPEAV34@AEBU?$_Ph@$00@2@@std@@_NAEAVWindowCloseEvent@Engine@@@std@@@8 	 DATA
	??_R0?AV?$_Func_impl_no_alloc@V?$_Binder@U_Unforced@std@@P8ImGuiLayer@Engine@@EAA_NAEAVKeyPressedEvent@4@@ZPEAV34@AEBU?$_Ph@$00@2@@std@@_NAEAVKeyPressedEvent@Engine@@@std@@@8 	 DATA
	??_R0?AV?$_Func_impl_no_alloc@V?$_Binder@U_Unforced@std@@P8ImGuiLayer@Engine@@EAA_NAEAVKeyReleasedEvent@4@@ZPEAV34@AEBU?$_Ph@$00@2@@std@@_NAEAVKeyReleasedEvent@Engine@@@std@@@8 	 DATA
	??_R0?AV?$_Func_impl_no_alloc@V?$_Binder@U_Unforced@std@@P8ImGuiLayer@Engine@@EAA_NAEAVKeyTypedEvent@4@@ZPEAV34@AEBU?$_Ph@$00@2@@std@@_NAEAVKeyTypedEvent@Engine@@@std@@@8 	 DATA
	??_R0?AV?$_Func_impl_no_alloc@V?$_Binder@U_Unforced@std@@P8ImGuiLayer@Engine@@EAA_NAEAVMouseButtonPressedEvent@4@@ZPEAV34@AEBU?$_Ph@$00@2@@std@@_NAEAVMouseButtonPressedEvent@Engine@@@std@@@8 	 DATA
	??_R0?AV?$_Func_impl_no_alloc@V?$_Binder@U_Unforced@std@@P8ImGuiLayer@Engine@@EAA_NAEAVMouseButtonReleasedEvent@4@@ZPEAV34@AEBU?$_Ph@$00@2@@std@@_NAEAVMouseButtonReleasedEvent@Engine@@@std@@@8 	 DATA
	??_R0?AV?$_Func_impl_no_alloc@V?$_Binder@U_Unforced@std@@P8ImGuiLayer@Engine@@EAA_NAEAVMouseMovedEvent@4@@ZPEAV34@AEBU?$_Ph@$00@2@@std@@_NAEAVMouseMovedEvent@Engine@@@std@@@8 	 DATA
	??_R0?AV?$_Func_impl_no_alloc@V?$_Binder@U_Unforced@std@@P8ImGuiLayer@Engine@@EAA_NAEAVMouseScrolledEvent@4@@ZPEAV34@AEBU?$_Ph@$00@2@@std@@_NAEAVMouseScrolledEvent@Engine@@@std@@@8 	 DATA
	??_R0?AV?$_Func_impl_no_alloc@V?$_Binder@U_Unforced@std@@P8ImGuiLayer@Engine@@EAA_NAEAVWindowResizeEvent@4@@ZPEAV34@AEBU?$_Ph@$00@2@@std@@_NAEAVWindowResizeEvent@Engine@@@std@@@8 	 DATA
	??_R0?AV?$_Iosb@H@std@@@8 	 DATA
	??_R0?AV?$_Ref_count_obj2@V?$wincolor_stdout_sink@Uconsole_mutex@details@spdlog@@@sinks@spdlog@@@std@@@8 	 DATA
	??_R0?AV?$_Ref_count_obj2@Vlogger@spdlog@@@std@@@8 	 DATA
	??_R0?AV?$a_formatter@Unull_scoped_padder@details@spdlog@@@details@spdlog@@@8 	 DATA
	??_R0?AV?$a_formatter@Vscoped_padder@details@spdlog@@@details@spdlog@@@8 	 DATA
	??_R0?AV?$b_formatter@Unull_scoped_padder@details@spdlog@@@details@spdlog@@@8 	 DATA
	??_R0?AV?$b_formatter@Vscoped_padder@details@spdlog@@@details@spdlog@@@8 	 DATA
	??_R0?AV?$basic_ios@DU?$char_traits@D@std@@@std@@@8 	 DATA
	??_R0?AV?$basic_iostream@DU?$char_traits@D@std@@@std@@@8 	 DATA
	??_R0?AV?$basic_istream@DU?$char_traits@D@std@@@std@@@8 	 DATA
	??_R0?AV?$basic_memory_buffer@D$0BPE@V?$allocator@D@std@@@v9@fmt@@@8 	 DATA
	??_R0?AV?$basic_memory_buffer@D$0PK@V?$allocator@D@std@@@v9@fmt@@@8 	 DATA
	??_R0?AV?$basic_memory_buffer@H$0BPE@V?$allocator@H@std@@@v9@fmt@@@8 	 DATA
	??_R0?AV?$basic_memory_buffer@I$0CA@V?$allocator@I@std@@@v9@fmt@@@8 	 DATA
	??_R0?AV?$basic_ostream@DU?$char_traits@D@std@@@std@@@8 	 DATA
	??_R0?AV?$basic_streambuf@DU?$char_traits@D@std@@@std@@@8 	 DATA
	??_R0?AV?$basic_stringbuf@DU?$char_traits@D@std@@V?$allocator@D@2@@std@@@8 	 DATA
	??_R0?AV?$basic_stringstream@DU?$char_traits@D@std@@V?$allocator@D@2@@std@@@8 	 DATA
	??_R0?AV?$buffer@D@detail@v9@fmt@@@8 	 DATA
	??_R0?AV?$buffer@H@detail@v9@fmt@@@8 	 DATA
	??_R0?AV?$buffer@I@detail@v9@fmt@@@8 	 DATA
	??_R0?AV?$c_formatter@Unull_scoped_padder@details@spdlog@@@details@spdlog@@@8 	 DATA
	??_R0?AV?$c_formatter@Vscoped_padder@details@spdlog@@@details@spdlog@@@8 	 DATA
	??_R0?AV?$d_formatter@Unull_scoped_padder@details@spdlog@@@details@spdlog@@@8 	 DATA
	??_R0?AV?$d_formatter@Vscoped_padder@details@spdlog@@@details@spdlog@@@8 	 DATA
	??_R0?AV?$e_formatter@Unull_scoped_padder@details@spdlog@@@details@spdlog@@@8 	 DATA
	??_R0?AV?$e_formatter@Vscoped_padder@details@spdlog@@@details@spdlog@@@8 	 DATA
	??_R0?AV?$elapsed_formatter@Unull_scoped_padder@details@spdlog@@V?$duration@_JU?$ratio@$00$00@std@@@chrono@std@@@details@spdlog@@@8 	 DATA
	??_R0?AV?$elapsed_formatter@Unull_scoped_padder@details@spdlog@@V?$duration@_JU?$ratio@$00$0DLJKMKAA@@std@@@chrono@std@@@details@spdlog@@@8 	 DATA
	??_R0?AV?$elapsed_formatter@Unull_scoped_padder@details@spdlog@@V?$duration@_JU?$ratio@$00$0DOI@@std@@@chrono@std@@@details@spdlog@@@8 	 DATA
	??_R0?AV?$elapsed_formatter@Unull_scoped_padder@details@spdlog@@V?$duration@_JU?$ratio@$00$0PECEA@@std@@@chrono@std@@@details@spdlog@@@8 	 DATA
	??_R0?AV?$elapsed_formatter@Vscoped_padder@details@spdlog@@V?$duration@_JU?$ratio@$00$00@std@@@chrono@std@@@details@spdlog@@@8 	 DATA
	??_R0?AV?$elapsed_formatter@Vscoped_padder@details@spdlog@@V?$duration@_JU?$ratio@$00$0DLJKMKAA@@std@@@chrono@std@@@details@spdlog@@@8 	 DATA
	??_R0?AV?$elapsed_formatter@Vscoped_padder@details@spdlog@@V?$duration@_JU?$ratio@$00$0DOI@@std@@@chrono@std@@@details@spdlog@@@8 	 DATA
	??_R0?AV?$elapsed_formatter@Vscoped_padder@details@spdlog@@V?$duration@_JU?$ratio@$00$0PECEA@@std@@@chrono@std@@@details@spdlog@@@8 	 DATA
	??_R0?AV?$f_formatter@Unull_scoped_padder@details@spdlog@@@details@spdlog@@@8 	 DATA
	??_R0?AV?$f_formatter@Vscoped_padder@details@spdlog@@@details@spdlog@@@8 	 DATA
	??_R0?AV?$iterator_buffer@V?$back_insert_iterator@V?$basic_memory_buffer@D$0PK@V?$allocator@D@std@@@v9@fmt@@@std@@DUbuffer_traits@detail@v9@fmt@@@detail@v9@fmt@@@8 	 DATA
	??_R0?AV?$level_formatter@Unull_scoped_padder@details@spdlog@@@details@spdlog@@@8 	 DATA
	??_R0?AV?$level_formatter@Vscoped_padder@details@spdlog@@@details@spdlog@@@8 	 DATA
	??_R0?AV?$m_formatter@Unull_scoped_padder@details@spdlog@@@details@spdlog@@@8 	 DATA
	??_R0?AV?$m_formatter@Vscoped_padder@details@spdlog@@@details@spdlog@@@8 	 DATA
	??_R0?AV?$mdc_formatter@Unull_scoped_padder@details@spdlog@@@details@spdlog@@@8 	 DATA
	??_R0?AV?$mdc_formatter@Vscoped_padder@details@spdlog@@@details@spdlog@@@8 	 DATA
	??_R0?AV?$name_formatter@Unull_scoped_padder@details@spdlog@@@details@spdlog@@@8 	 DATA
	??_R0?AV?$name_formatter@Vscoped_padder@details@spdlog@@@details@spdlog@@@8 	 DATA
	??_R0?AV?$numpunct@D@std@@@8 	 DATA
	??_R0?AV?$p_formatter@Unull_scoped_padder@details@spdlog@@@details@spdlog@@@8 	 DATA
	??_R0?AV?$p_formatter@Vscoped_padder@details@spdlog@@@details@spdlog@@@8 	 DATA
	??_R0?AV?$pid_formatter@Unull_scoped_padder@details@spdlog@@@details@spdlog@@@8 	 DATA
	??_R0?AV?$pid_formatter@Vscoped_padder@details@spdlog@@@details@spdlog@@@8 	 DATA
	??_R0?AV?$r_formatter@Unull_scoped_padder@details@spdlog@@@details@spdlog@@@8 	 DATA
	??_R0?AV?$r_formatter@Vscoped_padder@details@spdlog@@@details@spdlog@@@8 	 DATA
	??_R0?AV?$short_filename_formatter@Unull_scoped_padder@details@spdlog@@@details@spdlog@@@8 	 DATA
	??_R0?AV?$short_filename_formatter@Vscoped_padder@details@spdlog@@@details@spdlog@@@8 	 DATA
	??_R0?AV?$short_level_formatter@Unull_scoped_padder@details@spdlog@@@details@spdlog@@@8 	 DATA
	??_R0?AV?$short_level_formatter@Vscoped_padder@details@spdlog@@@details@spdlog@@@8 	 DATA
	??_R0?AV?$source_filename_formatter@Unull_scoped_padder@details@spdlog@@@details@spdlog@@@8 	 DATA
	??_R0?AV?$source_filename_formatter@Vscoped_padder@details@spdlog@@@details@spdlog@@@8 	 DATA
	??_R0?AV?$source_funcname_formatter@Unull_scoped_padder@details@spdlog@@@details@spdlog@@@8 	 DATA
	??_R0?AV?$source_funcname_formatter@Vscoped_padder@details@spdlog@@@details@spdlog@@@8 	 DATA
	??_R0?AV?$source_linenum_formatter@Unull_scoped_padder@details@spdlog@@@details@spdlog@@@8 	 DATA
	??_R0?AV?$source_linenum_formatter@Vscoped_padder@details@spdlog@@@details@spdlog@@@8 	 DATA
	??_R0?AV?$source_location_formatter@Unull_scoped_padder@details@spdlog@@@details@spdlog@@@8 	 DATA
	??_R0?AV?$source_location_formatter@Vscoped_padder@details@spdlog@@@details@spdlog@@@8 	 DATA
	??_R0?AV?$t_formatter@Unull_scoped_padder@details@spdlog@@@details@spdlog@@@8 	 DATA
	??_R0?AV?$t_formatter@Vscoped_padder@details@spdlog@@@details@spdlog@@@8 	 DATA
	??_R0?AV?$v_formatter@Unull_scoped_padder@details@spdlog@@@details@spdlog@@@8 	 DATA
	??_R0?AV?$v_formatter@Vscoped_padder@details@spdlog@@@details@spdlog@@@8 	 DATA
	??_R0?AV?$wincolor_sink@Uconsole_mutex@details@spdlog@@@sinks@spdlog@@@8 	 DATA
	??_R0?AV?$wincolor_stdout_sink@Uconsole_mutex@details@spdlog@@@sinks@spdlog@@@8 	 DATA
	??_R0?AV?$z_formatter@Unull_scoped_padder@details@spdlog@@@details@spdlog@@@8 	 DATA
	??_R0?AV?$z_formatter@Vscoped_padder@details@spdlog@@@details@spdlog@@@8 	 DATA
	??_R0?AVAppRenderEvent@Engine@@@8 	 DATA
	??_R0?AVAppTickEvent@Engine@@@8 	 DATA
	??_R0?AVAppUpdateEvent@Engine@@@8 	 DATA
	??_R0?AVApplication@Engine@@@8 	 DATA
	??_R0?AVEvent@Engine@@@8 	 DATA
	??_R0?AVImGuiLayer@Engine@@@8 	 DATA
	??_R0?AVInput@Engine@@@8 	 DATA
	??_R0?AVKeyEvent@Engine@@@8 	 DATA
	??_R0?AVKeyPressedEvent@Engine@@@8 	 DATA
	??_R0?AVKeyReleasedEvent@Engine@@@8 	 DATA
	??_R0?AVKeyTypedEvent@Engine@@@8 	 DATA
	??_R0?AVLayer@Engine@@@8 	 DATA
	??_R0?AVMouseButtonEvent@Engine@@@8 	 DATA
	??_R0?AVMouseButtonPressedEvent@Engine@@@8 	 DATA
	??_R0?AVMouseButtonReleasedEvent@Engine@@@8 	 DATA
	??_R0?AVMouseMovedEvent@Engine@@@8 	 DATA
	??_R0?AVMouseScrolledEvent@Engine@@@8 	 DATA
	??_R0?AVWindow@Engine@@@8 	 DATA
	??_R0?AVWindowCloseEvent@Engine@@@8 	 DATA
	??_R0?AVWindowResizeEvent@Engine@@@8 	 DATA
	??_R0?AVWindowsWindow@Engine@@@8 	 DATA
	??_R0?AV_Facet_base@std@@@8 	 DATA
	??_R0?AV_Generic_error_category@std@@@8 	 DATA
	??_R0?AV_Ref_count_base@std@@@8 	 DATA
	??_R0?AV_System_error@std@@@8 	 DATA
	??_R0?AVaggregate_formatter@details@spdlog@@@8 	 DATA
	??_R0?AVbad_alloc@std@@@8 	 DATA
	??_R0?AVbad_array_new_length@std@@@8 	 DATA
	??_R0?AVbad_cast@std@@@8 	 DATA
	??_R0?AVch_formatter@details@spdlog@@@8 	 DATA
	??_R0?AVcolor_start_formatter@details@spdlog@@@8 	 DATA
	??_R0?AVcolor_stop_formatter@details@spdlog@@@8 	 DATA
	??_R0?AVerror_category@std@@@8 	 DATA
	??_R0?AVexception@std@@@8 	 DATA
	??_R0?AVfacet@locale@std@@@8 	 DATA
	??_R0?AVflag_formatter@details@spdlog@@@8 	 DATA
	??_R0?AVformat_error@v9@fmt@@@8 	 DATA
	??_R0?AVformatter@spdlog@@@8 	 DATA
	??_R0?AVfull_formatter@details@spdlog@@@8 	 DATA
	??_R0?AVios_base@std@@@8 	 DATA
	??_R0?AVlogger@spdlog@@@8 	 DATA
	??_R0?AVpattern_formatter@spdlog@@@8 	 DATA
	??_R0?AVruntime_error@std@@@8 	 DATA
	??_R0?AVsink@sinks@spdlog@@@8 	 DATA
	??_R0?AVspdlog_ex@spdlog@@@8 	 DATA
	??_R0?AVsystem_error@std@@@8 	 DATA
	??__J?1??get_context@mdc@spdlog@@SAAEAV?$map@V?$basic_string@DU?$char_traits@D@std@@V?$allocator@D@2@@std@@V12@U?$less@V?$basic_string@DU?$char_traits@D@std@@V?$allocator@D@2@@std@@@2@V?$allocator@U?$pair@$$CBV?$basic_string@DU?$char_traits@D@std@@V?$allocator@D@2@@std@@V12@@std@@@2@@std@@XZ@51 	 DATA
	??__J?1??thread_id@os@details@spdlog@@YA_KXZ@51 	 DATA
	?_OptionsStorage@?1??__local_stdio_printf_options@@9@4_KA 	 DATA
	?_OptionsStorage@?1??__local_stdio_scanf_options@@9@4_KA 	 DATA
	?_Psave@?$_Facetptr@V?$numpunct@D@std@@@std@@2PEBVfacet@locale@2@EB 	 DATA
	?_Static@?1???$_Immortalize_memcpy_image@V_Generic_error_category@std@@@std@@YAAEBV_Generic_error_category@1@XZ@4U?$_Constexpr_immortalize_impl@V_Generic_error_category@std@@@1@A 	 DATA
	?context@?1??get_context@mdc@spdlog@@SAAEAV?$map@V?$basic_string@DU?$char_traits@D@std@@V?$allocator@D@2@@std@@V12@U?$less@V?$basic_string@DU?$char_traits@D@std@@V?$allocator@D@2@@std@@@2@V?$allocator@U?$pair@$$CBV?$basic_string@DU?$char_traits@D@std@@V?$allocator@D@2@@std@@V12@@std@@@2@@std@@XZ@4V45@A 	 DATA
	?err_counter@?6??err_handler_@logger@spdlog@@IEAAXAEBV?$basic_string@DU?$char_traits@D@std@@V?$allocator@D@2@@std@@@Z@4_KA 	 DATA
	?last_report_time@?6??err_handler_@logger@spdlog@@IEAAXAEBV?$basic_string@DU?$char_traits@D@std@@V?$allocator@D@2@@std@@@Z@4V?$time_point@Usystem_clock@chrono@std@@V?$duration@_JU?$ratio@$00$0JIJGIA@@std@@@23@@chrono@5@A 	 DATA
	?mutex@?6??err_handler_@logger@spdlog@@IEAAXAEBV?$basic_string@DU?$char_traits@D@std@@V?$allocator@D@2@@std@@@Z@4V05@A 	 DATA
	?s_AppLogger@Log@Engine@@0V?$shared_ptr@Vlogger@spdlog@@@std@@A 	 DATA
	?s_EngineLogger@Log@Engine@@0V?$shared_ptr@Vlogger@spdlog@@@std@@A 	 DATA
	?s_Instance@Application@Engine@@0PEAV12@EA 	 DATA
	?s_Instance@Input@Engine@@0PEAV12@EA 	 DATA
	?s_instance@?1??instance@registry@details@spdlog@@SAAEAV234@XZ@4V234@A 	 DATA
	?s_mutex@?1??mutex@console_mutex@details@spdlog@@SAAEAV1std@@XZ@4V15@A 	 DATA
	?tid@?1??thread_id@os@details@spdlog@@YA_KXZ@4_KB 	 DATA
	__ 	 DATA
	imgl3wProcs 	 DATA
	??$?0$$BY06DH@?$basic_format_args@V?$basic_format_context@Vappender@v9@fmt@@D@v9@fmt@@@v9@fmt@@QEAA@AEBV?$format_arg_store@V?$basic_format_context@Vappender@v9@fmt@@D@v9@fmt@@$$BY06DH@12@@Z
	??$?0$$BY0BG@D$0A@@?$basic_format_string@DAEAHAEAPEBD@v9@fmt@@QEAA@AEAY0BG@$$CBD@Z
	??$?0$$BY0BP@D$0A@@?$basic_format_string@DAEBV?$basic_string@DU?$char_traits@D@std@@V?$allocator@D@2@@std@@AEBIAEBI@v9@fmt@@QEAA@AEAY0BP@$$CBD@Z
	??$?0$$QEAV?$basic_string@DU?$char_traits@D@std@@V?$allocator@D@2@@std@@$$Z$$V@?$pair@$$CBV?$basic_string@DU?$char_traits@D@std@@V?$allocator@D@2@@std@@V?$shared_ptr@Vlogger@spdlog@@@2@@std@@QEAA@Upiecewise_construct_t@1@V?$tuple@$$QEAV?$basic_string@DU?$char_traits@D@std@@V?$allocator@D@2@@std@@@1@V?$tuple@$$V@1@@Z
	??$?0$$V@?$_Compressed_pair@U?$default_delete@VWindow@Engine@@@std@@PEAVWindow@Engine@@$00@std@@QEAA@U_Zero_then_variadic_args_t@1@@Z
	??$?0$$V@?$_Compressed_pair@U?$default_delete@Vaggregate_formatter@details@spdlog@@@std@@PEAVaggregate_formatter@details@spdlog@@$00@std@@QEAA@U_Zero_then_variadic_args_t@1@@Z
	??$?0$$V@?$_Compressed_pair@U?$default_delete@Vcustom_flag_formatter@spdlog@@@std@@PEAVcustom_flag_formatter@spdlog@@$00@std@@QEAA@U_Zero_then_variadic_args_t@1@@Z
	??$?0$$V@?$_Compressed_pair@U?$default_delete@Vperiodic_worker@details@spdlog@@@std@@PEAVperiodic_worker@details@spdlog@@$00@std@@QEAA@U_Zero_then_variadic_args_t@1@@Z
	??$?0$$V@?$_Compressed_pair@V?$allocator@D@std@@V?$_String_val@U?$_Simple_types@D@std@@@2@$00@std@@QEAA@U_Zero_then_variadic_args_t@1@@Z
	??$?0$$V@?$_Compressed_pair@V?$allocator@PEAVLayer@Engine@@@std@@V?$_Vector_val@U?$_Simple_types@PEAVLayer@Engine@@@std@@@2@$00@std@@QEAA@U_Zero_then_variadic_args_t@1@@Z
	??$?0$$V@?$_Compressed_pair@V?$allocator@U?$_Tree_node@U?$pair@$$CBV?$basic_string@DU?$char_traits@D@std@@V?$allocator@D@2@@std@@V12@@std@@PEAX@std@@@std@@V?$_Tree_val@U?$_Tree_simple_types@U?$pair@$$CBV?$basic_string@DU?$char_traits@D@std@@V?$allocator@D@2@@std@@V12@@std@@@std@@@2@$00@std@@QEAA@U_Zero_then_variadic_args_t@1@@Z
	??$?0$$V@?$_Compressed_pair@V?$allocator@V?$unique_ptr@Vflag_formatter@details@spdlog@@U?$default_delete@Vflag_formatter@details@spdlog@@@std@@@std@@@std@@V?$_Vector_val@U?$_Simple_types@V?$unique_ptr@Vflag_formatter@details@spdlog@@U?$default_delete@Vflag_formatter@details@spdlog@@@std@@@std@@@std@@@2@$00@std@@QEAA@U_Zero_then_variadic_args_t@1@@Z
	??$?0$$V@?$_Compressed_pair@V?$allocator@Vlog_msg_buffer@details@spdlog@@@std@@V?$_Vector_val@U?$_Simple_types@Vlog_msg_buffer@details@spdlog@@@std@@@2@$00@std@@QEAA@U_Zero_then_variadic_args_t@1@@Z
	??$?0$$V@?$_Ref_count_obj2@V?$wincolor_stdout_sink@Uconsole_mutex@details@spdlog@@@sinks@spdlog@@@std@@QEAA@XZ
	??$?0AEAH@?$format_arg_store@V?$basic_format_context@Vappender@v9@fmt@@D@v9@fmt@@H@v9@fmt@@QEAA@AEAH@Z
	??$?0AEAHAEAPEBD@?$format_arg_store@V?$basic_format_context@Vappender@v9@fmt@@D@v9@fmt@@HPEBD@v9@fmt@@QEAA@AEAHAEAPEBD@Z
	??$?0AEAPEAU?$_List_node@U?$pair@$$CBDV?$unique_ptr@Vcustom_flag_formatter@spdlog@@U?$default_delete@Vcustom_flag_formatter@spdlog@@@std@@@std@@@std@@PEAX@std@@_N$0A@@?$pair@PEAU?$_List_node@U?$pair@$$CBDV?$unique_ptr@Vcustom_flag_formatter@spdlog@@U?$default_delete@Vcustom_flag_formatter@spdlog@@@std@@@std@@@std@@PEAX@std@@_N@std@@QEAA@AEAPEAU?$_List_node@U?$pair@$$CBDV?$unique_ptr@Vcustom_flag_formatter@spdlog@@U?$default_delete@Vcustom_flag_formatter@spdlog@@@std@@@std@@@std@@PEAX@1@$$QEA_N@Z
	??$?0AEAPEAU?$_List_node@U?$pair@$$CBV?$basic_string@DU?$char_traits@D@std@@V?$allocator@D@2@@std@@V?$shared_ptr@Vlogger@spdlog@@@2@@std@@PEAX@std@@_N$0A@@?$pair@PEAU?$_List_node@U?$pair@$$CBV?$basic_string@DU?$char_traits@D@std@@V?$allocator@D@2@@std@@V?$shared_ptr@Vlogger@spdlog@@@2@@std@@PEAX@std@@_N@std@@QEAA@AEAPEAU?$_List_node@U?$pair@$$CBV?$basic_string@DU?$char_traits@D@std@@V?$allocator@D@2@@std@@V?$shared_ptr@Vlogger@spdlog@@@2@@std@@PEAX@1@$$QEA_N@Z
	??$?0AEAPEAV?$A_formatter@Unull_scoped_padder@details@spdlog@@@details@spdlog@@@?$_Compressed_pair@U?$default_delete@V?$A_formatter@Unull_scoped_padder@details@spdlog@@@details@spdlog@@@std@@PEAV?$A_formatter@Unull_scoped_padder@details@spdlog@@@details@spdlog@@$00@std@@QEAA@U_Zero_then_variadic_args_t@1@AEAPEAV?$A_formatter@Unull_scoped_padder@details@spdlog@@@details@spdlog@@@Z
	??$?0AEAPEAV?$A_formatter@Vscoped_padder@details@spdlog@@@details@spdlog@@@?$_Compressed_pair@U?$default_delete@V?$A_formatter@Vscoped_padder@details@spdlog@@@details@spdlog@@@std@@PEAV?$A_formatter@Vscoped_padder@details@spdlog@@@details@spdlog@@$00@std@@QEAA@U_Zero_then_variadic_args_t@1@AEAPEAV?$A_formatter@Vscoped_padder@details@spdlog@@@details@spdlog@@@Z
	??$?0AEAPEAV?$B_formatter@Unull_scoped_padder@details@spdlog@@@details@spdlog@@@?$_Compressed_pair@U?$default_delete@V?$B_formatter@Unull_scoped_padder@details@spdlog@@@details@spdlog@@@std@@PEAV?$B_formatter@Unull_scoped_padder@details@spdlog@@@details@spdlog@@$00@std@@QEAA@U_Zero_then_variadic_args_t@1@AEAPEAV?$B_formatter@Unull_scoped_padder@details@spdlog@@@details@spdlog@@@Z
	??$?0AEAPEAV?$B_formatter@Vscoped_padder@details@spdlog@@@details@spdlog@@@?$_Compressed_pair@U?$default_delete@V?$B_formatter@Vscoped_padder@details@spdlog@@@details@spdlog@@@std@@PEAV?$B_formatter@Vscoped_padder@details@spdlog@@@details@spdlog@@$00@std@@QEAA@U_Zero_then_variadic_args_t@1@AEAPEAV?$B_formatter@Vscoped_padder@details@spdlog@@@details@spdlog@@@Z
	??$?0AEAPEAV?$C_formatter@Unull_scoped_padder@details@spdlog@@@details@spdlog@@@?$_Compressed_pair@U?$default_delete@V?$C_formatter@Unull_scoped_padder@details@spdlog@@@details@spdlog@@@std@@PEAV?$C_formatter@Unull_scoped_padder@details@spdlog@@@details@spdlog@@$00@std@@QEAA@U_Zero_then_variadic_args_t@1@AEAPEAV?$C_formatter@Unull_scoped_padder@details@spdlog@@@details@spdlog@@@Z
	??$?0AEAPEAV?$C_formatter@Vscoped_padder@details@spdlog@@@details@spdlog@@@?$_Compressed_pair@U?$default_delete@V?$C_formatter@Vscoped_padder@details@spdlog@@@details@spdlog@@@std@@PEAV?$C_formatter@Vscoped_padder@details@spdlog@@@details@spdlog@@$00@std@@QEAA@U_Zero_then_variadic_args_t@1@AEAPEAV?$C_formatter@Vscoped_padder@details@spdlog@@@details@spdlog@@@Z
	??$?0AEAPEAV?$D_formatter@Unull_scoped_padder@details@spdlog@@@details@spdlog@@@?$_Compressed_pair@U?$default_delete@V?$D_formatter@Unull_scoped_padder@details@spdlog@@@details@spdlog@@@std@@PEAV?$D_formatter@Unull_scoped_padder@details@spdlog@@@details@spdlog@@$00@std@@QEAA@U_Zero_then_variadic_args_t@1@AEAPEAV?$D_formatter@Unull_scoped_padder@details@spdlog@@@details@spdlog@@@Z
	??$?0AEAPEAV?$D_formatter@Vscoped_padder@details@spdlog@@@details@spdlog@@@?$_Compressed_pair@U?$default_delete@V?$D_formatter@Vscoped_padder@details@spdlog@@@details@spdlog@@@std@@PEAV?$D_formatter@Vscoped_padder@details@spdlog@@@details@spdlog@@$00@std@@QEAA@U_Zero_then_variadic_args_t@1@AEAPEAV?$D_formatter@Vscoped_padder@details@spdlog@@@details@spdlog@@@Z
	??$?0AEAPEAV?$E_formatter@Unull_scoped_padder@details@spdlog@@@details@spdlog@@@?$_Compressed_pair@U?$default_delete@V?$E_formatter@Unull_scoped_padder@details@spdlog@@@details@spdlog@@@std@@PEAV?$E_formatter@Unull_scoped_padder@details@spdlog@@@details@spdlog@@$00@std@@QEAA@U_Zero_then_variadic_args_t@1@AEAPEAV?$E_formatter@Unull_scoped_padder@details@spdlog@@@details@spdlog@@@Z
	??$?0AEAPEAV?$E_formatter@Vscoped_padder@details@spdlog@@@details@spdlog@@@?$_Compressed_pair@U?$default_delete@V?$E_formatter@Vscoped_padder@details@spdlog@@@details@spdlog@@@std@@PEAV?$E_formatter@Vscoped_padder@details@spdlog@@@details@spdlog@@$00@std@@QEAA@U_Zero_then_variadic_args_t@1@AEAPEAV?$E_formatter@Vscoped_padder@details@spdlog@@@details@spdlog@@@Z
	??$?0AEAPEAV?$F_formatter@Unull_scoped_padder@details@spdlog@@@details@spdlog@@@?$_Compressed_pair@U?$default_delete@V?$F_formatter@Unull_scoped_padder@details@spdlog@@@details@spdlog@@@std@@PEAV?$F_formatter@Unull_scoped_padder@details@spdlog@@@details@spdlog@@$00@std@@QEAA@U_Zero_then_variadic_args_t@1@AEAPEAV?$F_formatter@Unull_scoped_padder@details@spdlog@@@details@spdlog@@@Z
	??$?0AEAPEAV?$F_formatter@Vscoped_padder@details@spdlog@@@details@spdlog@@@?$_Compressed_pair@U?$default_delete@V?$F_formatter@Vscoped_padder@details@spdlog@@@details@spdlog@@@std@@PEAV?$F_formatter@Vscoped_padder@details@spdlog@@@details@spdlog@@$00@std@@QEAA@U_Zero_then_variadic_args_t@1@AEAPEAV?$F_formatter@Vscoped_padder@details@spdlog@@@details@spdlog@@@Z
	??$?0AEAPEAV?$H_formatter@Unull_scoped_padder@details@spdlog@@@details@spdlog@@@?$_Compressed_pair@U?$default_delete@V?$H_formatter@Unull_scoped_padder@details@spdlog@@@details@spdlog@@@std@@PEAV?$H_formatter@Unull_scoped_padder@details@spdlog@@@details@spdlog@@$00@std@@QEAA@U_Zero_then_variadic_args_t@1@AEAPEAV?$H_formatter@Unull_scoped_padder@details@spdlog@@@details@spdlog@@@Z
	??$?0AEAPEAV?$H_formatter@Vscoped_padder@details@spdlog@@@details@spdlog@@@?$_Compressed_pair@U?$default_delete@V?$H_formatter@Vscoped_padder@details@spdlog@@@details@spdlog@@@std@@PEAV?$H_formatter@Vscoped_padder@details@spdlog@@@details@spdlog@@$00@std@@QEAA@U_Zero_then_variadic_args_t@1@AEAPEAV?$H_formatter@Vscoped_padder@details@spdlog@@@details@spdlog@@@Z
	??$?0AEAPEAV?$I_formatter@Unull_scoped_padder@details@spdlog@@@details@spdlog@@@?$_Compressed_pair@U?$default_delete@V?$I_formatter@Unull_scoped_padder@details@spdlog@@@details@spdlog@@@std@@PEAV?$I_formatter@Unull_scoped_padder@details@spdlog@@@details@spdlog@@$00@std@@QEAA@U_Zero_then_variadic_args_t@1@AEAPEAV?$I_formatter@Unull_scoped_padder@details@spdlog@@@details@spdlog@@@Z
	??$?0AEAPEAV?$I_formatter@Vscoped_padder@details@spdlog@@@details@spdlog@@@?$_Compressed_pair@U?$default_delete@V?$I_formatter@Vscoped_padder@details@spdlog@@@details@spdlog@@@std@@PEAV?$I_formatter@Vscoped_padder@details@spdlog@@@details@spdlog@@$00@std@@QEAA@U_Zero_then_variadic_args_t@1@AEAPEAV?$I_formatter@Vscoped_padder@details@spdlog@@@details@spdlog@@@Z
	??$?0AEAPEAV?$M_formatter@Unull_scoped_padder@details@spdlog@@@details@spdlog@@@?$_Compressed_pair@U?$default_delete@V?$M_formatter@Unull_scoped_padder@details@spdlog@@@details@spdlog@@@std@@PEAV?$M_formatter@Unull_scoped_padder@details@spdlog@@@details@spdlog@@$00@std@@QEAA@U_Zero_then_variadic_args_t@1@AEAPEAV?$M_formatter@Unull_scoped_padder@details@spdlog@@@details@spdlog@@@Z
	??$?0AEAPEAV?$M_formatter@Vscoped_padder@details@spdlog@@@details@spdlog@@@?$_Compressed_pair@U?$default_delete@V?$M_formatter@Vscoped_padder@details@spdlog@@@details@spdlog@@@std@@PEAV?$M_formatter@Vscoped_padder@details@spdlog@@@details@spdlog@@$00@std@@QEAA@U_Zero_then_variadic_args_t@1@AEAPEAV?$M_formatter@Vscoped_padder@details@spdlog@@@details@spdlog@@@Z
	??$?0AEAPEAV?$R_formatter@Unull_scoped_padder@details@spdlog@@@details@spdlog@@@?$_Compressed_pair@U?$default_delete@V?$R_formatter@Unull_scoped_padder@details@spdlog@@@details@spdlog@@@std@@PEAV?$R_formatter@Unull_scoped_padder@details@spdlog@@@details@spdlog@@$00@std@@QEAA@U_Zero_then_variadic_args_t@1@AEAPEAV?$R_formatter@Unull_scoped_padder@details@spdlog@@@details@spdlog@@@Z
	??$?0AEAPEAV?$R_formatter@Vscoped_padder@details@spdlog@@@details@spdlog@@@?$_Compressed_pair@U?$default_delete@V?$R_formatter@Vscoped_padder@details@spdlog@@@details@spdlog@@@std@@PEAV?$R_formatter@Vscoped_padder@details@spdlog@@@details@spdlog@@$00@std@@QEAA@U_Zero_then_variadic_args_t@1@AEAPEAV?$R_formatter@Vscoped_padder@details@spdlog@@@details@spdlog@@@Z
	??$?0AEAPEAV?$S_formatter@Unull_scoped_padder@details@spdlog@@@details@spdlog@@@?$_Compressed_pair@U?$default_delete@V?$S_formatter@Unull_scoped_padder@details@spdlog@@@details@spdlog@@@std@@PEAV?$S_formatter@Unull_scoped_padder@details@spdlog@@@details@spdlog@@$00@std@@QEAA@U_Zero_then_variadic_args_t@1@AEAPEAV?$S_formatter@Unull_scoped_padder@details@spdlog@@@details@spdlog@@@Z
	??$?0AEAPEAV?$S_formatter@Vscoped_padder@details@spdlog@@@details@spdlog@@@?$_Compressed_pair@U?$default_delete@V?$S_formatter@Vscoped_padder@details@spdlog@@@details@spdlog@@@std@@PEAV?$S_formatter@Vscoped_padder@details@spdlog@@@details@spdlog@@$00@std@@QEAA@U_Zero_then_variadic_args_t@1@AEAPEAV?$S_formatter@Vscoped_padder@details@spdlog@@@details@spdlog@@@Z
	??$?0AEAPEAV?$T_formatter@Unull_scoped_padder@details@spdlog@@@details@spdlog@@@?$_Compressed_pair@U?$default_delete@V?$T_formatter@Unull_scoped_padder@details@spdlog@@@details@spdlog@@@std@@PEAV?$T_formatter@Unull_scoped_padder@details@spdlog@@@details@spdlog@@$00@std@@QEAA@U_Zero_then_variadic_args_t@1@AEAPEAV?$T_formatter@Unull_scoped_padder@details@spdlog@@@details@spdlog@@@Z
	??$?0AEAPEAV?$T_formatter@Vscoped_padder@details@spdlog@@@details@spdlog@@@?$_Compressed_pair@U?$default_delete@V?$T_formatter@Vscoped_padder@details@spdlog@@@details@spdlog@@@std@@PEAV?$T_formatter@Vscoped_padder@details@spdlog@@@details@spdlog@@$00@std@@QEAA@U_Zero_then_variadic_args_t@1@AEAPEAV?$T_formatter@Vscoped_padder@details@spdlog@@@details@spdlog@@@Z
	??$?0AEAPEAV?$Y_formatter@Unull_scoped_padder@details@spdlog@@@details@spdlog@@@?$_Compressed_pair@U?$default_delete@V?$Y_formatter@Unull_scoped_padder@details@spdlog@@@details@spdlog@@@std@@PEAV?$Y_formatter@Unull_scoped_padder@details@spdlog@@@details@spdlog@@$00@std@@QEAA@U_Zero_then_variadic_args_t@1@AEAPEAV?$Y_formatter@Unull_scoped_padder@details@spdlog@@@details@spdlog@@@Z
	??$?0AEAPEAV?$Y_formatter@Vscoped_padder@details@spdlog@@@details@spdlog@@@?$_Compressed_pair@U?$default_delete@V?$Y_formatter@Vscoped_padder@details@spdlog@@@details@spdlog@@@std@@PEAV?$Y_formatter@Vscoped_padder@details@spdlog@@@details@spdlog@@$00@std@@QEAA@U_Zero_then_variadic_args_t@1@AEAPEAV?$Y_formatter@Vscoped_padder@details@spdlog@@@details@spdlog@@@Z
	??$?0AEAPEAV?$a_formatter@Unull_scoped_padder@details@spdlog@@@details@spdlog@@@?$_Compressed_pair@U?$default_delete@V?$a_formatter@Unull_scoped_padder@details@spdlog@@@details@spdlog@@@std@@PEAV?$a_formatter@Unull_scoped_padder@details@spdlog@@@details@spdlog@@$00@std@@QEAA@U_Zero_then_variadic_args_t@1@AEAPEAV?$a_formatter@Unull_scoped_padder@details@spdlog@@@details@spdlog@@@Z
	??$?0AEAPEAV?$a_formatter@Vscoped_padder@details@spdlog@@@details@spdlog@@@?$_Compressed_pair@U?$default_delete@V?$a_formatter@Vscoped_padder@details@spdlog@@@details@spdlog@@@std@@PEAV?$a_formatter@Vscoped_padder@details@spdlog@@@details@spdlog@@$00@std@@QEAA@U_Zero_then_variadic_args_t@1@AEAPEAV?$a_formatter@Vscoped_padder@details@spdlog@@@details@spdlog@@@Z
	??$?0AEAPEAV?$b_formatter@Unull_scoped_padder@details@spdlog@@@details@spdlog@@@?$_Compressed_pair@U?$default_delete@V?$b_formatter@Unull_scoped_padder@details@spdlog@@@details@spdlog@@@std@@PEAV?$b_formatter@Unull_scoped_padder@details@spdlog@@@details@spdlog@@$00@std@@QEAA@U_Zero_then_variadic_args_t@1@AEAPEAV?$b_formatter@Unull_scoped_padder@details@spdlog@@@details@spdlog@@@Z
	??$?0AEAPEAV?$b_formatter@Vscoped_padder@details@spdlog@@@details@spdlog@@@?$_Compressed_pair@U?$default_delete@V?$b_formatter@Vscoped_padder@details@spdlog@@@details@spdlog@@@std@@PEAV?$b_formatter@Vscoped_padder@details@spdlog@@@details@spdlog@@$00@std@@QEAA@U_Zero_then_variadic_args_t@1@AEAPEAV?$b_formatter@Vscoped_padder@details@spdlog@@@details@spdlog@@@Z
	??$?0AEAPEAV?$c_formatter@Unull_scoped_padder@details@spdlog@@@details@spdlog@@@?$_Compressed_pair@U?$default_delete@V?$c_formatter@Unull_scoped_padder@details@spdlog@@@details@spdlog@@@std@@PEAV?$c_formatter@Unull_scoped_padder@details@spdlog@@@details@spdlog@@$00@std@@QEAA@U_Zero_then_variadic_args_t@1@AEAPEAV?$c_formatter@Unull_scoped_padder@details@spdlog@@@details@spdlog@@@Z
	??$?0AEAPEAV?$c_formatter@Vscoped_padder@details@spdlog@@@details@spdlog@@@?$_Compressed_pair@U?$default_delete@V?$c_formatter@Vscoped_padder@details@spdlog@@@details@spdlog@@@std@@PEAV?$c_formatter@Vscoped_padder@details@spdlog@@@details@spdlog@@$00@std@@QEAA@U_Zero_then_variadic_args_t@1@AEAPEAV?$c_formatter@Vscoped_padder@details@spdlog@@@details@spdlog@@@Z
	??$?0AEAPEAV?$d_formatter@Unull_scoped_padder@details@spdlog@@@details@spdlog@@@?$_Compressed_pair@U?$default_delete@V?$d_formatter@Unull_scoped_padder@details@spdlog@@@details@spdlog@@@std@@PEAV?$d_formatter@Unull_scoped_padder@details@spdlog@@@details@spdlog@@$00@std@@QEAA@U_Zero_then_variadic_args_t@1@AEAPEAV?$d_formatter@Unull_scoped_padder@details@spdlog@@@details@spdlog@@@Z
	??$?0AEAPEAV?$d_formatter@Vscoped_padder@details@spdlog@@@details@spdlog@@@?$_Compressed_pair@U?$default_delete@V?$d_formatter@Vscoped_padder@details@spdlog@@@details@spdlog@@@std@@PEAV?$d_formatter@Vscoped_padder@details@spdlog@@@details@spdlog@@$00@std@@QEAA@U_Zero_then_variadic_args_t@1@AEAPEAV?$d_formatter@Vscoped_padder@details@spdlog@@@details@spdlog@@@Z
	??$?0AEAPEAV?$e_formatter@Unull_scoped_padder@details@spdlog@@@details@spdlog@@@?$_Compressed_pair@U?$default_delete@V?$e_formatter@Unull_scoped_padder@details@spdlog@@@details@spdlog@@@std@@PEAV?$e_formatter@Unull_scoped_padder@details@spdlog@@@details@spdlog@@$00@std@@QEAA@U_Zero_then_variadic_args_t@1@AEAPEAV?$e_formatter@Unull_scoped_padder@details@spdlog@@@details@spdlog@@@Z
	??$?0AEAPEAV?$e_formatter@Vscoped_padder@details@spdlog@@@details@spdlog@@@?$_Compressed_pair@U?$default_delete@V?$e_formatter@Vscoped_padder@details@spdlog@@@details@spdlog@@@std@@PEAV?$e_formatter@Vscoped_padder@details@spdlog@@@details@spdlog@@$00@std@@QEAA@U_Zero_then_variadic_args_t@1@AEAPEAV?$e_formatter@Vscoped_padder@details@spdlog@@@details@spdlog@@@Z
	??$?0AEAPEAV?$elapsed_formatter@Unull_scoped_padder@details@spdlog@@V?$duration@_JU?$ratio@$00$00@std@@@chrono@std@@@details@spdlog@@@?$_Compressed_pair@U?$default_delete@V?$elapsed_formatter@Unull_scoped_padder@details@spdlog@@V?$duration@_JU?$ratio@$00$00@std@@@chrono@std@@@details@spdlog@@@std@@PEAV?$elapsed_formatter@Unull_scoped_padder@details@spdlog@@V?$duration@_JU?$ratio@$00$00@std@@@chrono@std@@@details@spdlog@@$00@std@@QEAA@U_Zero_then_variadic_args_t@1@AEAPEAV?$elapsed_formatter@Unull_scoped_padder@details@spdlog@@V?$duration@_JU?$ratio@$00$00@std@@@chrono@std@@@details@spdlog@@@Z
	??$?0AEAPEAV?$elapsed_formatter@Unull_scoped_padder@details@spdlog@@V?$duration@_JU?$ratio@$00$0DLJKMKAA@@std@@@chrono@std@@@details@spdlog@@@?$_Compressed_pair@U?$default_delete@V?$elapsed_formatter@Unull_scoped_padder@details@spdlog@@V?$duration@_JU?$ratio@$00$0DLJKMKAA@@std@@@chrono@std@@@details@spdlog@@@std@@PEAV?$elapsed_formatter@Unull_scoped_padder@details@spdlog@@V?$duration@_JU?$ratio@$00$0DLJKMKAA@@std@@@chrono@std@@@details@spdlog@@$00@std@@QEAA@U_Zero_then_variadic_args_t@1@AEAPEAV?$elapsed_formatter@Unull_scoped_padder@details@spdlog@@V?$duration@_JU?$ratio@$00$0DLJKMKAA@@std@@@chrono@std@@@details@spdlog@@@Z
	??$?0AEAPEAV?$elapsed_formatter@Unull_scoped_padder@details@spdlog@@V?$duration@_JU?$ratio@$00$0DOI@@std@@@chrono@std@@@details@spdlog@@@?$_Compressed_pair@U?$default_delete@V?$elapsed_formatter@Unull_scoped_padder@details@spdlog@@V?$duration@_JU?$ratio@$00$0DOI@@std@@@chrono@std@@@details@spdlog@@@std@@PEAV?$elapsed_formatter@Unull_scoped_padder@details@spdlog@@V?$duration@_JU?$ratio@$00$0DOI@@std@@@chrono@std@@@details@spdlog@@$00@std@@QEAA@U_Zero_then_variadic_args_t@1@AEAPEAV?$elapsed_formatter@Unull_scoped_padder@details@spdlog@@V?$duration@_JU?$ratio@$00$0DOI@@std@@@chrono@std@@@details@spdlog@@@Z
	??$?0AEAPEAV?$elapsed_formatter@Unull_scoped_padder@details@spdlog@@V?$duration@_JU?$ratio@$00$0PECEA@@std@@@chrono@std@@@details@spdlog@@@?$_Compressed_pair@U?$default_delete@V?$elapsed_formatter@Unull_scoped_padder@details@spdlog@@V?$duration@_JU?$ratio@$00$0PECEA@@std@@@chrono@std@@@details@spdlog@@@std@@PEAV?$elapsed_formatter@Unull_scoped_padder@details@spdlog@@V?$duration@_JU?$ratio@$00$0PECEA@@std@@@chrono@std@@@details@spdlog@@$00@std@@QEAA@U_Zero_then_variadic_args_t@1@AEAPEAV?$elapsed_formatter@Unull_scoped_padder@details@spdlog@@V?$duration@_JU?$ratio@$00$0PECEA@@std@@@chrono@std@@@details@spdlog@@@Z
	??$?0AEAPEAV?$elapsed_formatter@Vscoped_padder@details@spdlog@@V?$duration@_JU?$ratio@$00$00@std@@@chrono@std@@@details@spdlog@@@?$_Compressed_pair@U?$default_delete@V?$elapsed_formatter@Vscoped_padder@details@spdlog@@V?$duration@_JU?$ratio@$00$00@std@@@chrono@std@@@details@spdlog@@@std@@PEAV?$elapsed_formatter@Vscoped_padder@details@spdlog@@V?$duration@_JU?$ratio@$00$00@std@@@chrono@std@@@details@spdlog@@$00@std@@QEAA@U_Zero_then_variadic_args_t@1@AEAPEAV?$elapsed_formatter@Vscoped_padder@details@spdlog@@V?$duration@_JU?$ratio@$00$00@std@@@chrono@std@@@details@spdlog@@@Z
	??$?0AEAPEAV?$elapsed_formatter@Vscoped_padder@details@spdlog@@V?$duration@_JU?$ratio@$00$0DLJKMKAA@@std@@@chrono@std@@@details@spdlog@@@?$_Compressed_pair@U?$default_delete@V?$elapsed_formatter@Vscoped_padder@details@spdlog@@V?$duration@_JU?$ratio@$00$0DLJKMKAA@@std@@@chrono@std@@@details@spdlog@@@std@@PEAV?$elapsed_formatter@Vscoped_padder@details@spdlog@@V?$duration@_JU?$ratio@$00$0DLJKMKAA@@std@@@chrono@std@@@details@spdlog@@$00@std@@QEAA@U_Zero_then_variadic_args_t@1@AEAPEAV?$elapsed_formatter@Vscoped_padder@details@spdlog@@V?$duration@_JU?$ratio@$00$0DLJKMKAA@@std@@@chrono@std@@@details@spdlog@@@Z
	??$?0AEAPEAV?$elapsed_formatter@Vscoped_padder@details@spdlog@@V?$duration@_JU?$ratio@$00$0DOI@@std@@@chrono@std@@@details@spdlog@@@?$_Compressed_pair@U?$default_delete@V?$elapsed_formatter@Vscoped_padder@details@spdlog@@V?$duration@_JU?$ratio@$00$0DOI@@std@@@chrono@std@@@details@spdlog@@@std@@PEAV?$elapsed_formatter@Vscoped_padder@details@spdlog@@V?$duration@_JU?$ratio@$00$0DOI@@std@@@chrono@std@@@details@spdlog@@$00@std@@QEAA@U_Zero_then_variadic_args_t@1@AEAPEAV?$elapsed_formatter@Vscoped_padder@details@spdlog@@V?$duration@_JU?$ratio@$00$0DOI@@std@@@chrono@std@@@details@spdlog@@@Z
	??$?0AEAPEAV?$elapsed_formatter@Vscoped_padder@details@spdlog@@V?$duration@_JU?$ratio@$00$0PECEA@@std@@@chrono@std@@@details@spdlog@@@?$_Compressed_pair@U?$default_delete@V?$elapsed_formatter@Vscoped_padder@details@spdlog@@V?$duration@_JU?$ratio@$00$0PECEA@@std@@@chrono@std@@@details@spdlog@@@std@@PEAV?$elapsed_formatter@Vscoped_padder@details@spdlog@@V?$duration@_JU?$ratio@$00$0PECEA@@std@@@chrono@std@@@details@spdlog@@$00@std@@QEAA@U_Zero_then_variadic_args_t@1@AEAPEAV?$elapsed_formatter@Vscoped_padder@details@spdlog@@V?$duration@_JU?$ratio@$00$0PECEA@@std@@@chrono@std@@@details@spdlog@@@Z
	??$?0AEAPEAV?$f_formatter@Unull_scoped_padder@details@spdlog@@@details@spdlog@@@?$_Compressed_pair@U?$default_delete@V?$f_formatter@Unull_scoped_padder@details@spdlog@@@details@spdlog@@@std@@PEAV?$f_formatter@Unull_scoped_padder@details@spdlog@@@details@spdlog@@$00@std@@QEAA@U_Zero_then_variadic_args_t@1@AEAPEAV?$f_formatter@Unull_scoped_padder@details@spdlog@@@details@spdlog@@@Z
	??$?0AEAPEAV?$f_formatter@Vscoped_padder@details@spdlog@@@details@spdlog@@@?$_Compressed_pair@U?$default_delete@V?$f_formatter@Vscoped_padder@details@spdlog@@@details@spdlog@@@std@@PEAV?$f_formatter@Vscoped_padder@details@spdlog@@@details@spdlog@@$00@std@@QEAA@U_Zero_then_variadic_args_t@1@AEAPEAV?$f_formatter@Vscoped_padder@details@spdlog@@@details@spdlog@@@Z
	??$?0AEAPEAV?$level_formatter@Unull_scoped_padder@details@spdlog@@@details@spdlog@@@?$_Compressed_pair@U?$default_delete@V?$level_formatter@Unull_scoped_padder@details@spdlog@@@details@spdlog@@@std@@PEAV?$level_formatter@Unull_scoped_padder@details@spdlog@@@details@spdlog@@$00@std@@QEAA@U_Zero_then_variadic_args_t@1@AEAPEAV?$level_formatter@Unull_scoped_padder@details@spdlog@@@details@spdlog@@@Z
	??$?0AEAPEAV?$level_formatter@Vscoped_padder@details@spdlog@@@details@spdlog@@@?$_Compressed_pair@U?$default_delete@V?$level_formatter@Vscoped_padder@details@spdlog@@@details@spdlog@@@std@@PEAV?$level_formatter@Vscoped_padder@details@spdlog@@@details@spdlog@@$00@std@@QEAA@U_Zero_then_variadic_args_t@1@AEAPEAV?$level_formatter@Vscoped_padder@details@spdlog@@@details@spdlog@@@Z
	??$?0AEAPEAV?$m_formatter@Unull_scoped_padder@details@spdlog@@@details@spdlog@@@?$_Compressed_pair@U?$default_delete@V?$m_formatter@Unull_scoped_padder@details@spdlog@@@details@spdlog@@@std@@PEAV?$m_formatter@Unull_scoped_padder@details@spdlog@@@details@spdlog@@$00@std@@QEAA@U_Zero_then_variadic_args_t@1@AEAPEAV?$m_formatter@Unull_scoped_padder@details@spdlog@@@details@spdlog@@@Z
	??$?0AEAPEAV?$m_formatter@Vscoped_padder@details@spdlog@@@details@spdlog@@@?$_Compressed_pair@U?$default_delete@V?$m_formatter@Vscoped_padder@details@spdlog@@@details@spdlog@@@std@@PEAV?$m_formatter@Vscoped_padder@details@spdlog@@@details@spdlog@@$00@std@@QEAA@U_Zero_then_variadic_args_t@1@AEAPEAV?$m_formatter@Vscoped_padder@details@spdlog@@@details@spdlog@@@Z
	??$?0AEAPEAV?$mdc_formatter@Unull_scoped_padder@details@spdlog@@@details@spdlog@@@?$_Compressed_pair@U?$default_delete@V?$mdc_formatter@Unull_scoped_padder@details@spdlog@@@details@spdlog@@@std@@PEAV?$mdc_formatter@Unull_scoped_padder@details@spdlog@@@details@spdlog@@$00@std@@QEAA@U_Zero_then_variadic_args_t@1@AEAPEAV?$mdc_formatter@Unull_scoped_padder@details@spdlog@@@details@spdlog@@@Z
	??$?0AEAPEAV?$mdc_formatter@Vscoped_padder@details@spdlog@@@details@spdlog@@@?$_Compressed_pair@U?$default_delete@V?$mdc_formatter@Vscoped_padder@details@spdlog@@@details@spdlog@@@std@@PEAV?$mdc_formatter@Vscoped_padder@details@spdlog@@@details@spdlog@@$00@std@@QEAA@U_Zero_then_variadic_args_t@1@AEAPEAV?$mdc_formatter@Vscoped_padder@details@spdlog@@@details@spdlog@@@Z
	??$?0AEAPEAV?$name_formatter@Unull_scoped_padder@details@spdlog@@@details@spdlog@@@?$_Compressed_pair@U?$default_delete@V?$name_formatter@Unull_scoped_padder@details@spdlog@@@details@spdlog@@@std@@PEAV?$name_formatter@Unull_scoped_padder@details@spdlog@@@details@spdlog@@$00@std@@QEAA@U_Zero_then_variadic_args_t@1@AEAPEAV?$name_formatter@Unull_scoped_padder@details@spdlog@@@details@spdlog@@@Z
	??$?0AEAPEAV?$name_formatter@Vscoped_padder@details@spdlog@@@details@spdlog@@@?$_Compressed_pair@U?$default_delete@V?$name_formatter@Vscoped_padder@details@spdlog@@@details@spdlog@@@std@@PEAV?$name_formatter@Vscoped_padder@details@spdlog@@@details@spdlog@@$00@std@@QEAA@U_Zero_then_variadic_args_t@1@AEAPEAV?$name_formatter@Vscoped_padder@details@spdlog@@@details@spdlog@@@Z
	??$?0AEAPEAV?$p_formatter@Unull_scoped_padder@details@spdlog@@@details@spdlog@@@?$_Compressed_pair@U?$default_delete@V?$p_formatter@Unull_scoped_padder@details@spdlog@@@details@spdlog@@@std@@PEAV?$p_formatter@Unull_scoped_padder@details@spdlog@@@details@spdlog@@$00@std@@QEAA@U_Zero_then_variadic_args_t@1@AEAPEAV?$p_formatter@Unull_scoped_padder@details@spdlog@@@details@spdlog@@@Z
	??$?0AEAPEAV?$p_formatter@Vscoped_padder@details@spdlog@@@details@spdlog@@@?$_Compressed_pair@U?$default_delete@V?$p_formatter@Vscoped_padder@details@spdlog@@@details@spdlog@@@std@@PEAV?$p_formatter@Vscoped_padder@details@spdlog@@@details@spdlog@@$00@std@@QEAA@U_Zero_then_variadic_args_t@1@AEAPEAV?$p_formatter@Vscoped_padder@details@spdlog@@@details@spdlog@@@Z
	??$?0AEAPEAV?$pid_formatter@Unull_scoped_padder@details@spdlog@@@details@spdlog@@@?$_Compressed_pair@U?$default_delete@V?$pid_formatter@Unull_scoped_padder@details@spdlog@@@details@spdlog@@@std@@PEAV?$pid_formatter@Unull_scoped_padder@details@spdlog@@@details@spdlog@@$00@std@@QEAA@U_Zero_then_variadic_args_t@1@AEAPEAV?$pid_formatter@Unull_scoped_padder@details@spdlog@@@details@spdlog@@@Z
	??$?0AEAPEAV?$pid_formatter@Vscoped_padder@details@spdlog@@@details@spdlog@@@?$_Compressed_pair@U?$default_delete@V?$pid_formatter@Vscoped_padder@details@spdlog@@@details@spdlog@@@std@@PEAV?$pid_formatter@Vscoped_padder@details@spdlog@@@details@spdlog@@$00@std@@QEAA@U_Zero_then_variadic_args_t@1@AEAPEAV?$pid_formatter@Vscoped_padder@details@spdlog@@@details@spdlog@@@Z
	??$?0AEAPEAV?$r_formatter@Unull_scoped_padder@details@spdlog@@@details@spdlog@@@?$_Compressed_pair@U?$default_delete@V?$r_formatter@Unull_scoped_padder@details@spdlog@@@details@spdlog@@@std@@PEAV?$r_formatter@Unull_scoped_padder@details@spdlog@@@details@spdlog@@$00@std@@QEAA@U_Zero_then_variadic_args_t@1@AEAPEAV?$r_formatter@Unull_scoped_padder@details@spdlog@@@details@spdlog@@@Z
	??$?0AEAPEAV?$r_formatter@Vscoped_padder@details@spdlog@@@details@spdlog@@@?$_Compressed_pair@U?$default_delete@V?$r_formatter@Vscoped_padder@details@spdlog@@@details@spdlog@@@std@@PEAV?$r_formatter@Vscoped_padder@details@spdlog@@@details@spdlog@@$00@std@@QEAA@U_Zero_then_variadic_args_t@1@AEAPEAV?$r_formatter@Vscoped_padder@details@spdlog@@@details@spdlog@@@Z
	??$?0AEAPEAV?$short_filename_formatter@Unull_scoped_padder@details@spdlog@@@details@spdlog@@@?$_Compressed_pair@U?$default_delete@V?$short_filename_formatter@Unull_scoped_padder@details@spdlog@@@details@spdlog@@@std@@PEAV?$short_filename_formatter@Unull_scoped_padder@details@spdlog@@@details@spdlog@@$00@std@@QEAA@U_Zero_then_variadic_args_t@1@AEAPEAV?$short_filename_formatter@Unull_scoped_padder@details@spdlog@@@details@spdlog@@@Z
	??$?0AEAPEAV?$short_filename_formatter@Vscoped_padder@details@spdlog@@@details@spdlog@@@?$_Compressed_pair@U?$default_delete@V?$short_filename_formatter@Vscoped_padder@details@spdlog@@@details@spdlog@@@std@@PEAV?$short_filename_formatter@Vscoped_padder@details@spdlog@@@details@spdlog@@$00@std@@QEAA@U_Zero_then_variadic_args_t@1@AEAPEAV?$short_filename_formatter@Vscoped_padder@details@spdlog@@@details@spdlog@@@Z
	??$?0AEAPEAV?$short_level_formatter@Unull_scoped_padder@details@spdlog@@@details@spdlog@@@?$_Compressed_pair@U?$default_delete@V?$short_level_formatter@Unull_scoped_padder@details@spdlog@@@details@spdlog@@@std@@PEAV?$short_level_formatter@Unull_scoped_padder@details@spdlog@@@details@spdlog@@$00@std@@QEAA@U_Zero_then_variadic_args_t@1@AEAPEAV?$short_level_formatter@Unull_scoped_padder@details@spdlog@@@details@spdlog@@@Z
	??$?0AEAPEAV?$short_level_formatter@Vscoped_padder@details@spdlog@@@details@spdlog@@@?$_Compressed_pair@U?$default_delete@V?$short_level_formatter@Vscoped_padder@details@spdlog@@@details@spdlog@@@std@@PEAV?$short_level_formatter@Vscoped_padder@details@spdlog@@@details@spdlog@@$00@std@@QEAA@U_Zero_then_variadic_args_t@1@AEAPEAV?$short_level_formatter@Vscoped_padder@details@spdlog@@@details@spdlog@@@Z
	??$?0AEAPEAV?$source_filename_formatter@Unull_scoped_padder@details@spdlog@@@details@spdlog@@@?$_Compressed_pair@U?$default_delete@V?$source_filename_formatter@Unull_scoped_padder@details@spdlog@@@details@spdlog@@@std@@PEAV?$source_filename_formatter@Unull_scoped_padder@details@spdlog@@@details@spdlog@@$00@std@@QEAA@U_Zero_then_variadic_args_t@1@AEAPEAV?$source_filename_formatter@Unull_scoped_padder@details@spdlog@@@details@spdlog@@@Z
	??$?0AEAPEAV?$source_filename_formatter@Vscoped_padder@details@spdlog@@@details@spdlog@@@?$_Compressed_pair@U?$default_delete@V?$source_filename_formatter@Vscoped_padder@details@spdlog@@@details@spdlog@@@std@@PEAV?$source_filename_formatter@Vscoped_padder@details@spdlog@@@details@spdlog@@$00@std@@QEAA@U_Zero_then_variadic_args_t@1@AEAPEAV?$source_filename_formatter@Vscoped_padder@details@spdlog@@@details@spdlog@@@Z
	??$?0AEAPEAV?$source_funcname_formatter@Unull_scoped_padder@details@spdlog@@@details@spdlog@@@?$_Compressed_pair@U?$default_delete@V?$source_funcname_formatter@Unull_scoped_padder@details@spdlog@@@details@spdlog@@@std@@PEAV?$source_funcname_formatter@Unull_scoped_padder@details@spdlog@@@details@spdlog@@$00@std@@QEAA@U_Zero_then_variadic_args_t@1@AEAPEAV?$source_funcname_formatter@Unull_scoped_padder@details@spdlog@@@details@spdlog@@@Z
	??$?0AEAPEAV?$source_funcname_formatter@Vscoped_padder@details@spdlog@@@details@spdlog@@@?$_Compressed_pair@U?$default_delete@V?$source_funcname_formatter@Vscoped_padder@details@spdlog@@@details@spdlog@@@std@@PEAV?$source_funcname_formatter@Vscoped_padder@details@spdlog@@@details@spdlog@@$00@std@@QEAA@U_Zero_then_variadic_args_t@1@AEAPEAV?$source_funcname_formatter@Vscoped_padder@details@spdlog@@@details@spdlog@@@Z
	??$?0AEAPEAV?$source_linenum_formatter@Unull_scoped_padder@details@spdlog@@@details@spdlog@@@?$_Compressed_pair@U?$default_delete@V?$source_linenum_formatter@Unull_scoped_padder@details@spdlog@@@details@spdlog@@@std@@PEAV?$source_linenum_formatter@Unull_scoped_padder@details@spdlog@@@details@spdlog@@$00@std@@QEAA@U_Zero_then_variadic_args_t@1@AEAPEAV?$source_linenum_formatter@Unull_scoped_padder@details@spdlog@@@details@spdlog@@@Z
	??$?0AEAPEAV?$source_linenum_formatter@Vscoped_padder@details@spdlog@@@details@spdlog@@@?$_Compressed_pair@U?$default_delete@V?$source_linenum_formatter@Vscoped_padder@details@spdlog@@@details@spdlog@@@std@@PEAV?$source_linenum_formatter@Vscoped_padder@details@spdlog@@@details@spdlog@@$00@std@@QEAA@U_Zero_then_variadic_args_t@1@AEAPEAV?$source_linenum_formatter@Vscoped_padder@details@spdlog@@@details@spdlog@@@Z
	??$?0AEAPEAV?$source_location_formatter@Unull_scoped_padder@details@spdlog@@@details@spdlog@@@?$_Compressed_pair@U?$default_delete@V?$source_location_formatter@Unull_scoped_padder@details@spdlog@@@details@spdlog@@@std@@PEAV?$source_location_formatter@Unull_scoped_padder@details@spdlog@@@details@spdlog@@$00@std@@QEAA@U_Zero_then_variadic_args_t@1@AEAPEAV?$source_location_formatter@Unull_scoped_padder@details@spdlog@@@details@spdlog@@@Z
	??$?0AEAPEAV?$source_location_formatter@Vscoped_padder@details@spdlog@@@details@spdlog@@@?$_Compressed_pair@U?$default_delete@V?$source_location_formatter@Vscoped_padder@details@spdlog@@@details@spdlog@@@std@@PEAV?$source_location_formatter@Vscoped_padder@details@spdlog@@@details@spdlog@@$00@std@@QEAA@U_Zero_then_variadic_args_t@1@AEAPEAV?$source_location_formatter@Vscoped_padder@details@spdlog@@@details@spdlog@@@Z
	??$?0AEAPEAV?$t_formatter@Unull_scoped_padder@details@spdlog@@@details@spdlog@@@?$_Compressed_pair@U?$default_delete@V?$t_formatter@Unull_scoped_padder@details@spdlog@@@details@spdlog@@@std@@PEAV?$t_formatter@Unull_scoped_padder@details@spdlog@@@details@spdlog@@$00@std@@QEAA@U_Zero_then_variadic_args_t@1@AEAPEAV?$t_formatter@Unull_scoped_padder@details@spdlog@@@details@spdlog@@@Z
	??$?0AEAPEAV?$t_formatter@Vscoped_padder@details@spdlog@@@details@spdlog@@@?$_Compressed_pair@U?$default_delete@V?$t_formatter@Vscoped_padder@details@spdlog@@@details@spdlog@@@std@@PEAV?$t_formatter@Vscoped_padder@details@spdlog@@@details@spdlog@@$00@std@@QEAA@U_Zero_then_variadic_args_t@1@AEAPEAV?$t_formatter@Vscoped_padder@details@spdlog@@@details@spdlog@@@Z
	??$?0AEAPEAV?$v_formatter@Unull_scoped_padder@details@spdlog@@@details@spdlog@@@?$_Compressed_pair@U?$default_delete@V?$v_formatter@Unull_scoped_padder@details@spdlog@@@details@spdlog@@@std@@PEAV?$v_formatter@Unull_scoped_padder@details@spdlog@@@details@spdlog@@$00@std@@QEAA@U_Zero_then_variadic_args_t@1@AEAPEAV?$v_formatter@Unull_scoped_padder@details@spdlog@@@details@spdlog@@@Z
	??$?0AEAPEAV?$v_formatter@Vscoped_padder@details@spdlog@@@details@spdlog@@@?$_Compressed_pair@U?$default_delete@V?$v_formatter@Vscoped_padder@details@spdlog@@@details@spdlog@@@std@@PEAV?$v_formatter@Vscoped_padder@details@spdlog@@@details@spdlog@@$00@std@@QEAA@U_Zero_then_variadic_args_t@1@AEAPEAV?$v_formatter@Vscoped_padder@details@spdlog@@@details@spdlog@@@Z
	??$?0AEAPEAV?$z_formatter@Unull_scoped_padder@details@spdlog@@@details@spdlog@@@?$_Compressed_pair@U?$default_delete@V?$z_formatter@Unull_scoped_padder@details@spdlog@@@details@spdlog@@@std@@PEAV?$z_formatter@Unull_scoped_padder@details@spdlog@@@details@spdlog@@$00@std@@QEAA@U_Zero_then_variadic_args_t@1@AEAPEAV?$z_formatter@Unull_scoped_padder@details@spdlog@@@details@spdlog@@@Z
	??$?0AEAPEAV?$z_formatter@Vscoped_padder@details@spdlog@@@details@spdlog@@@?$_Compressed_pair@U?$default_delete@V?$z_formatter@Vscoped_padder@details@spdlog@@@details@spdlog@@@std@@PEAV?$z_formatter@Vscoped_padder@details@spdlog@@@details@spdlog@@$00@std@@QEAA@U_Zero_then_variadic_args_t@1@AEAPEAV?$z_formatter@Vscoped_padder@details@spdlog@@@details@spdlog@@@Z
	??$?0AEAPEAVLayer@Engine@@@?$_Alloc_temporary2@V?$allocator@PEAVLayer@Engine@@@std@@@std@@QEAA@AEAV?$allocator@PEAVLayer@Engine@@@1@AEAPEAVLayer@Engine@@@Z
	??$?0AEAPEAVWindow@Engine@@@?$_Compressed_pair@U?$default_delete@VWindow@Engine@@@std@@PEAVWindow@Engine@@$00@std@@QEAA@U_Zero_then_variadic_args_t@1@AEAPEAVWindow@Engine@@@Z
	??$?0AEAPEAV_Facet_base@std@@@?$_Compressed_pair@U?$default_delete@V_Facet_base@std@@@std@@PEAV_Facet_base@2@$00@std@@QEAA@U_Zero_then_variadic_args_t@1@AEAPEAV_Facet_base@1@@Z
	??$?0AEAPEAVaggregate_formatter@details@spdlog@@@?$_Compressed_pair@U?$default_delete@Vaggregate_formatter@details@spdlog@@@std@@PEAVaggregate_formatter@details@spdlog@@$00@std@@QEAA@U_Zero_then_variadic_args_t@1@AEAPEAVaggregate_formatter@details@spdlog@@@Z
	??$?0AEAPEAVch_formatter@details@spdlog@@@?$_Compressed_pair@U?$default_delete@Vch_formatter@details@spdlog@@@std@@PEAVch_formatter@details@spdlog@@$00@std@@QEAA@U_Zero_then_variadic_args_t@1@AEAPEAVch_formatter@details@spdlog@@@Z
	??$?0AEAPEAVcolor_start_formatter@details@spdlog@@@?$_Compressed_pair@U?$default_delete@Vcolor_start_formatter@details@spdlog@@@std@@PEAVcolor_start_formatter@details@spdlog@@$00@std@@QEAA@U_Zero_then_variadic_args_t@1@AEAPEAVcolor_start_formatter@details@spdlog@@@Z
	??$?0AEAPEAVcolor_stop_formatter@details@spdlog@@@?$_Compressed_pair@U?$default_delete@Vcolor_stop_formatter@details@spdlog@@@std@@PEAVcolor_stop_formatter@details@spdlog@@$00@std@@QEAA@U_Zero_then_variadic_args_t@1@AEAPEAVcolor_stop_formatter@details@spdlog@@@Z
	??$?0AEAPEAVformatter@spdlog@@@?$_Compressed_pair@U?$default_delete@Vformatter@spdlog@@@std@@PEAVformatter@spdlog@@$00@std@@QEAA@U_Zero_then_variadic_args_t@1@AEAPEAVformatter@spdlog@@@Z
	??$?0AEAPEAVfull_formatter@details@spdlog@@@?$_Compressed_pair@U?$default_delete@Vfull_formatter@details@spdlog@@@std@@PEAVfull_formatter@details@spdlog@@$00@std@@QEAA@U_Zero_then_variadic_args_t@1@AEAPEAVfull_formatter@details@spdlog@@@Z
	??$?0AEAPEAVpattern_formatter@spdlog@@@?$_Compressed_pair@U?$default_delete@Vpattern_formatter@spdlog@@@std@@PEAVpattern_formatter@spdlog@@$00@std@@QEAA@U_Zero_then_variadic_args_t@1@AEAPEAVpattern_formatter@spdlog@@@Z
	??$?0AEAPEBDAEAPEBDAEAH@?$format_arg_store@V?$basic_format_context@Vappender@v9@fmt@@D@v9@fmt@@PEBDPEBDH@v9@fmt@@QEAA@AEAPEBD0AEAH@Z
	??$?0AEAPEBDAEBQEBDAEBH@?$format_arg_store@V?$basic_format_context@Vappender@v9@fmt@@D@v9@fmt@@PEBDPEBDH@v9@fmt@@QEAA@AEAPEBDAEBQEBDAEBH@Z
	??$?0AEAPEBDV?$shared_ptr@V?$wincolor_stdout_sink@Uconsole_mutex@details@spdlog@@@sinks@spdlog@@@std@@@?$_Ref_count_obj2@Vlogger@spdlog@@@std@@QEAA@AEAPEBD$$QEAV?$shared_ptr@V?$wincolor_stdout_sink@Uconsole_mutex@details@spdlog@@@sinks@spdlog@@@1@@Z
	??$?0AEAV?$basic_string_view@D@v9@fmt@@AEAY02$$CBD@?$format_arg_store@V?$basic_format_context@Vappender@v9@fmt@@D@v9@fmt@@V?$basic_string_view@D@23@$$BY02D@v9@fmt@@QEAA@AEAV?$basic_string_view@D@12@AEAY02$$CBD@Z
	??$?0AEAVEvent@Engine@@$0A@@?$tuple@AEAVEvent@Engine@@@std@@QEAA@AEAVEvent@Engine@@@Z
	??$?0AEAVEvent@Engine@@@?$_Tuple_val@AEAVEvent@Engine@@@std@@QEAA@AEAVEvent@Engine@@@Z
	??$?0AEAVKeyPressedEvent@Engine@@$0A@@?$tuple@AEAVKeyPressedEvent@Engine@@@std@@QEAA@AEAVKeyPressedEvent@Engine@@@Z
	??$?0AEAVKeyPressedEvent@Engine@@@?$_Tuple_val@AEAVKeyPressedEvent@Engine@@@std@@QEAA@AEAVKeyPressedEvent@Engine@@@Z
	??$?0AEAVKeyReleasedEvent@Engine@@$0A@@?$tuple@AEAVKeyReleasedEvent@Engine@@@std@@QEAA@AEAVKeyReleasedEvent@Engine@@@Z
	??$?0AEAVKeyReleasedEvent@Engine@@@?$_Tuple_val@AEAVKeyReleasedEvent@Engine@@@std@@QEAA@AEAVKeyReleasedEvent@Engine@@@Z
	??$?0AEAVKeyTypedEvent@Engine@@$0A@@?$tuple@AEAVKeyTypedEvent@Engine@@@std@@QEAA@AEAVKeyTypedEvent@Engine@@@Z
	??$?0AEAVKeyTypedEvent@Engine@@@?$_Tuple_val@AEAVKeyTypedEvent@Engine@@@std@@QEAA@AEAVKeyTypedEvent@Engine@@@Z
	??$?0AEAVMouseButtonPressedEvent@Engine@@$0A@@?$tuple@AEAVMouseButtonPressedEvent@Engine@@@std@@QEAA@AEAVMouseButtonPressedEvent@Engine@@@Z
	??$?0AEAVMouseButtonPressedEvent@Engine@@@?$_Tuple_val@AEAVMouseButtonPressedEvent@Engine@@@std@@QEAA@AEAVMouseButtonPressedEvent@Engine@@@Z
	??$?0AEAVMouseButtonReleasedEvent@Engine@@$0A@@?$tuple@AEAVMouseButtonReleasedEvent@Engine@@@std@@QEAA@AEAVMouseButtonReleasedEvent@Engine@@@Z
	??$?0AEAVMouseButtonReleasedEvent@Engine@@@?$_Tuple_val@AEAVMouseButtonReleasedEvent@Engine@@@std@@QEAA@AEAVMouseButtonReleasedEvent@Engine@@@Z
	??$?0AEAVMouseMovedEvent@Engine@@$0A@@?$tuple@AEAVMouseMovedEvent@Engine@@@std@@QEAA@AEAVMouseMovedEvent@Engine@@@Z
	??$?0AEAVMouseMovedEvent@Engine@@@?$_Tuple_val@AEAVMouseMovedEvent@Engine@@@std@@QEAA@AEAVMouseMovedEvent@Engine@@@Z
	??$?0AEAVMouseScrolledEvent@Engine@@$0A@@?$tuple@AEAVMouseScrolledEvent@Engine@@@std@@QEAA@AEAVMouseScrolledEvent@Engine@@@Z
	??$?0AEAVMouseScrolledEvent@Engine@@@?$_Tuple_val@AEAVMouseScrolledEvent@Engine@@@std@@QEAA@AEAVMouseScrolledEvent@Engine@@@Z
	??$?0AEAVWindowCloseEvent@Engine@@$0A@@?$tuple@AEAVWindowCloseEvent@Engine@@@std@@QEAA@AEAVWindowCloseEvent@Engine@@@Z
	??$?0AEAVWindowCloseEvent@Engine@@@?$_Tuple_val@AEAVWindowCloseEvent@Engine@@@std@@QEAA@AEAVWindowCloseEvent@Engine@@@Z
	??$?0AEAVWindowResizeEvent@Engine@@$0A@@?$tuple@AEAVWindowResizeEvent@Engine@@@std@@QEAA@AEAVWindowResizeEvent@Engine@@@Z
	??$?0AEAVWindowResizeEvent@Engine@@@?$_Tuple_val@AEAVWindowResizeEvent@Engine@@@std@@QEAA@AEAVWindowResizeEvent@Engine@@@Z
	??$?0AEAVlogger@spdlog@@@?$_Ref_count_obj2@Vlogger@spdlog@@@std@@QEAA@AEAVlogger@spdlog@@@Z
	??$?0AEAW4color_mode@spdlog@@@?$_Ref_count_obj2@V?$wincolor_stdout_sink@Uconsole_mutex@details@spdlog@@@sinks@spdlog@@@std@@QEAA@AEAW4color_mode@spdlog@@@Z
	??$?0AEAY06$$CBDAEAH@?$format_arg_store@V?$basic_format_context@Vappender@v9@fmt@@D@v9@fmt@@$$BY06DH@v9@fmt@@QEAA@AEAY06$$CBDAEAH@Z
	??$?0AEBD$$Z$$V@?$pair@$$CBDV?$unique_ptr@Vcustom_flag_formatter@spdlog@@U?$default_delete@Vcustom_flag_formatter@spdlog@@@std@@@std@@@std@@QEAA@Upiecewise_construct_t@1@V?$tuple@AEBD@1@V?$tuple@$$V@1@@Z
	??$?0AEBD$0A@@?$tuple@AEBD@std@@QEAA@AEBD@Z
	??$?0AEBD@?$_Tuple_val@AEBD@std@@QEAA@AEBD@Z
	??$?0AEBU?$_Ph@$00@std@@@?$_Tuple_val@U?$_Ph@$00@std@@@std@@QEAA@AEBU?$_Ph@$00@1@@Z
	??$?0AEBU?$less@V?$basic_string@DU?$char_traits@D@std@@V?$allocator@D@2@@std@@@std@@U_Zero_then_variadic_args_t@1@@?$_Compressed_pair@U?$less@V?$basic_string@DU?$char_traits@D@std@@V?$allocator@D@2@@std@@@std@@V?$_Compressed_pair@V?$allocator@U?$_Tree_node@U?$pair@$$CBV?$basic_string@DU?$char_traits@D@std@@V?$allocator@D@2@@std@@V12@@std@@PEAX@std@@@std@@V?$_Tree_val@U?$_Tree_simple_types@U?$pair@$$CBV?$basic_string@DU?$char_traits@D@std@@V?$allocator@D@2@@std@@V12@@std@@@std@@@2@$00@2@$00@std@@QEAA@U_One_then_variadic_args_t@1@AEBU?$less@V?$basic_string@DU?$char_traits@D@std@@V?$allocator@D@2@@std@@@1@$$QEAU_Zero_then_variadic_args_t@1@@Z
	??$?0AEBUpiecewise_construct_t@std@@V?$tuple@$$QEAV?$basic_string@DU?$char_traits@D@std@@V?$allocator@D@2@@std@@@1@V?$tuple@$$V@1@@?$_List_node_emplace_op2@V?$allocator@U?$_List_node@U?$pair@$$CBV?$basic_string@DU?$char_traits@D@std@@V?$allocator@D@2@@std@@V?$shared_ptr@Vlogger@spdlog@@@2@@std@@PEAX@std@@@std@@@std@@QEAA@AEAV?$allocator@U?$_List_node@U?$pair@$$CBV?$basic_string@DU?$char_traits@D@std@@V?$allocator@D@2@@std@@V?$shared_ptr@Vlogger@spdlog@@@2@@std@@PEAX@std@@@1@AEBUpiecewise_construct_t@1@$$QEAV?$tuple@$$QEAV?$basic_string@DU?$char_traits@D@std@@V?$allocator@D@2@@std@@@1@$$QEAV?$tuple@$$V@1@@Z
	??$?0AEBUpiecewise_construct_t@std@@V?$tuple@AEBD@1@V?$tuple@$$V@1@@?$_List_node_emplace_op2@V?$allocator@U?$_List_node@U?$pair@$$CBDV?$unique_ptr@Vcustom_flag_formatter@spdlog@@U?$default_delete@Vcustom_flag_formatter@spdlog@@@std@@@std@@@std@@PEAX@std@@@std@@@std@@QEAA@AEAV?$allocator@U?$_List_node@U?$pair@$$CBDV?$unique_ptr@Vcustom_flag_formatter@spdlog@@U?$default_delete@Vcustom_flag_formatter@spdlog@@@std@@@std@@@std@@PEAX@std@@@1@AEBUpiecewise_construct_t@1@$$QEAV?$tuple@AEBD@1@$$QEAV?$tuple@$$V@1@@Z
	??$?0AEBUpiecewise_construct_t@std@@V?$tuple@AEBV?$basic_string@DU?$char_traits@D@std@@V?$allocator@D@2@@std@@@1@V?$tuple@$$V@1@@?$_List_node_emplace_op2@V?$allocator@U?$_List_node@U?$pair@$$CBV?$basic_string@DU?$char_traits@D@std@@V?$allocator@D@2@@std@@V?$shared_ptr@Vlogger@spdlog@@@2@@std@@PEAX@std@@@std@@@std@@QEAA@AEAV?$allocator@U?$_List_node@U?$pair@$$CBV?$basic_string@DU?$char_traits@D@std@@V?$allocator@D@2@@std@@V?$shared_ptr@Vlogger@spdlog@@@2@@std@@PEAX@std@@@1@AEBUpiecewise_construct_t@1@$$QEAV?$tuple@AEBV?$basic_string@DU?$char_traits@D@std@@V?$allocator@D@2@@std@@@1@$$QEAV?$tuple@$$V@1@@Z
	??$?0AEBV?$_Binder@U_Unforced@std@@P8Application@Engine@@EAAXAEAVEvent@4@@ZPEAV34@AEBU?$_Ph@$00@2@@std@@$0A@@?$_Func_impl_no_alloc@V?$_Binder@U_Unforced@std@@P8Application@Engine@@EAAXAEAVEvent@4@@ZPEAV34@AEBU?$_Ph@$00@2@@std@@XAEAVEvent@Engine@@@std@@QEAA@AEBV?$_Binder@U_Unforced@std@@P8Application@Engine@@EAAXAEAVEvent@4@@ZPEAV34@AEBU?$_Ph@$00@2@@1@@Z
	??$?0AEBV?$_Binder@U_Unforced@std@@P8Application@Engine@@EAA_NAEAVWindowCloseEvent@4@@ZPEAV34@AEBU?$_Ph@$00@2@@std@@$0A@@?$_Func_impl_no_alloc@V?$_Binder@U_Unforced@std@@P8Application@Engine@@EAA_NAEAVWindowCloseEvent@4@@ZPEAV34@AEBU?$_Ph@$00@2@@std@@_NAEAVWindowCloseEvent@Engine@@@std@@QEAA@AEBV?$_Binder@U_Unforced@std@@P8Application@Engine@@EAA_NAEAVWindowCloseEvent@4@@ZPEAV34@AEBU?$_Ph@$00@2@@1@@Z
	??$?0AEBV?$_Binder@U_Unforced@std@@P8ImGuiLayer@Engine@@EAA_NAEAVKeyPressedEvent@4@@ZPEAV34@AEBU?$_Ph@$00@2@@std@@$0A@@?$_Func_impl_no_alloc@V?$_Binder@U_Unforced@std@@P8ImGuiLayer@Engine@@EAA_NAEAVKeyPressedEvent@4@@ZPEAV34@AEBU?$_Ph@$00@2@@std@@_NAEAVKeyPressedEvent@Engine@@@std@@QEAA@AEBV?$_Binder@U_Unforced@std@@P8ImGuiLayer@Engine@@EAA_NAEAVKeyPressedEvent@4@@ZPEAV34@AEBU?$_Ph@$00@2@@1@@Z
	??$?0AEBV?$_Binder@U_Unforced@std@@P8ImGuiLayer@Engine@@EAA_NAEAVKeyReleasedEvent@4@@ZPEAV34@AEBU?$_Ph@$00@2@@std@@$0A@@?$_Func_impl_no_alloc@V?$_Binder@U_Unforced@std@@P8ImGuiLayer@Engine@@EAA_NAEAVKeyReleasedEvent@4@@ZPEAV34@AEBU?$_Ph@$00@2@@std@@_NAEAVKeyReleasedEvent@Engine@@@std@@QEAA@AEBV?$_Binder@U_Unforced@std@@P8ImGuiLayer@Engine@@EAA_NAEAVKeyReleasedEvent@4@@ZPEAV34@AEBU?$_Ph@$00@2@@1@@Z
	??$?0AEBV?$_Binder@U_Unforced@std@@P8ImGuiLayer@Engine@@EAA_NAEAVKeyTypedEvent@4@@ZPEAV34@AEBU?$_Ph@$00@2@@std@@$0A@@?$_Func_impl_no_alloc@V?$_Binder@U_Unforced@std@@P8ImGuiLayer@Engine@@EAA_NAEAVKeyTypedEvent@4@@ZPEAV34@AEBU?$_Ph@$00@2@@std@@_NAEAVKeyTypedEvent@Engine@@@std@@QEAA@AEBV?$_Binder@U_Unforced@std@@P8ImGuiLayer@Engine@@EAA_NAEAVKeyTypedEvent@4@@ZPEAV34@AEBU?$_Ph@$00@2@@1@@Z
	??$?0AEBV?$_Binder@U_Unforced@std@@P8ImGuiLayer@Engine@@EAA_NAEAVMouseButtonPressedEvent@4@@ZPEAV34@AEBU?$_Ph@$00@2@@std@@$0A@@?$_Func_impl_no_alloc@V?$_Binder@U_Unforced@std@@P8ImGuiLayer@Engine@@EAA_NAEAVMouseButtonPressedEvent@4@@ZPEAV34@AEBU?$_Ph@$00@2@@std@@_NAEAVMouseButtonPressedEvent@Engine@@@std@@QEAA@AEBV?$_Binder@U_Unforced@std@@P8ImGuiLayer@Engine@@EAA_NAEAVMouseButtonPressedEvent@4@@ZPEAV34@AEBU?$_Ph@$00@2@@1@@Z
	??$?0AEBV?$_Binder@U_Unforced@std@@P8ImGuiLayer@Engine@@EAA_NAEAVMouseButtonReleasedEvent@4@@ZPEAV34@AEBU?$_Ph@$00@2@@std@@$0A@@?$_Func_impl_no_alloc@V?$_Binder@U_Unforced@std@@P8ImGuiLayer@Engine@@EAA_NAEAVMouseButtonReleasedEvent@4@@ZPEAV34@AEBU?$_Ph@$00@2@@std@@_NAEAVMouseButtonReleasedEvent@Engine@@@std@@QEAA@AEBV?$_Binder@U_Unforced@std@@P8ImGuiLayer@Engine@@EAA_NAEAVMouseButtonReleasedEvent@4@@ZPEAV34@AEBU?$_Ph@$00@2@@1@@Z
	??$?0AEBV?$_Binder@U_Unforced@std@@P8ImGuiLayer@Engine@@EAA_NAEAVMouseMovedEvent@4@@ZPEAV34@AEBU?$_Ph@$00@2@@std@@$0A@@?$_Func_impl_no_alloc@V?$_Binder@U_Unforced@std@@P8ImGuiLayer@Engine@@EAA_NAEAVMouseMovedEvent@4@@ZPEAV34@AEBU?$_Ph@$00@2@@std@@_NAEAVMouseMovedEvent@Engine@@@std@@QEAA@AEBV?$_Binder@U_Unforced@std@@P8ImGuiLayer@Engine@@EAA_NAEAVMouseMovedEvent@4@@ZPEAV34@AEBU?$_Ph@$00@2@@1@@Z
	??$?0AEBV?$_Binder@U_Unforced@std@@P8ImGuiLayer@Engine@@EAA_NAEAVMouseScrolledEvent@4@@ZPEAV34@AEBU?$_Ph@$00@2@@std@@$0A@@?$_Func_impl_no_alloc@V?$_Binder@U_Unforced@std@@P8ImGuiLayer@Engine@@EAA_NAEAVMouseScrolledEvent@4@@ZPEAV34@AEBU?$_Ph@$00@2@@std@@_NAEAVMouseScrolledEvent@Engine@@@std@@QEAA@AEBV?$_Binder@U_Unforced@std@@P8ImGuiLayer@Engine@@EAA_NAEAVMouseScrolledEvent@4@@ZPEAV34@AEBU?$_Ph@$00@2@@1@@Z
	??$?0AEBV?$_Binder@U_Unforced@std@@P8ImGuiLayer@Engine@@EAA_NAEAVWindowResizeEvent@4@@ZPEAV34@AEBU?$_Ph@$00@2@@std@@$0A@@?$_Func_impl_no_alloc@V?$_Binder@U_Unforced@std@@P8ImGuiLayer@Engine@@EAA_NAEAVWindowResizeEvent@4@@ZPEAV34@AEBU?$_Ph@$00@2@@std@@_NAEAVWindowResizeEvent@Engine@@@std@@QEAA@AEBV?$_Binder@U_Unforced@std@@P8ImGuiLayer@Engine@@EAA_NAEAVWindowResizeEvent@4@@ZPEAV34@AEBU?$_Ph@$00@2@@1@@Z
	??$?0AEBV?$allocator@D@std@@$$V@?$_Compressed_pair@V?$allocator@D@std@@V?$_String_val@U?$_Simple_types@D@std@@@2@$00@std@@QEAA@U_One_then_variadic_args_t@1@AEBV?$allocator@D@1@@Z
	??$?0AEBV?$allocator@U?$pair@$$CBDV?$unique_ptr@Vcustom_flag_formatter@spdlog@@U?$default_delete@Vcustom_flag_formatter@spdlog@@@std@@@std@@@std@@@std@@$$V@?$_Compressed_pair@V?$allocator@U?$_List_node@U?$pair@$$CBDV?$unique_ptr@Vcustom_flag_formatter@spdlog@@U?$default_delete@Vcustom_flag_formatter@spdlog@@@std@@@std@@@std@@PEAX@std@@@std@@V?$_List_val@U?$_List_simple_types@U?$pair@$$CBDV?$unique_ptr@Vcustom_flag_formatter@spdlog@@U?$default_delete@Vcustom_flag_formatter@spdlog@@@std@@@std@@@std@@@std@@@2@$00@std@@QEAA@U_One_then_variadic_args_t@1@AEBV?$allocator@U?$pair@$$CBDV?$unique_ptr@Vcustom_flag_formatter@spdlog@@U?$default_delete@Vcustom_flag_formatter@spdlog@@@std@@@std@@@std@@@1@@Z
	??$?0AEBV?$allocator@U?$pair@$$CBDV?$unique_ptr@Vcustom_flag_formatter@spdlog@@U?$default_delete@Vcustom_flag_formatter@spdlog@@@std@@@std@@@std@@@std@@$$V@?$_Compressed_pair@V?$allocator@V?$_List_unchecked_iterator@V?$_List_val@U?$_List_simple_types@U?$pair@$$CBDV?$unique_ptr@Vcustom_flag_formatter@spdlog@@U?$default_delete@Vcustom_flag_formatter@spdlog@@@std@@@std@@@std@@@std@@@std@@@std@@@std@@V?$_Vector_val@U?$_Simple_types@V?$_List_unchecked_iterator@V?$_List_val@U?$_List_simple_types@U?$pair@$$CBDV?$unique_ptr@Vcustom_flag_formatter@spdlog@@U?$default_delete@Vcustom_flag_formatter@spdlog@@@std@@@std@@@std@@@std@@@std@@@std@@@std@@@2@$00@std@@QEAA@U_One_then_variadic_args_t@1@AEBV?$allocator@U?$pair@$$CBDV?$unique_ptr@Vcustom_flag_formatter@spdlog@@U?$default_delete@Vcustom_flag_formatter@spdlog@@@std@@@std@@@std@@@1@@Z
	??$?0AEBV?$allocator@U?$pair@$$CBDV?$unique_ptr@Vcustom_flag_formatter@spdlog@@U?$default_delete@Vcustom_flag_formatter@spdlog@@@std@@@std@@@std@@@std@@$0A@@?$_Hash_vec@V?$allocator@V?$_List_unchecked_iterator@V?$_List_val@U?$_List_simple_types@U?$pair@$$CBDV?$unique_ptr@Vcustom_flag_formatter@spdlog@@U?$default_delete@Vcustom_flag_formatter@spdlog@@@std@@@std@@@std@@@std@@@std@@@std@@@std@@@std@@QEAA@AEBV?$allocator@U?$pair@$$CBDV?$unique_ptr@Vcustom_flag_formatter@spdlog@@U?$default_delete@Vcustom_flag_formatter@spdlog@@@std@@@std@@@std@@@1@@Z
	??$?0AEBV?$allocator@U?$pair@$$CBV?$basic_string@DU?$char_traits@D@std@@V?$allocator@D@2@@std@@V?$shared_ptr@Vlogger@spdlog@@@2@@std@@@std@@$$V@?$_Compressed_pair@V?$allocator@U?$_List_node@U?$pair@$$CBV?$basic_string@DU?$char_traits@D@std@@V?$allocator@D@2@@std@@V?$shared_ptr@Vlogger@spdlog@@@2@@std@@PEAX@std@@@std@@V?$_List_val@U?$_List_simple_types@U?$pair@$$CBV?$basic_string@DU?$char_traits@D@std@@V?$allocator@D@2@@std@@V?$shared_ptr@Vlogger@spdlog@@@2@@std@@@std@@@2@$00@std@@QEAA@U_One_then_variadic_args_t@1@AEBV?$allocator@U?$pair@$$CBV?$basic_string@DU?$char_traits@D@std@@V?$allocator@D@2@@std@@V?$shared_ptr@Vlogger@spdlog@@@2@@std@@@1@@Z
	??$?0AEBV?$allocator@U?$pair@$$CBV?$basic_string@DU?$char_traits@D@std@@V?$allocator@D@2@@std@@V?$shared_ptr@Vlogger@spdlog@@@2@@std@@@std@@$$V@?$_Compressed_pair@V?$allocator@V?$_List_unchecked_iterator@V?$_List_val@U?$_List_simple_types@U?$pair@$$CBV?$basic_string@DU?$char_traits@D@std@@V?$allocator@D@2@@std@@V?$shared_ptr@Vlogger@spdlog@@@2@@std@@@std@@@std@@@std@@@std@@V?$_Vector_val@U?$_Simple_types@V?$_List_unchecked_iterator@V?$_List_val@U?$_List_simple_types@U?$pair@$$CBV?$basic_string@DU?$char_traits@D@std@@V?$allocator@D@2@@std@@V?$shared_ptr@Vlogger@spdlog@@@2@@std@@@std@@@std@@@std@@@std@@@2@$00@std@@QEAA@U_One_then_variadic_args_t@1@AEBV?$allocator@U?$pair@$$CBV?$basic_string@DU?$char_traits@D@std@@V?$allocator@D@2@@std@@V?$shared_ptr@Vlogger@spdlog@@@2@@std@@@1@@Z
	??$?0AEBV?$allocator@U?$pair@$$CBV?$basic_string@DU?$char_traits@D@std@@V?$allocator@D@2@@std@@V?$shared_ptr@Vlogger@spdlog@@@2@@std@@@std@@$0A@@?$_Hash_vec@V?$allocator@V?$_List_unchecked_iterator@V?$_List_val@U?$_List_simple_types@U?$pair@$$CBV?$basic_string@DU?$char_traits@D@std@@V?$allocator@D@2@@std@@V?$shared_ptr@Vlogger@spdlog@@@2@@std@@@std@@@std@@@std@@@std@@@std@@QEAA@AEBV?$allocator@U?$pair@$$CBV?$basic_string@DU?$char_traits@D@std@@V?$allocator@D@2@@std@@V?$shared_ptr@Vlogger@spdlog@@@2@@std@@@1@@Z
	??$?0AEBV?$allocator@U?$pair@$$CBV?$basic_string@DU?$char_traits@D@std@@V?$allocator@D@2@@std@@W4level_enum@level@spdlog@@@std@@@std@@$$V@?$_Compressed_pair@V?$allocator@U?$_List_node@U?$pair@$$CBV?$basic_string@DU?$char_traits@D@std@@V?$allocator@D@2@@std@@W4level_enum@level@spdlog@@@std@@PEAX@std@@@std@@V?$_List_val@U?$_List_simple_types@U?$pair@$$CBV?$basic_string@DU?$char_traits@D@std@@V?$allocator@D@2@@std@@W4level_enum@level@spdlog@@@std@@@std@@@2@$00@std@@QEAA@U_One_then_variadic_args_t@1@AEBV?$allocator@U?$pair@$$CBV?$basic_string@DU?$char_traits@D@std@@V?$allocator@D@2@@std@@W4level_enum@level@spdlog@@@std@@@1@@Z
	??$?0AEBV?$allocator@U?$pair@$$CBV?$basic_string@DU?$char_traits@D@std@@V?$allocator@D@2@@std@@W4level_enum@level@spdlog@@@std@@@std@@$$V@?$_Compressed_pair@V?$allocator@V?$_List_unchecked_iterator@V?$_List_val@U?$_List_simple_types@U?$pair@$$CBV?$basic_string@DU?$char_traits@D@std@@V?$allocator@D@2@@std@@W4level_enum@level@spdlog@@@std@@@std@@@std@@@std@@@std@@V?$_Vector_val@U?$_Simple_types@V?$_List_unchecked_iterator@V?$_List_val@U?$_List_simple_types@U?$pair@$$CBV?$basic_string@DU?$char_traits@D@std@@V?$allocator@D@2@@std@@W4level_enum@level@spdlog@@@std@@@std@@@std@@@std@@@std@@@2@$00@std@@QEAA@U_One_then_variadic_args_t@1@AEBV?$allocator@U?$pair@$$CBV?$basic_string@DU?$char_traits@D@std@@V?$allocator@D@2@@std@@W4level_enum@level@spdlog@@@std@@@1@@Z
	??$?0AEBV?$allocator@U?$pair@$$CBV?$basic_string@DU?$char_traits@D@std@@V?$allocator@D@2@@std@@W4level_enum@level@spdlog@@@std@@@std@@$0A@@?$_Hash_vec@V?$allocator@V?$_List_unchecked_iterator@V?$_List_val@U?$_List_simple_types@U?$pair@$$CBV?$basic_string@DU?$char_traits@D@std@@V?$allocator@D@2@@std@@W4level_enum@level@spdlog@@@std@@@std@@@std@@@std@@@std@@@std@@QEAA@AEBV?$allocator@U?$pair@$$CBV?$basic_string@DU?$char_traits@D@std@@V?$allocator@D@2@@std@@W4level_enum@level@spdlog@@@std@@@1@@Z
	??$?0AEBV?$allocator@V?$shared_ptr@Vsink@sinks@spdlog@@@std@@@std@@$$V@?$_Compressed_pair@V?$allocator@V?$shared_ptr@Vsink@sinks@spdlog@@@std@@@std@@V?$_Vector_val@U?$_Simple_types@V?$shared_ptr@Vsink@sinks@spdlog@@@std@@@std@@@2@$00@std@@QEAA@U_One_then_variadic_args_t@1@AEBV?$allocator@V?$shared_ptr@Vsink@sinks@spdlog@@@std@@@1@@Z
	??$?0AEBV?$allocator@Vlog_msg_buffer@details@spdlog@@@std@@$$V@?$_Compressed_pair@V?$allocator@Vlog_msg_buffer@details@spdlog@@@std@@V?$_Vector_val@U?$_Simple_types@Vlog_msg_buffer@details@spdlog@@@std@@@2@$00@std@@QEAA@U_One_then_variadic_args_t@1@AEBV?$allocator@Vlog_msg_buffer@details@spdlog@@@1@@Z
	??$?0AEBV?$basic_string@DU?$char_traits@D@std@@V?$allocator@D@2@@std@@$$Z$$V@?$pair@$$CBV?$basic_string@DU?$char_traits@D@std@@V?$allocator@D@2@@std@@V?$shared_ptr@Vlogger@spdlog@@@2@@std@@QEAA@Upiecewise_construct_t@1@V?$tuple@AEBV?$basic_string@DU?$char_traits@D@std@@V?$allocator@D@2@@std@@@1@V?$tuple@$$V@1@@Z
	??$?0AEBV?$basic_string@DU?$char_traits@D@std@@V?$allocator@D@2@@std@@$0A@@?$tuple@AEBV?$basic_string@DU?$char_traits@D@std@@V?$allocator@D@2@@std@@@std@@QEAA@AEBV?$basic_string@DU?$char_traits@D@std@@V?$allocator@D@2@@1@@Z
	??$?0AEBV?$basic_string@DU?$char_traits@D@std@@V?$allocator@D@2@@std@@@?$_Tuple_val@AEBV?$basic_string@DU?$char_traits@D@std@@V?$allocator@D@2@@std@@@std@@QEAA@AEBV?$basic_string@DU?$char_traits@D@std@@V?$allocator@D@2@@1@@Z
	??$?0AEBV?$basic_string@DU?$char_traits@D@std@@V?$allocator@D@2@@std@@AEBIAEBI@?$format_arg_store@V?$basic_format_context@Vappender@v9@fmt@@D@v9@fmt@@V?$basic_string@DU?$char_traits@D@std@@V?$allocator@D@2@@std@@II@v9@fmt@@QEAA@AEBV?$basic_string@DU?$char_traits@D@std@@V?$allocator@D@2@@std@@AEBI1@Z
	??$?0D@?$allocator@U_Container_proxy@std@@@std@@QEAA@AEBV?$allocator@D@1@@Z
	??$?0H$0A@@?$duration@_JU?$ratio@$00$00@std@@@chrono@std@@QEAA@AEBH@Z
	??$?0H@?$basic_format_args@V?$basic_format_context@Vappender@v9@fmt@@D@v9@fmt@@@v9@fmt@@QEAA@AEBV?$format_arg_store@V?$basic_format_context@Vappender@v9@fmt@@D@v9@fmt@@H@12@@Z
	??$?0HPEBD@?$basic_format_args@V?$basic_format_context@Vappender@v9@fmt@@D@v9@fmt@@@v9@fmt@@QEAA@AEBV?$format_arg_store@V?$basic_format_context@Vappender@v9@fmt@@D@v9@fmt@@HPEBD@12@@Z
	??$?0M@?$_Compressed_pair@U?$equal_to@D@std@@M$00@std@@QEAA@U_Zero_then_variadic_args_t@1@$$QEAM@Z
	??$?0M@?$_Compressed_pair@U?$equal_to@V?$basic_string@DU?$char_traits@D@std@@V?$allocator@D@2@@std@@@std@@M$00@std@@QEAA@U_Zero_then_variadic_args_t@1@$$QEAM@Z
	??$?0N@?$basic_fp@_K@detail@v9@fmt@@QEAA@N@Z
	??$?0P8Application@Engine@@EAAXAEAVEvent@1@@ZPEAV01@AEBU?$_Ph@$00@std@@@?$_Compressed_pair@P8Application@Engine@@EAAXAEAVEvent@2@@ZV?$tuple@PEAVApplication@Engine@@U?$_Ph@$00@std@@@std@@$0A@@std@@QEAA@U_One_then_variadic_args_t@1@$$QEAP8Application@Engine@@EAAXAEAVEvent@4@@Z$$QEAPEAV34@AEBU?$_Ph@$00@1@@Z
	??$?0P8Application@Engine@@EAA_NAEAVWindowCloseEvent@1@@ZPEAV01@AEBU?$_Ph@$00@std@@@?$_Compressed_pair@P8Application@Engine@@EAA_NAEAVWindowCloseEvent@2@@ZV?$tuple@PEAVApplication@Engine@@U?$_Ph@$00@std@@@std@@$0A@@std@@QEAA@U_One_then_variadic_args_t@1@$$QEAP8Application@Engine@@EAA_NAEAVWindowCloseEvent@4@@Z$$QEAPEAV34@AEBU?$_Ph@$00@1@@Z
	??$?0P8ImGuiLayer@Engine@@EAA_NAEAVKeyPressedEvent@1@@ZPEAV01@AEBU?$_Ph@$00@std@@@?$_Compressed_pair@P8ImGuiLayer@Engine@@EAA_NAEAVKeyPressedEvent@2@@ZV?$tuple@PEAVImGuiLayer@Engine@@U?$_Ph@$00@std@@@std@@$0A@@std@@QEAA@U_One_then_variadic_args_t@1@$$QEAP8ImGuiLayer@Engine@@EAA_NAEAVKeyPressedEvent@4@@Z$$QEAPEAV34@AEBU?$_Ph@$00@1@@Z
	??$?0P8ImGuiLayer@Engine@@EAA_NAEAVKeyReleasedEvent@1@@ZPEAV01@AEBU?$_Ph@$00@std@@@?$_Compressed_pair@P8ImGuiLayer@Engine@@EAA_NAEAVKeyReleasedEvent@2@@ZV?$tuple@PEAVImGuiLayer@Engine@@U?$_Ph@$00@std@@@std@@$0A@@std@@QEAA@U_One_then_variadic_args_t@1@$$QEAP8ImGuiLayer@Engine@@EAA_NAEAVKeyReleasedEvent@4@@Z$$QEAPEAV34@AEBU?$_Ph@$00@1@@Z
	??$?0P8ImGuiLayer@Engine@@EAA_NAEAVKeyTypedEvent@1@@ZPEAV01@AEBU?$_Ph@$00@std@@@?$_Compressed_pair@P8ImGuiLayer@Engine@@EAA_NAEAVKeyTypedEvent@2@@ZV?$tuple@PEAVImGuiLayer@Engine@@U?$_Ph@$00@std@@@std@@$0A@@std@@QEAA@U_One_then_variadic_args_t@1@$$QEAP8ImGuiLayer@Engine@@EAA_NAEAVKeyTypedEvent@4@@Z$$QEAPEAV34@AEBU?$_Ph@$00@1@@Z
	??$?0P8ImGuiLayer@Engine@@EAA_NAEAVMouseButtonPressedEvent@1@@ZPEAV01@AEBU?$_Ph@$00@std@@@?$_Compressed_pair@P8ImGuiLayer@Engine@@EAA_NAEAVMouseButtonPressedEvent@2@@ZV?$tuple@PEAVImGuiLayer@Engine@@U?$_Ph@$00@std@@@std@@$0A@@std@@QEAA@U_One_then_variadic_args_t@1@$$QEAP8ImGuiLayer@Engine@@EAA_NAEAVMouseButtonPressedEvent@4@@Z$$QEAPEAV34@AEBU?$_Ph@$00@1@@Z
	??$?0P8ImGuiLayer@Engine@@EAA_NAEAVMouseButtonReleasedEvent@1@@ZPEAV01@AEBU?$_Ph@$00@std@@@?$_Compressed_pair@P8ImGuiLayer@Engine@@EAA_NAEAVMouseButtonReleasedEvent@2@@ZV?$tuple@PEAVImGuiLayer@Engine@@U?$_Ph@$00@std@@@std@@$0A@@std@@QEAA@U_One_then_variadic_args_t@1@$$QEAP8ImGuiLayer@Engine@@EAA_NAEAVMouseButtonReleasedEvent@4@@Z$$QEAPEAV34@AEBU?$_Ph@$00@1@@Z
	??$?0P8ImGuiLayer@Engine@@EAA_NAEAVMouseMovedEvent@1@@ZPEAV01@AEBU?$_Ph@$00@std@@@?$_Compressed_pair@P8ImGuiLayer@Engine@@EAA_NAEAVMouseMovedEvent@2@@ZV?$tuple@PEAVImGuiLayer@Engine@@U?$_Ph@$00@std@@@std@@$0A@@std@@QEAA@U_One_then_variadic_args_t@1@$$QEAP8ImGuiLayer@Engine@@EAA_NAEAVMouseMovedEvent@4@@Z$$QEAPEAV34@AEBU?$_Ph@$00@1@@Z
	??$?0P8ImGuiLayer@Engine@@EAA_NAEAVMouseScrolledEvent@1@@ZPEAV01@AEBU?$_Ph@$00@std@@@?$_Compressed_pair@P8ImGuiLayer@Engine@@EAA_NAEAVMouseScrolledEvent@2@@ZV?$tuple@PEAVImGuiLayer@Engine@@U?$_Ph@$00@std@@@std@@$0A@@std@@QEAA@U_One_then_variadic_args_t@1@$$QEAP8ImGuiLayer@Engine@@EAA_NAEAVMouseScrolledEvent@4@@Z$$QEAPEAV34@AEBU?$_Ph@$00@1@@Z
	??$?0P8ImGuiLayer@Engine@@EAA_NAEAVWindowResizeEvent@1@@ZPEAV01@AEBU?$_Ph@$00@std@@@?$_Compressed_pair@P8ImGuiLayer@Engine@@EAA_NAEAVWindowResizeEvent@2@@ZV?$tuple@PEAVImGuiLayer@Engine@@U?$_Ph@$00@std@@@std@@$0A@@std@@QEAA@U_One_then_variadic_args_t@1@$$QEAP8ImGuiLayer@Engine@@EAA_NAEAVWindowResizeEvent@4@@Z$$QEAPEAV34@AEBU?$_Ph@$00@1@@Z
	??$?0PEAU?$_List_node@U?$pair@$$CBDV?$unique_ptr@Vcustom_flag_formatter@spdlog@@U?$default_delete@Vcustom_flag_formatter@spdlog@@@std@@@std@@@std@@PEAX@std@@_N$0A@@?$pair@PEAU?$_List_node@U?$pair@$$CBDV?$unique_ptr@Vcustom_flag_formatter@spdlog@@U?$default_delete@Vcustom_flag_formatter@spdlog@@@std@@@std@@@std@@PEAX@std@@_N@std@@QEAA@$$QEAPEAU?$_List_node@U?$pair@$$CBDV?$unique_ptr@Vcustom_flag_formatter@spdlog@@U?$default_delete@Vcustom_flag_formatter@spdlog@@@std@@@std@@@std@@PEAX@1@$$QEA_N@Z
	??$?0PEAU?$_List_node@U?$pair@$$CBV?$basic_string@DU?$char_traits@D@std@@V?$allocator@D@2@@std@@V?$shared_ptr@Vlogger@spdlog@@@2@@std@@PEAX@std@@_N$0A@@?$pair@PEAU?$_List_node@U?$pair@$$CBV?$basic_string@DU?$char_traits@D@std@@V?$allocator@D@2@@std@@V?$shared_ptr@Vlogger@spdlog@@@2@@std@@PEAX@std@@_N@std@@QEAA@$$QEAPEAU?$_List_node@U?$pair@$$CBV?$basic_string@DU?$char_traits@D@std@@V?$allocator@D@2@@std@@V?$shared_ptr@Vlogger@spdlog@@@2@@std@@PEAX@1@$$QEA_N@Z
	??$?0PEAVApplication@Engine@@@?$_Tuple_val@PEAVApplication@Engine@@@std@@QEAA@$$QEAPEAVApplication@Engine@@@Z
	??$?0PEAVApplication@Engine@@AEBU?$_Ph@$00@std@@$0A@@?$tuple@PEAVApplication@Engine@@U?$_Ph@$00@std@@@std@@QEAA@$$QEAPEAVApplication@Engine@@AEBU?$_Ph@$00@1@@Z
	??$?0PEAVImGuiLayer@Engine@@@?$_Tuple_val@PEAVImGuiLayer@Engine@@@std@@QEAA@$$QEAPEAVImGuiLayer@Engine@@@Z
	??$?0PEAVImGuiLayer@Engine@@AEBU?$_Ph@$00@std@@$0A@@?$tuple@PEAVImGuiLayer@Engine@@U?$_Ph@$00@std@@@std@@QEAA@$$QEAPEAVImGuiLayer@Engine@@AEBU?$_Ph@$00@1@@Z
	??$?0PEAVLayer@Engine@@@?$allocator@U_Container_proxy@std@@@std@@QEAA@AEBV?$allocator@PEAVLayer@Engine@@@1@@Z
	??$?0PEBDPEBDH@?$basic_format_args@V?$basic_format_context@Vappender@v9@fmt@@D@v9@fmt@@@v9@fmt@@QEAA@AEBV?$format_arg_store@V?$basic_format_context@Vappender@v9@fmt@@D@v9@fmt@@PEBDPEBDH@12@@Z
	??$?0PEBV?$shared_ptr@Vsink@sinks@spdlog@@@std@@$0A@@?$vector@V?$shared_ptr@Vsink@sinks@spdlog@@@std@@V?$allocator@V?$shared_ptr@Vsink@sinks@spdlog@@@std@@@2@@std@@QEAA@PEBV?$shared_ptr@Vsink@sinks@spdlog@@@1@0AEBV?$allocator@V?$shared_ptr@Vsink@sinks@spdlog@@@std@@@1@@Z
	??$?0PEBV?$shared_ptr@Vsink@sinks@spdlog@@@std@@@logger@spdlog@@QEAA@V?$basic_string@DU?$char_traits@D@std@@V?$allocator@D@2@@std@@PEBV?$shared_ptr@Vsink@sinks@spdlog@@@3@1@Z
	??$?0U?$_List_node@U?$pair@$$CBDV?$unique_ptr@Vcustom_flag_formatter@spdlog@@U?$default_delete@Vcustom_flag_formatter@spdlog@@@std@@@std@@@std@@PEAX@std@@@?$allocator@U_Container_proxy@std@@@std@@QEAA@AEBV?$allocator@U?$_List_node@U?$pair@$$CBDV?$unique_ptr@Vcustom_flag_formatter@spdlog@@U?$default_delete@Vcustom_flag_formatter@spdlog@@@std@@@std@@@std@@PEAX@std@@@1@@Z
	??$?0U?$_List_node@U?$pair@$$CBV?$basic_string@DU?$char_traits@D@std@@V?$allocator@D@2@@std@@V?$shared_ptr@Vlogger@spdlog@@@2@@std@@PEAX@std@@@?$allocator@U_Container_proxy@std@@@std@@QEAA@AEBV?$allocator@U?$_List_node@U?$pair@$$CBV?$basic_string@DU?$char_traits@D@std@@V?$allocator@D@2@@std@@V?$shared_ptr@Vlogger@spdlog@@@2@@std@@PEAX@std@@@1@@Z
	??$?0U?$_List_node@U?$pair@$$CBV?$basic_string@DU?$char_traits@D@std@@V?$allocator@D@2@@std@@W4level_enum@level@spdlog@@@std@@PEAX@std@@@?$allocator@U_Container_proxy@std@@@std@@QEAA@AEBV?$allocator@U?$_List_node@U?$pair@$$CBV?$basic_string@DU?$char_traits@D@std@@V?$allocator@D@2@@std@@W4level_enum@level@spdlog@@@std@@PEAX@std@@@1@@Z
	??$?0U?$_Tree_node@U?$pair@$$CBV?$basic_string@DU?$char_traits@D@std@@V?$allocator@D@2@@std@@V12@@std@@PEAX@std@@@?$allocator@U_Container_proxy@std@@@std@@QEAA@AEBV?$allocator@U?$_Tree_node@U?$pair@$$CBV?$basic_string@DU?$char_traits@D@std@@V?$allocator@D@2@@std@@V12@@std@@PEAX@std@@@1@@Z
	??$?0U?$char_traits@D@std@@V?$allocator@D@1@@?$basic_string_view@D@v9@fmt@@QEAA@AEBV?$basic_string@DU?$char_traits@D@std@@V?$allocator@D@2@@std@@@Z
	??$?0U?$default_delete@V?$A_formatter@Unull_scoped_padder@details@spdlog@@@details@spdlog@@@std@@$0A@@?$unique_ptr@V?$A_formatter@Unull_scoped_padder@details@spdlog@@@details@spdlog@@U?$default_delete@V?$A_formatter@Unull_scoped_padder@details@spdlog@@@details@spdlog@@@std@@@std@@QEAA@PEAV?$A_formatter@Unull_scoped_padder@details@spdlog@@@details@spdlog@@@Z
	??$?0U?$default_delete@V?$A_formatter@Unull_scoped_padder@details@spdlog@@@details@spdlog@@@std@@PEAV?$A_formatter@Unull_scoped_padder@details@spdlog@@@details@spdlog@@@?$_Compressed_pair@U?$default_delete@Vflag_formatter@details@spdlog@@@std@@PEAVflag_formatter@details@spdlog@@$00@std@@QEAA@U_One_then_variadic_args_t@1@$$QEAU?$default_delete@V?$A_formatter@Unull_scoped_padder@details@spdlog@@@details@spdlog@@@1@$$QEAPEAV?$A_formatter@Unull_scoped_padder@details@spdlog@@@details@spdlog@@@Z
	??$?0U?$default_delete@V?$A_formatter@Vscoped_padder@details@spdlog@@@details@spdlog@@@std@@$0A@@?$unique_ptr@V?$A_formatter@Vscoped_padder@details@spdlog@@@details@spdlog@@U?$default_delete@V?$A_formatter@Vscoped_padder@details@spdlog@@@details@spdlog@@@std@@@std@@QEAA@PEAV?$A_formatter@Vscoped_padder@details@spdlog@@@details@spdlog@@@Z
	??$?0U?$default_delete@V?$A_formatter@Vscoped_padder@details@spdlog@@@details@spdlog@@@std@@PEAV?$A_formatter@Vscoped_padder@details@spdlog@@@details@spdlog@@@?$_Compressed_pair@U?$default_delete@Vflag_formatter@details@spdlog@@@std@@PEAVflag_formatter@details@spdlog@@$00@std@@QEAA@U_One_then_variadic_args_t@1@$$QEAU?$default_delete@V?$A_formatter@Vscoped_padder@details@spdlog@@@details@spdlog@@@1@$$QEAPEAV?$A_formatter@Vscoped_padder@details@spdlog@@@details@spdlog@@@Z
	??$?0U?$default_delete@V?$B_formatter@Unull_scoped_padder@details@spdlog@@@details@spdlog@@@std@@$0A@@?$unique_ptr@V?$B_formatter@Unull_scoped_padder@details@spdlog@@@details@spdlog@@U?$default_delete@V?$B_formatter@Unull_scoped_padder@details@spdlog@@@details@spdlog@@@std@@@std@@QEAA@PEAV?$B_formatter@Unull_scoped_padder@details@spdlog@@@details@spdlog@@@Z
	??$?0U?$default_delete@V?$B_formatter@Unull_scoped_padder@details@spdlog@@@details@spdlog@@@std@@PEAV?$B_formatter@Unull_scoped_padder@details@spdlog@@@details@spdlog@@@?$_Compressed_pair@U?$default_delete@Vflag_formatter@details@spdlog@@@std@@PEAVflag_formatter@details@spdlog@@$00@std@@QEAA@U_One_then_variadic_args_t@1@$$QEAU?$default_delete@V?$B_formatter@Unull_scoped_padder@details@spdlog@@@details@spdlog@@@1@$$QEAPEAV?$B_formatter@Unull_scoped_padder@details@spdlog@@@details@spdlog@@@Z
	??$?0U?$default_delete@V?$B_formatter@Vscoped_padder@details@spdlog@@@details@spdlog@@@std@@$0A@@?$unique_ptr@V?$B_formatter@Vscoped_padder@details@spdlog@@@details@spdlog@@U?$default_delete@V?$B_formatter@Vscoped_padder@details@spdlog@@@details@spdlog@@@std@@@std@@QEAA@PEAV?$B_formatter@Vscoped_padder@details@spdlog@@@details@spdlog@@@Z
	??$?0U?$default_delete@V?$B_formatter@Vscoped_padder@details@spdlog@@@details@spdlog@@@std@@PEAV?$B_formatter@Vscoped_padder@details@spdlog@@@details@spdlog@@@?$_Compressed_pair@U?$default_delete@Vflag_formatter@details@spdlog@@@std@@PEAVflag_formatter@details@spdlog@@$00@std@@QEAA@U_One_then_variadic_args_t@1@$$QEAU?$default_delete@V?$B_formatter@Vscoped_padder@details@spdlog@@@details@spdlog@@@1@$$QEAPEAV?$B_formatter@Vscoped_padder@details@spdlog@@@details@spdlog@@@Z
	??$?0U?$default_delete@V?$C_formatter@Unull_scoped_padder@details@spdlog@@@details@spdlog@@@std@@$0A@@?$unique_ptr@V?$C_formatter@Unull_scoped_padder@details@spdlog@@@details@spdlog@@U?$default_delete@V?$C_formatter@Unull_scoped_padder@details@spdlog@@@details@spdlog@@@std@@@std@@QEAA@PEAV?$C_formatter@Unull_scoped_padder@details@spdlog@@@details@spdlog@@@Z
	??$?0U?$default_delete@V?$C_formatter@Unull_scoped_padder@details@spdlog@@@details@spdlog@@@std@@PEAV?$C_formatter@Unull_scoped_padder@details@spdlog@@@details@spdlog@@@?$_Compressed_pair@U?$default_delete@Vflag_formatter@details@spdlog@@@std@@PEAVflag_formatter@details@spdlog@@$00@std@@QEAA@U_One_then_variadic_args_t@1@$$QEAU?$default_delete@V?$C_formatter@Unull_scoped_padder@details@spdlog@@@details@spdlog@@@1@$$QEAPEAV?$C_formatter@Unull_scoped_padder@details@spdlog@@@details@spdlog@@@Z
	??$?0U?$default_delete@V?$C_formatter@Vscoped_padder@details@spdlog@@@details@spdlog@@@std@@$0A@@?$unique_ptr@V?$C_formatter@Vscoped_padder@details@spdlog@@@details@spdlog@@U?$default_delete@V?$C_formatter@Vscoped_padder@details@spdlog@@@details@spdlog@@@std@@@std@@QEAA@PEAV?$C_formatter@Vscoped_padder@details@spdlog@@@details@spdlog@@@Z
	??$?0U?$default_delete@V?$C_formatter@Vscoped_padder@details@spdlog@@@details@spdlog@@@std@@PEAV?$C_formatter@Vscoped_padder@details@spdlog@@@details@spdlog@@@?$_Compressed_pair@U?$default_delete@Vflag_formatter@details@spdlog@@@std@@PEAVflag_formatter@details@spdlog@@$00@std@@QEAA@U_One_then_variadic_args_t@1@$$QEAU?$default_delete@V?$C_formatter@Vscoped_padder@details@spdlog@@@details@spdlog@@@1@$$QEAPEAV?$C_formatter@Vscoped_padder@details@spdlog@@@details@spdlog@@@Z
	??$?0U?$default_delete@V?$D_formatter@Unull_scoped_padder@details@spdlog@@@details@spdlog@@@std@@$0A@@?$unique_ptr@V?$D_formatter@Unull_scoped_padder@details@spdlog@@@details@spdlog@@U?$default_delete@V?$D_formatter@Unull_scoped_padder@details@spdlog@@@details@spdlog@@@std@@@std@@QEAA@PEAV?$D_formatter@Unull_scoped_padder@details@spdlog@@@details@spdlog@@@Z
	??$?0U?$default_delete@V?$D_formatter@Unull_scoped_padder@details@spdlog@@@details@spdlog@@@std@@PEAV?$D_formatter@Unull_scoped_padder@details@spdlog@@@details@spdlog@@@?$_Compressed_pair@U?$default_delete@Vflag_formatter@details@spdlog@@@std@@PEAVflag_formatter@details@spdlog@@$00@std@@QEAA@U_One_then_variadic_args_t@1@$$QEAU?$default_delete@V?$D_formatter@Unull_scoped_padder@details@spdlog@@@details@spdlog@@@1@$$QEAPEAV?$D_formatter@Unull_scoped_padder@details@spdlog@@@details@spdlog@@@Z
	??$?0U?$default_delete@V?$D_formatter@Vscoped_padder@details@spdlog@@@details@spdlog@@@std@@$0A@@?$unique_ptr@V?$D_formatter@Vscoped_padder@details@spdlog@@@details@spdlog@@U?$default_delete@V?$D_formatter@Vscoped_padder@details@spdlog@@@details@spdlog@@@std@@@std@@QEAA@PEAV?$D_formatter@Vscoped_padder@details@spdlog@@@details@spdlog@@@Z
	??$?0U?$default_delete@V?$D_formatter@Vscoped_padder@details@spdlog@@@details@spdlog@@@std@@PEAV?$D_formatter@Vscoped_padder@details@spdlog@@@details@spdlog@@@?$_Compressed_pair@U?$default_delete@Vflag_formatter@details@spdlog@@@std@@PEAVflag_formatter@details@spdlog@@$00@std@@QEAA@U_One_then_variadic_args_t@1@$$QEAU?$default_delete@V?$D_formatter@Vscoped_padder@details@spdlog@@@details@spdlog@@@1@$$QEAPEAV?$D_formatter@Vscoped_padder@details@spdlog@@@details@spdlog@@@Z
	??$?0U?$default_delete@V?$E_formatter@Unull_scoped_padder@details@spdlog@@@details@spdlog@@@std@@$0A@@?$unique_ptr@V?$E_formatter@Unull_scoped_padder@details@spdlog@@@details@spdlog@@U?$default_delete@V?$E_formatter@Unull_scoped_padder@details@spdlog@@@details@spdlog@@@std@@@std@@QEAA@PEAV?$E_formatter@Unull_scoped_padder@details@spdlog@@@details@spdlog@@@Z
	??$?0U?$default_delete@V?$E_formatter@Unull_scoped_padder@details@spdlog@@@details@spdlog@@@std@@PEAV?$E_formatter@Unull_scoped_padder@details@spdlog@@@details@spdlog@@@?$_Compressed_pair@U?$default_delete@Vflag_formatter@details@spdlog@@@std@@PEAVflag_formatter@details@spdlog@@$00@std@@QEAA@U_One_then_variadic_args_t@1@$$QEAU?$default_delete@V?$E_formatter@Unull_scoped_padder@details@spdlog@@@details@spdlog@@@1@$$QEAPEAV?$E_formatter@Unull_scoped_padder@details@spdlog@@@details@spdlog@@@Z
	??$?0U?$default_delete@V?$E_formatter@Vscoped_padder@details@spdlog@@@details@spdlog@@@std@@$0A@@?$unique_ptr@V?$E_formatter@Vscoped_padder@details@spdlog@@@details@spdlog@@U?$default_delete@V?$E_formatter@Vscoped_padder@details@spdlog@@@details@spdlog@@@std@@@std@@QEAA@PEAV?$E_formatter@Vscoped_padder@details@spdlog@@@details@spdlog@@@Z
	??$?0U?$default_delete@V?$E_formatter@Vscoped_padder@details@spdlog@@@details@spdlog@@@std@@PEAV?$E_formatter@Vscoped_padder@details@spdlog@@@details@spdlog@@@?$_Compressed_pair@U?$default_delete@Vflag_formatter@details@spdlog@@@std@@PEAVflag_formatter@details@spdlog@@$00@std@@QEAA@U_One_then_variadic_args_t@1@$$QEAU?$default_delete@V?$E_formatter@Vscoped_padder@details@spdlog@@@details@spdlog@@@1@$$QEAPEAV?$E_formatter@Vscoped_padder@details@spdlog@@@details@spdlog@@@Z
	??$?0U?$default_delete@V?$F_formatter@Unull_scoped_padder@details@spdlog@@@details@spdlog@@@std@@$0A@@?$unique_ptr@V?$F_formatter@Unull_scoped_padder@details@spdlog@@@details@spdlog@@U?$default_delete@V?$F_formatter@Unull_scoped_padder@details@spdlog@@@details@spdlog@@@std@@@std@@QEAA@PEAV?$F_formatter@Unull_scoped_padder@details@spdlog@@@details@spdlog@@@Z
	??$?0U?$default_delete@V?$F_formatter@Unull_scoped_padder@details@spdlog@@@details@spdlog@@@std@@PEAV?$F_formatter@Unull_scoped_padder@details@spdlog@@@details@spdlog@@@?$_Compressed_pair@U?$default_delete@Vflag_formatter@details@spdlog@@@std@@PEAVflag_formatter@details@spdlog@@$00@std@@QEAA@U_One_then_variadic_args_t@1@$$QEAU?$default_delete@V?$F_formatter@Unull_scoped_padder@details@spdlog@@@details@spdlog@@@1@$$QEAPEAV?$F_formatter@Unull_scoped_padder@details@spdlog@@@details@spdlog@@@Z
	??$?0U?$default_delete@V?$F_formatter@Vscoped_padder@details@spdlog@@@details@spdlog@@@std@@$0A@@?$unique_ptr@V?$F_formatter@Vscoped_padder@details@spdlog@@@details@spdlog@@U?$default_delete@V?$F_formatter@Vscoped_padder@details@spdlog@@@details@spdlog@@@std@@@std@@QEAA@PEAV?$F_formatter@Vscoped_padder@details@spdlog@@@details@spdlog@@@Z
	??$?0U?$default_delete@V?$F_formatter@Vscoped_padder@details@spdlog@@@details@spdlog@@@std@@PEAV?$F_formatter@Vscoped_padder@details@spdlog@@@details@spdlog@@@?$_Compressed_pair@U?$default_delete@Vflag_formatter@details@spdlog@@@std@@PEAVflag_formatter@details@spdlog@@$00@std@@QEAA@U_One_then_variadic_args_t@1@$$QEAU?$default_delete@V?$F_formatter@Vscoped_padder@details@spdlog@@@details@spdlog@@@1@$$QEAPEAV?$F_formatter@Vscoped_padder@details@spdlog@@@details@spdlog@@@Z
	??$?0U?$default_delete@V?$H_formatter@Unull_scoped_padder@details@spdlog@@@details@spdlog@@@std@@$0A@@?$unique_ptr@V?$H_formatter@Unull_scoped_padder@details@spdlog@@@details@spdlog@@U?$default_delete@V?$H_formatter@Unull_scoped_padder@details@spdlog@@@details@spdlog@@@std@@@std@@QEAA@PEAV?$H_formatter@Unull_scoped_padder@details@spdlog@@@details@spdlog@@@Z
	??$?0U?$default_delete@V?$H_formatter@Unull_scoped_padder@details@spdlog@@@details@spdlog@@@std@@PEAV?$H_formatter@Unull_scoped_padder@details@spdlog@@@details@spdlog@@@?$_Compressed_pair@U?$default_delete@Vflag_formatter@details@spdlog@@@std@@PEAVflag_formatter@details@spdlog@@$00@std@@QEAA@U_One_then_variadic_args_t@1@$$QEAU?$default_delete@V?$H_formatter@Unull_scoped_padder@details@spdlog@@@details@spdlog@@@1@$$QEAPEAV?$H_formatter@Unull_scoped_padder@details@spdlog@@@details@spdlog@@@Z
	??$?0U?$default_delete@V?$H_formatter@Vscoped_padder@details@spdlog@@@details@spdlog@@@std@@$0A@@?$unique_ptr@V?$H_formatter@Vscoped_padder@details@spdlog@@@details@spdlog@@U?$default_delete@V?$H_formatter@Vscoped_padder@details@spdlog@@@details@spdlog@@@std@@@std@@QEAA@PEAV?$H_formatter@Vscoped_padder@details@spdlog@@@details@spdlog@@@Z
	??$?0U?$default_delete@V?$H_formatter@Vscoped_padder@details@spdlog@@@details@spdlog@@@std@@PEAV?$H_formatter@Vscoped_padder@details@spdlog@@@details@spdlog@@@?$_Compressed_pair@U?$default_delete@Vflag_formatter@details@spdlog@@@std@@PEAVflag_formatter@details@spdlog@@$00@std@@QEAA@U_One_then_variadic_args_t@1@$$QEAU?$default_delete@V?$H_formatter@Vscoped_padder@details@spdlog@@@details@spdlog@@@1@$$QEAPEAV?$H_formatter@Vscoped_padder@details@spdlog@@@details@spdlog@@@Z
	??$?0U?$default_delete@V?$I_formatter@Unull_scoped_padder@details@spdlog@@@details@spdlog@@@std@@$0A@@?$unique_ptr@V?$I_formatter@Unull_scoped_padder@details@spdlog@@@details@spdlog@@U?$default_delete@V?$I_formatter@Unull_scoped_padder@details@spdlog@@@details@spdlog@@@std@@@std@@QEAA@PEAV?$I_formatter@Unull_scoped_padder@details@spdlog@@@details@spdlog@@@Z
	??$?0U?$default_delete@V?$I_formatter@Unull_scoped_padder@details@spdlog@@@details@spdlog@@@std@@PEAV?$I_formatter@Unull_scoped_padder@details@spdlog@@@details@spdlog@@@?$_Compressed_pair@U?$default_delete@Vflag_formatter@details@spdlog@@@std@@PEAVflag_formatter@details@spdlog@@$00@std@@QEAA@U_One_then_variadic_args_t@1@$$QEAU?$default_delete@V?$I_formatter@Unull_scoped_padder@details@spdlog@@@details@spdlog@@@1@$$QEAPEAV?$I_formatter@Unull_scoped_padder@details@spdlog@@@details@spdlog@@@Z
	??$?0U?$default_delete@V?$I_formatter@Vscoped_padder@details@spdlog@@@details@spdlog@@@std@@$0A@@?$unique_ptr@V?$I_formatter@Vscoped_padder@details@spdlog@@@details@spdlog@@U?$default_delete@V?$I_formatter@Vscoped_padder@details@spdlog@@@details@spdlog@@@std@@@std@@QEAA@PEAV?$I_formatter@Vscoped_padder@details@spdlog@@@details@spdlog@@@Z
	??$?0U?$default_delete@V?$I_formatter@Vscoped_padder@details@spdlog@@@details@spdlog@@@std@@PEAV?$I_formatter@Vscoped_padder@details@spdlog@@@details@spdlog@@@?$_Compressed_pair@U?$default_delete@Vflag_formatter@details@spdlog@@@std@@PEAVflag_formatter@details@spdlog@@$00@std@@QEAA@U_One_then_variadic_args_t@1@$$QEAU?$default_delete@V?$I_formatter@Vscoped_padder@details@spdlog@@@details@spdlog@@@1@$$QEAPEAV?$I_formatter@Vscoped_padder@details@spdlog@@@details@spdlog@@@Z
	??$?0U?$default_delete@V?$M_formatter@Unull_scoped_padder@details@spdlog@@@details@spdlog@@@std@@$0A@@?$unique_ptr@V?$M_formatter@Unull_scoped_padder@details@spdlog@@@details@spdlog@@U?$default_delete@V?$M_formatter@Unull_scoped_padder@details@spdlog@@@details@spdlog@@@std@@@std@@QEAA@PEAV?$M_formatter@Unull_scoped_padder@details@spdlog@@@details@spdlog@@@Z
	??$?0U?$default_delete@V?$M_formatter@Unull_scoped_padder@details@spdlog@@@details@spdlog@@@std@@PEAV?$M_formatter@Unull_scoped_padder@details@spdlog@@@details@spdlog@@@?$_Compressed_pair@U?$default_delete@Vflag_formatter@details@spdlog@@@std@@PEAVflag_formatter@details@spdlog@@$00@std@@QEAA@U_One_then_variadic_args_t@1@$$QEAU?$default_delete@V?$M_formatter@Unull_scoped_padder@details@spdlog@@@details@spdlog@@@1@$$QEAPEAV?$M_formatter@Unull_scoped_padder@details@spdlog@@@details@spdlog@@@Z
	??$?0U?$default_delete@V?$M_formatter@Vscoped_padder@details@spdlog@@@details@spdlog@@@std@@$0A@@?$unique_ptr@V?$M_formatter@Vscoped_padder@details@spdlog@@@details@spdlog@@U?$default_delete@V?$M_formatter@Vscoped_padder@details@spdlog@@@details@spdlog@@@std@@@std@@QEAA@PEAV?$M_formatter@Vscoped_padder@details@spdlog@@@details@spdlog@@@Z
	??$?0U?$default_delete@V?$M_formatter@Vscoped_padder@details@spdlog@@@details@spdlog@@@std@@PEAV?$M_formatter@Vscoped_padder@details@spdlog@@@details@spdlog@@@?$_Compressed_pair@U?$default_delete@Vflag_formatter@details@spdlog@@@std@@PEAVflag_formatter@details@spdlog@@$00@std@@QEAA@U_One_then_variadic_args_t@1@$$QEAU?$default_delete@V?$M_formatter@Vscoped_padder@details@spdlog@@@details@spdlog@@@1@$$QEAPEAV?$M_formatter@Vscoped_padder@details@spdlog@@@details@spdlog@@@Z
	??$?0U?$default_delete@V?$R_formatter@Unull_scoped_padder@details@spdlog@@@details@spdlog@@@std@@$0A@@?$unique_ptr@V?$R_formatter@Unull_scoped_padder@details@spdlog@@@details@spdlog@@U?$default_delete@V?$R_formatter@Unull_scoped_padder@details@spdlog@@@details@spdlog@@@std@@@std@@QEAA@PEAV?$R_formatter@Unull_scoped_padder@details@spdlog@@@details@spdlog@@@Z
	??$?0U?$default_delete@V?$R_formatter@Unull_scoped_padder@details@spdlog@@@details@spdlog@@@std@@PEAV?$R_formatter@Unull_scoped_padder@details@spdlog@@@details@spdlog@@@?$_Compressed_pair@U?$default_delete@Vflag_formatter@details@spdlog@@@std@@PEAVflag_formatter@details@spdlog@@$00@std@@QEAA@U_One_then_variadic_args_t@1@$$QEAU?$default_delete@V?$R_formatter@Unull_scoped_padder@details@spdlog@@@details@spdlog@@@1@$$QEAPEAV?$R_formatter@Unull_scoped_padder@details@spdlog@@@details@spdlog@@@Z
	??$?0U?$default_delete@V?$R_formatter@Vscoped_padder@details@spdlog@@@details@spdlog@@@std@@$0A@@?$unique_ptr@V?$R_formatter@Vscoped_padder@details@spdlog@@@details@spdlog@@U?$default_delete@V?$R_formatter@Vscoped_padder@details@spdlog@@@details@spdlog@@@std@@@std@@QEAA@PEAV?$R_formatter@Vscoped_padder@details@spdlog@@@details@spdlog@@@Z
	??$?0U?$default_delete@V?$R_formatter@Vscoped_padder@details@spdlog@@@details@spdlog@@@std@@PEAV?$R_formatter@Vscoped_padder@details@spdlog@@@details@spdlog@@@?$_Compressed_pair@U?$default_delete@Vflag_formatter@details@spdlog@@@std@@PEAVflag_formatter@details@spdlog@@$00@std@@QEAA@U_One_then_variadic_args_t@1@$$QEAU?$default_delete@V?$R_formatter@Vscoped_padder@details@spdlog@@@details@spdlog@@@1@$$QEAPEAV?$R_formatter@Vscoped_padder@details@spdlog@@@details@spdlog@@@Z
	??$?0U?$default_delete@V?$S_formatter@Unull_scoped_padder@details@spdlog@@@details@spdlog@@@std@@$0A@@?$unique_ptr@V?$S_formatter@Unull_scoped_padder@details@spdlog@@@details@spdlog@@U?$default_delete@V?$S_formatter@Unull_scoped_padder@details@spdlog@@@details@spdlog@@@std@@@std@@QEAA@PEAV?$S_formatter@Unull_scoped_padder@details@spdlog@@@details@spdlog@@@Z
	??$?0U?$default_delete@V?$S_formatter@Unull_scoped_padder@details@spdlog@@@details@spdlog@@@std@@PEAV?$S_formatter@Unull_scoped_padder@details@spdlog@@@details@spdlog@@@?$_Compressed_pair@U?$default_delete@Vflag_formatter@details@spdlog@@@std@@PEAVflag_formatter@details@spdlog@@$00@std@@QEAA@U_One_then_variadic_args_t@1@$$QEAU?$default_delete@V?$S_formatter@Unull_scoped_padder@details@spdlog@@@details@spdlog@@@1@$$QEAPEAV?$S_formatter@Unull_scoped_padder@details@spdlog@@@details@spdlog@@@Z
	??$?0U?$default_delete@V?$S_formatter@Vscoped_padder@details@spdlog@@@details@spdlog@@@std@@$0A@@?$unique_ptr@V?$S_formatter@Vscoped_padder@details@spdlog@@@details@spdlog@@U?$default_delete@V?$S_formatter@Vscoped_padder@details@spdlog@@@details@spdlog@@@std@@@std@@QEAA@PEAV?$S_formatter@Vscoped_padder@details@spdlog@@@details@spdlog@@@Z
	??$?0U?$default_delete@V?$S_formatter@Vscoped_padder@details@spdlog@@@details@spdlog@@@std@@PEAV?$S_formatter@Vscoped_padder@details@spdlog@@@details@spdlog@@@?$_Compressed_pair@U?$default_delete@Vflag_formatter@details@spdlog@@@std@@PEAVflag_formatter@details@spdlog@@$00@std@@QEAA@U_One_then_variadic_args_t@1@$$QEAU?$default_delete@V?$S_formatter@Vscoped_padder@details@spdlog@@@details@spdlog@@@1@$$QEAPEAV?$S_formatter@Vscoped_padder@details@spdlog@@@details@spdlog@@@Z
	??$?0U?$default_delete@V?$T_formatter@Unull_scoped_padder@details@spdlog@@@details@spdlog@@@std@@$0A@@?$unique_ptr@V?$T_formatter@Unull_scoped_padder@details@spdlog@@@details@spdlog@@U?$default_delete@V?$T_formatter@Unull_scoped_padder@details@spdlog@@@details@spdlog@@@std@@@std@@QEAA@PEAV?$T_formatter@Unull_scoped_padder@details@spdlog@@@details@spdlog@@@Z
	??$?0U?$default_delete@V?$T_formatter@Unull_scoped_padder@details@spdlog@@@details@spdlog@@@std@@PEAV?$T_formatter@Unull_scoped_padder@details@spdlog@@@details@spdlog@@@?$_Compressed_pair@U?$default_delete@Vflag_formatter@details@spdlog@@@std@@PEAVflag_formatter@details@spdlog@@$00@std@@QEAA@U_One_then_variadic_args_t@1@$$QEAU?$default_delete@V?$T_formatter@Unull_scoped_padder@details@spdlog@@@details@spdlog@@@1@$$QEAPEAV?$T_formatter@Unull_scoped_padder@details@spdlog@@@details@spdlog@@@Z
	??$?0U?$default_delete@V?$T_formatter@Vscoped_padder@details@spdlog@@@details@spdlog@@@std@@$0A@@?$unique_ptr@V?$T_formatter@Vscoped_padder@details@spdlog@@@details@spdlog@@U?$default_delete@V?$T_formatter@Vscoped_padder@details@spdlog@@@details@spdlog@@@std@@@std@@QEAA@PEAV?$T_formatter@Vscoped_padder@details@spdlog@@@details@spdlog@@@Z
	??$?0U?$default_delete@V?$T_formatter@Vscoped_padder@details@spdlog@@@details@spdlog@@@std@@PEAV?$T_formatter@Vscoped_padder@details@spdlog@@@details@spdlog@@@?$_Compressed_pair@U?$default_delete@Vflag_formatter@details@spdlog@@@std@@PEAVflag_formatter@details@spdlog@@$00@std@@QEAA@U_One_then_variadic_args_t@1@$$QEAU?$default_delete@V?$T_formatter@Vscoped_padder@details@spdlog@@@details@spdlog@@@1@$$QEAPEAV?$T_formatter@Vscoped_padder@details@spdlog@@@details@spdlog@@@Z
	??$?0U?$default_delete@V?$Y_formatter@Unull_scoped_padder@details@spdlog@@@details@spdlog@@@std@@$0A@@?$unique_ptr@V?$Y_formatter@Unull_scoped_padder@details@spdlog@@@details@spdlog@@U?$default_delete@V?$Y_formatter@Unull_scoped_padder@details@spdlog@@@details@spdlog@@@std@@@std@@QEAA@PEAV?$Y_formatter@Unull_scoped_padder@details@spdlog@@@details@spdlog@@@Z
	??$?0U?$default_delete@V?$Y_formatter@Unull_scoped_padder@details@spdlog@@@details@spdlog@@@std@@PEAV?$Y_formatter@Unull_scoped_padder@details@spdlog@@@details@spdlog@@@?$_Compressed_pair@U?$default_delete@Vflag_formatter@details@spdlog@@@std@@PEAVflag_formatter@details@spdlog@@$00@std@@QEAA@U_One_then_variadic_args_t@1@$$QEAU?$default_delete@V?$Y_formatter@Unull_scoped_padder@details@spdlog@@@details@spdlog@@@1@$$QEAPEAV?$Y_formatter@Unull_scoped_padder@details@spdlog@@@details@spdlog@@@Z
	??$?0U?$default_delete@V?$Y_formatter@Vscoped_padder@details@spdlog@@@details@spdlog@@@std@@$0A@@?$unique_ptr@V?$Y_formatter@Vscoped_padder@details@spdlog@@@details@spdlog@@U?$default_delete@V?$Y_formatter@Vscoped_padder@details@spdlog@@@details@spdlog@@@std@@@std@@QEAA@PEAV?$Y_formatter@Vscoped_padder@details@spdlog@@@details@spdlog@@@Z
	??$?0U?$default_delete@V?$Y_formatter@Vscoped_padder@details@spdlog@@@details@spdlog@@@std@@PEAV?$Y_formatter@Vscoped_padder@details@spdlog@@@details@spdlog@@@?$_Compressed_pair@U?$default_delete@Vflag_formatter@details@spdlog@@@std@@PEAVflag_formatter@details@spdlog@@$00@std@@QEAA@U_One_then_variadic_args_t@1@$$QEAU?$default_delete@V?$Y_formatter@Vscoped_padder@details@spdlog@@@details@spdlog@@@1@$$QEAPEAV?$Y_formatter@Vscoped_padder@details@spdlog@@@details@spdlog@@@Z
	??$?0U?$default_delete@V?$a_formatter@Unull_scoped_padder@details@spdlog@@@details@spdlog@@@std@@$0A@@?$unique_ptr@V?$a_formatter@Unull_scoped_padder@details@spdlog@@@details@spdlog@@U?$default_delete@V?$a_formatter@Unull_scoped_padder@details@spdlog@@@details@spdlog@@@std@@@std@@QEAA@PEAV?$a_formatter@Unull_scoped_padder@details@spdlog@@@details@spdlog@@@Z
	??$?0U?$default_delete@V?$a_formatter@Unull_scoped_padder@details@spdlog@@@details@spdlog@@@std@@PEAV?$a_formatter@Unull_scoped_padder@details@spdlog@@@details@spdlog@@@?$_Compressed_pair@U?$default_delete@Vflag_formatter@details@spdlog@@@std@@PEAVflag_formatter@details@spdlog@@$00@std@@QEAA@U_One_then_variadic_args_t@1@$$QEAU?$default_delete@V?$a_formatter@Unull_scoped_padder@details@spdlog@@@details@spdlog@@@1@$$QEAPEAV?$a_formatter@Unull_scoped_padder@details@spdlog@@@details@spdlog@@@Z
	??$?0U?$default_delete@V?$a_formatter@Vscoped_padder@details@spdlog@@@details@spdlog@@@std@@$0A@@?$unique_ptr@V?$a_formatter@Vscoped_padder@details@spdlog@@@details@spdlog@@U?$default_delete@V?$a_formatter@Vscoped_padder@details@spdlog@@@details@spdlog@@@std@@@std@@QEAA@PEAV?$a_formatter@Vscoped_padder@details@spdlog@@@details@spdlog@@@Z
	??$?0U?$default_delete@V?$a_formatter@Vscoped_padder@details@spdlog@@@details@spdlog@@@std@@PEAV?$a_formatter@Vscoped_padder@details@spdlog@@@details@spdlog@@@?$_Compressed_pair@U?$default_delete@Vflag_formatter@details@spdlog@@@std@@PEAVflag_formatter@details@spdlog@@$00@std@@QEAA@U_One_then_variadic_args_t@1@$$QEAU?$default_delete@V?$a_formatter@Vscoped_padder@details@spdlog@@@details@spdlog@@@1@$$QEAPEAV?$a_formatter@Vscoped_padder@details@spdlog@@@details@spdlog@@@Z
	??$?0U?$default_delete@V?$b_formatter@Unull_scoped_padder@details@spdlog@@@details@spdlog@@@std@@$0A@@?$unique_ptr@V?$b_formatter@Unull_scoped_padder@details@spdlog@@@details@spdlog@@U?$default_delete@V?$b_formatter@Unull_scoped_padder@details@spdlog@@@details@spdlog@@@std@@@std@@QEAA@PEAV?$b_formatter@Unull_scoped_padder@details@spdlog@@@details@spdlog@@@Z
	??$?0U?$default_delete@V?$b_formatter@Unull_scoped_padder@details@spdlog@@@details@spdlog@@@std@@PEAV?$b_formatter@Unull_scoped_padder@details@spdlog@@@details@spdlog@@@?$_Compressed_pair@U?$default_delete@Vflag_formatter@details@spdlog@@@std@@PEAVflag_formatter@details@spdlog@@$00@std@@QEAA@U_One_then_variadic_args_t@1@$$QEAU?$default_delete@V?$b_formatter@Unull_scoped_padder@details@spdlog@@@details@spdlog@@@1@$$QEAPEAV?$b_formatter@Unull_scoped_padder@details@spdlog@@@details@spdlog@@@Z
	??$?0U?$default_delete@V?$b_formatter@Vscoped_padder@details@spdlog@@@details@spdlog@@@std@@$0A@@?$unique_ptr@V?$b_formatter@Vscoped_padder@details@spdlog@@@details@spdlog@@U?$default_delete@V?$b_formatter@Vscoped_padder@details@spdlog@@@details@spdlog@@@std@@@std@@QEAA@PEAV?$b_formatter@Vscoped_padder@details@spdlog@@@details@spdlog@@@Z
	??$?0U?$default_delete@V?$b_formatter@Vscoped_padder@details@spdlog@@@details@spdlog@@@std@@PEAV?$b_formatter@Vscoped_padder@details@spdlog@@@details@spdlog@@@?$_Compressed_pair@U?$default_delete@Vflag_formatter@details@spdlog@@@std@@PEAVflag_formatter@details@spdlog@@$00@std@@QEAA@U_One_then_variadic_args_t@1@$$QEAU?$default_delete@V?$b_formatter@Vscoped_padder@details@spdlog@@@details@spdlog@@@1@$$QEAPEAV?$b_formatter@Vscoped_padder@details@spdlog@@@details@spdlog@@@Z
	??$?0U?$default_delete@V?$c_formatter@Unull_scoped_padder@details@spdlog@@@details@spdlog@@@std@@$0A@@?$unique_ptr@V?$c_formatter@Unull_scoped_padder@details@spdlog@@@details@spdlog@@U?$default_delete@V?$c_formatter@Unull_scoped_padder@details@spdlog@@@details@spdlog@@@std@@@std@@QEAA@PEAV?$c_formatter@Unull_scoped_padder@details@spdlog@@@details@spdlog@@@Z
	??$?0U?$default_delete@V?$c_formatter@Unull_scoped_padder@details@spdlog@@@details@spdlog@@@std@@PEAV?$c_formatter@Unull_scoped_padder@details@spdlog@@@details@spdlog@@@?$_Compressed_pair@U?$default_delete@Vflag_formatter@details@spdlog@@@std@@PEAVflag_formatter@details@spdlog@@$00@std@@QEAA@U_One_then_variadic_args_t@1@$$QEAU?$default_delete@V?$c_formatter@Unull_scoped_padder@details@spdlog@@@details@spdlog@@@1@$$QEAPEAV?$c_formatter@Unull_scoped_padder@details@spdlog@@@details@spdlog@@@Z
	??$?0U?$default_delete@V?$c_formatter@Vscoped_padder@details@spdlog@@@details@spdlog@@@std@@$0A@@?$unique_ptr@V?$c_formatter@Vscoped_padder@details@spdlog@@@details@spdlog@@U?$default_delete@V?$c_formatter@Vscoped_padder@details@spdlog@@@details@spdlog@@@std@@@std@@QEAA@PEAV?$c_formatter@Vscoped_padder@details@spdlog@@@details@spdlog@@@Z
	??$?0U?$default_delete@V?$c_formatter@Vscoped_padder@details@spdlog@@@details@spdlog@@@std@@PEAV?$c_formatter@Vscoped_padder@details@spdlog@@@details@spdlog@@@?$_Compressed_pair@U?$default_delete@Vflag_formatter@details@spdlog@@@std@@PEAVflag_formatter@details@spdlog@@$00@std@@QEAA@U_One_then_variadic_args_t@1@$$QEAU?$default_delete@V?$c_formatter@Vscoped_padder@details@spdlog@@@details@spdlog@@@1@$$QEAPEAV?$c_formatter@Vscoped_padder@details@spdlog@@@details@spdlog@@@Z
	??$?0U?$default_delete@V?$d_formatter@Unull_scoped_padder@details@spdlog@@@details@spdlog@@@std@@$0A@@?$unique_ptr@V?$d_formatter@Unull_scoped_padder@details@spdlog@@@details@spdlog@@U?$default_delete@V?$d_formatter@Unull_scoped_padder@details@spdlog@@@details@spdlog@@@std@@@std@@QEAA@PEAV?$d_formatter@Unull_scoped_padder@details@spdlog@@@details@spdlog@@@Z
	??$?0U?$default_delete@V?$d_formatter@Unull_scoped_padder@details@spdlog@@@details@spdlog@@@std@@PEAV?$d_formatter@Unull_scoped_padder@details@spdlog@@@details@spdlog@@@?$_Compressed_pair@U?$default_delete@Vflag_formatter@details@spdlog@@@std@@PEAVflag_formatter@details@spdlog@@$00@std@@QEAA@U_One_then_variadic_args_t@1@$$QEAU?$default_delete@V?$d_formatter@Unull_scoped_padder@details@spdlog@@@details@spdlog@@@1@$$QEAPEAV?$d_formatter@Unull_scoped_padder@details@spdlog@@@details@spdlog@@@Z
	??$?0U?$default_delete@V?$d_formatter@Vscoped_padder@details@spdlog@@@details@spdlog@@@std@@$0A@@?$unique_ptr@V?$d_formatter@Vscoped_padder@details@spdlog@@@details@spdlog@@U?$default_delete@V?$d_formatter@Vscoped_padder@details@spdlog@@@details@spdlog@@@std@@@std@@QEAA@PEAV?$d_formatter@Vscoped_padder@details@spdlog@@@details@spdlog@@@Z
	??$?0U?$default_delete@V?$d_formatter@Vscoped_padder@details@spdlog@@@details@spdlog@@@std@@PEAV?$d_formatter@Vscoped_padder@details@spdlog@@@details@spdlog@@@?$_Compressed_pair@U?$default_delete@Vflag_formatter@details@spdlog@@@std@@PEAVflag_formatter@details@spdlog@@$00@std@@QEAA@U_One_then_variadic_args_t@1@$$QEAU?$default_delete@V?$d_formatter@Vscoped_padder@details@spdlog@@@details@spdlog@@@1@$$QEAPEAV?$d_formatter@Vscoped_padder@details@spdlog@@@details@spdlog@@@Z
	??$?0U?$default_delete@V?$e_formatter@Unull_scoped_padder@details@spdlog@@@details@spdlog@@@std@@$0A@@?$unique_ptr@V?$e_formatter@Unull_scoped_padder@details@spdlog@@@details@spdlog@@U?$default_delete@V?$e_formatter@Unull_scoped_padder@details@spdlog@@@details@spdlog@@@std@@@std@@QEAA@PEAV?$e_formatter@Unull_scoped_padder@details@spdlog@@@details@spdlog@@@Z
	??$?0U?$default_delete@V?$e_formatter@Unull_scoped_padder@details@spdlog@@@details@spdlog@@@std@@PEAV?$e_formatter@Unull_scoped_padder@details@spdlog@@@details@spdlog@@@?$_Compressed_pair@U?$default_delete@Vflag_formatter@details@spdlog@@@std@@PEAVflag_formatter@details@spdlog@@$00@std@@QEAA@U_One_then_variadic_args_t@1@$$QEAU?$default_delete@V?$e_formatter@Unull_scoped_padder@details@spdlog@@@details@spdlog@@@1@$$QEAPEAV?$e_formatter@Unull_scoped_padder@details@spdlog@@@details@spdlog@@@Z
	??$?0U?$default_delete@V?$e_formatter@Vscoped_padder@details@spdlog@@@details@spdlog@@@std@@$0A@@?$unique_ptr@V?$e_formatter@Vscoped_padder@details@spdlog@@@details@spdlog@@U?$default_delete@V?$e_formatter@Vscoped_padder@details@spdlog@@@details@spdlog@@@std@@@std@@QEAA@PEAV?$e_formatter@Vscoped_padder@details@spdlog@@@details@spdlog@@@Z
	??$?0U?$default_delete@V?$e_formatter@Vscoped_padder@details@spdlog@@@details@spdlog@@@std@@PEAV?$e_formatter@Vscoped_padder@details@spdlog@@@details@spdlog@@@?$_Compressed_pair@U?$default_delete@Vflag_formatter@details@spdlog@@@std@@PEAVflag_formatter@details@spdlog@@$00@std@@QEAA@U_One_then_variadic_args_t@1@$$QEAU?$default_delete@V?$e_formatter@Vscoped_padder@details@spdlog@@@details@spdlog@@@1@$$QEAPEAV?$e_formatter@Vscoped_padder@details@spdlog@@@details@spdlog@@@Z
	??$?0U?$default_delete@V?$elapsed_formatter@Unull_scoped_padder@details@spdlog@@V?$duration@_JU?$ratio@$00$00@std@@@chrono@std@@@details@spdlog@@@std@@$0A@@?$unique_ptr@V?$elapsed_formatter@Unull_scoped_padder@details@spdlog@@V?$duration@_JU?$ratio@$00$00@std@@@chrono@std@@@details@spdlog@@U?$default_delete@V?$elapsed_formatter@Unull_scoped_padder@details@spdlog@@V?$duration@_JU?$ratio@$00$00@std@@@chrono@std@@@details@spdlog@@@std@@@std@@QEAA@PEAV?$elapsed_formatter@Unull_scoped_padder@details@spdlog@@V?$duration@_JU?$ratio@$00$00@std@@@chrono@std@@@details@spdlog@@@Z
	??$?0U?$default_delete@V?$elapsed_formatter@Unull_scoped_padder@details@spdlog@@V?$duration@_JU?$ratio@$00$00@std@@@chrono@std@@@details@spdlog@@@std@@PEAV?$elapsed_formatter@Unull_scoped_padder@details@spdlog@@V?$duration@_JU?$ratio@$00$00@std@@@chrono@std@@@details@spdlog@@@?$_Compressed_pair@U?$default_delete@Vflag_formatter@details@spdlog@@@std@@PEAVflag_formatter@details@spdlog@@$00@std@@QEAA@U_One_then_variadic_args_t@1@$$QEAU?$default_delete@V?$elapsed_formatter@Unull_scoped_padder@details@spdlog@@V?$duration@_JU?$ratio@$00$00@std@@@chrono@std@@@details@spdlog@@@1@$$QEAPEAV?$elapsed_formatter@Unull_scoped_padder@details@spdlog@@V?$duration@_JU?$ratio@$00$00@std@@@chrono@std@@@details@spdlog@@@Z
	??$?0U?$default_delete@V?$elapsed_formatter@Unull_scoped_padder@details@spdlog@@V?$duration@_JU?$ratio@$00$0DLJKMKAA@@std@@@chrono@std@@@details@spdlog@@@std@@$0A@@?$unique_ptr@V?$elapsed_formatter@Unull_scoped_padder@details@spdlog@@V?$duration@_JU?$ratio@$00$0DLJKMKAA@@std@@@chrono@std@@@details@spdlog@@U?$default_delete@V?$elapsed_formatter@Unull_scoped_padder@details@spdlog@@V?$duration@_JU?$ratio@$00$0DLJKMKAA@@std@@@chrono@std@@@details@spdlog@@@std@@@std@@QEAA@PEAV?$elapsed_formatter@Unull_scoped_padder@details@spdlog@@V?$duration@_JU?$ratio@$00$0DLJKMKAA@@std@@@chrono@std@@@details@spdlog@@@Z
	??$?0U?$default_delete@V?$elapsed_formatter@Unull_scoped_padder@details@spdlog@@V?$duration@_JU?$ratio@$00$0DLJKMKAA@@std@@@chrono@std@@@details@spdlog@@@std@@PEAV?$elapsed_formatter@Unull_scoped_padder@details@spdlog@@V?$duration@_JU?$ratio@$00$0DLJKMKAA@@std@@@chrono@std@@@details@spdlog@@@?$_Compressed_pair@U?$default_delete@Vflag_formatter@details@spdlog@@@std@@PEAVflag_formatter@details@spdlog@@$00@std@@QEAA@U_One_then_variadic_args_t@1@$$QEAU?$default_delete@V?$elapsed_formatter@Unull_scoped_padder@details@spdlog@@V?$duration@_JU?$ratio@$00$0DLJKMKAA@@std@@@chrono@std@@@details@spdlog@@@1@$$QEAPEAV?$elapsed_formatter@Unull_scoped_padder@details@spdlog@@V?$duration@_JU?$ratio@$00$0DLJKMKAA@@std@@@chrono@std@@@details@spdlog@@@Z
	??$?0U?$default_delete@V?$elapsed_formatter@Unull_scoped_padder@details@spdlog@@V?$duration@_JU?$ratio@$00$0DOI@@std@@@chrono@std@@@details@spdlog@@@std@@$0A@@?$unique_ptr@V?$elapsed_formatter@Unull_scoped_padder@details@spdlog@@V?$duration@_JU?$ratio@$00$0DOI@@std@@@chrono@std@@@details@spdlog@@U?$default_delete@V?$elapsed_formatter@Unull_scoped_padder@details@spdlog@@V?$duration@_JU?$ratio@$00$0DOI@@std@@@chrono@std@@@details@spdlog@@@std@@@std@@QEAA@PEAV?$elapsed_formatter@Unull_scoped_padder@details@spdlog@@V?$duration@_JU?$ratio@$00$0DOI@@std@@@chrono@std@@@details@spdlog@@@Z
	??$?0U?$default_delete@V?$elapsed_formatter@Unull_scoped_padder@details@spdlog@@V?$duration@_JU?$ratio@$00$0DOI@@std@@@chrono@std@@@details@spdlog@@@std@@PEAV?$elapsed_formatter@Unull_scoped_padder@details@spdlog@@V?$duration@_JU?$ratio@$00$0DOI@@std@@@chrono@std@@@details@spdlog@@@?$_Compressed_pair@U?$default_delete@Vflag_formatter@details@spdlog@@@std@@PEAVflag_formatter@details@spdlog@@$00@std@@QEAA@U_One_then_variadic_args_t@1@$$QEAU?$default_delete@V?$elapsed_formatter@Unull_scoped_padder@details@spdlog@@V?$duration@_JU?$ratio@$00$0DOI@@std@@@chrono@std@@@details@spdlog@@@1@$$QEAPEAV?$elapsed_formatter@Unull_scoped_padder@details@spdlog@@V?$duration@_JU?$ratio@$00$0DOI@@std@@@chrono@std@@@details@spdlog@@@Z
	??$?0U?$default_delete@V?$elapsed_formatter@Unull_scoped_padder@details@spdlog@@V?$duration@_JU?$ratio@$00$0PECEA@@std@@@chrono@std@@@details@spdlog@@@std@@$0A@@?$unique_ptr@V?$elapsed_formatter@Unull_scoped_padder@details@spdlog@@V?$duration@_JU?$ratio@$00$0PECEA@@std@@@chrono@std@@@details@spdlog@@U?$default_delete@V?$elapsed_formatter@Unull_scoped_padder@details@spdlog@@V?$duration@_JU?$ratio@$00$0PECEA@@std@@@chrono@std@@@details@spdlog@@@std@@@std@@QEAA@PEAV?$elapsed_formatter@Unull_scoped_padder@details@spdlog@@V?$duration@_JU?$ratio@$00$0PECEA@@std@@@chrono@std@@@details@spdlog@@@Z
	??$?0U?$default_delete@V?$elapsed_formatter@Unull_scoped_padder@details@spdlog@@V?$duration@_JU?$ratio@$00$0PECEA@@std@@@chrono@std@@@details@spdlog@@@std@@PEAV?$elapsed_formatter@Unull_scoped_padder@details@spdlog@@V?$duration@_JU?$ratio@$00$0PECEA@@std@@@chrono@std@@@details@spdlog@@@?$_Compressed_pair@U?$default_delete@Vflag_formatter@details@spdlog@@@std@@PEAVflag_formatter@details@spdlog@@$00@std@@QEAA@U_One_then_variadic_args_t@1@$$QEAU?$default_delete@V?$elapsed_formatter@Unull_scoped_padder@details@spdlog@@V?$duration@_JU?$ratio@$00$0PECEA@@std@@@chrono@std@@@details@spdlog@@@1@$$QEAPEAV?$elapsed_formatter@Unull_scoped_padder@details@spdlog@@V?$duration@_JU?$ratio@$00$0PECEA@@std@@@chrono@std@@@details@spdlog@@@Z
	??$?0U?$default_delete@V?$elapsed_formatter@Vscoped_padder@details@spdlog@@V?$duration@_JU?$ratio@$00$00@std@@@chrono@std@@@details@spdlog@@@std@@$0A@@?$unique_ptr@V?$elapsed_formatter@Vscoped_padder@details@spdlog@@V?$duration@_JU?$ratio@$00$00@std@@@chrono@std@@@details@spdlog@@U?$default_delete@V?$elapsed_formatter@Vscoped_padder@details@spdlog@@V?$duration@_JU?$ratio@$00$00@std@@@chrono@std@@@details@spdlog@@@std@@@std@@QEAA@PEAV?$elapsed_formatter@Vscoped_padder@details@spdlog@@V?$duration@_JU?$ratio@$00$00@std@@@chrono@std@@@details@spdlog@@@Z
	??$?0U?$default_delete@V?$elapsed_formatter@Vscoped_padder@details@spdlog@@V?$duration@_JU?$ratio@$00$00@std@@@chrono@std@@@details@spdlog@@@std@@PEAV?$elapsed_formatter@Vscoped_padder@details@spdlog@@V?$duration@_JU?$ratio@$00$00@std@@@chrono@std@@@details@spdlog@@@?$_Compressed_pair@U?$default_delete@Vflag_formatter@details@spdlog@@@std@@PEAVflag_formatter@details@spdlog@@$00@std@@QEAA@U_One_then_variadic_args_t@1@$$QEAU?$default_delete@V?$elapsed_formatter@Vscoped_padder@details@spdlog@@V?$duration@_JU?$ratio@$00$00@std@@@chrono@std@@@details@spdlog@@@1@$$QEAPEAV?$elapsed_formatter@Vscoped_padder@details@spdlog@@V?$duration@_JU?$ratio@$00$00@std@@@chrono@std@@@details@spdlog@@@Z
	??$?0U?$default_delete@V?$elapsed_formatter@Vscoped_padder@details@spdlog@@V?$duration@_JU?$ratio@$00$0DLJKMKAA@@std@@@chrono@std@@@details@spdlog@@@std@@$0A@@?$unique_ptr@V?$elapsed_formatter@Vscoped_padder@details@spdlog@@V?$duration@_JU?$ratio@$00$0DLJKMKAA@@std@@@chrono@std@@@details@spdlog@@U?$default_delete@V?$elapsed_formatter@Vscoped_padder@details@spdlog@@V?$duration@_JU?$ratio@$00$0DLJKMKAA@@std@@@chrono@std@@@details@spdlog@@@std@@@std@@QEAA@PEAV?$elapsed_formatter@Vscoped_padder@details@spdlog@@V?$duration@_JU?$ratio@$00$0DLJKMKAA@@std@@@chrono@std@@@details@spdlog@@@Z
	??$?0U?$default_delete@V?$elapsed_formatter@Vscoped_padder@details@spdlog@@V?$duration@_JU?$ratio@$00$0DLJKMKAA@@std@@@chrono@std@@@details@spdlog@@@std@@PEAV?$elapsed_formatter@Vscoped_padder@details@spdlog@@V?$duration@_JU?$ratio@$00$0DLJKMKAA@@std@@@chrono@std@@@details@spdlog@@@?$_Compressed_pair@U?$default_delete@Vflag_formatter@details@spdlog@@@std@@PEAVflag_formatter@details@spdlog@@$00@std@@QEAA@U_One_then_variadic_args_t@1@$$QEAU?$default_delete@V?$elapsed_formatter@Vscoped_padder@details@spdlog@@V?$duration@_JU?$ratio@$00$0DLJKMKAA@@std@@@chrono@std@@@details@spdlog@@@1@$$QEAPEAV?$elapsed_formatter@Vscoped_padder@details@spdlog@@V?$duration@_JU?$ratio@$00$0DLJKMKAA@@std@@@chrono@std@@@details@spdlog@@@Z
	??$?0U?$default_delete@V?$elapsed_formatter@Vscoped_padder@details@spdlog@@V?$duration@_JU?$ratio@$00$0DOI@@std@@@chrono@std@@@details@spdlog@@@std@@$0A@@?$unique_ptr@V?$elapsed_formatter@Vscoped_padder@details@spdlog@@V?$duration@_JU?$ratio@$00$0DOI@@std@@@chrono@std@@@details@spdlog@@U?$default_delete@V?$elapsed_formatter@Vscoped_padder@details@spdlog@@V?$duration@_JU?$ratio@$00$0DOI@@std@@@chrono@std@@@details@spdlog@@@std@@@std@@QEAA@PEAV?$elapsed_formatter@Vscoped_padder@details@spdlog@@V?$duration@_JU?$ratio@$00$0DOI@@std@@@chrono@std@@@details@spdlog@@@Z
	??$?0U?$default_delete@V?$elapsed_formatter@Vscoped_padder@details@spdlog@@V?$duration@_JU?$ratio@$00$0DOI@@std@@@chrono@std@@@details@spdlog@@@std@@PEAV?$elapsed_formatter@Vscoped_padder@details@spdlog@@V?$duration@_JU?$ratio@$00$0DOI@@std@@@chrono@std@@@details@spdlog@@@?$_Compressed_pair@U?$default_delete@Vflag_formatter@details@spdlog@@@std@@PEAVflag_formatter@details@spdlog@@$00@std@@QEAA@U_One_then_variadic_args_t@1@$$QEAU?$default_delete@V?$elapsed_formatter@Vscoped_padder@details@spdlog@@V?$duration@_JU?$ratio@$00$0DOI@@std@@@chrono@std@@@details@spdlog@@@1@$$QEAPEAV?$elapsed_formatter@Vscoped_padder@details@spdlog@@V?$duration@_JU?$ratio@$00$0DOI@@std@@@chrono@std@@@details@spdlog@@@Z
	??$?0U?$default_delete@V?$elapsed_formatter@Vscoped_padder@details@spdlog@@V?$duration@_JU?$ratio@$00$0PECEA@@std@@@chrono@std@@@details@spdlog@@@std@@$0A@@?$unique_ptr@V?$elapsed_formatter@Vscoped_padder@details@spdlog@@V?$duration@_JU?$ratio@$00$0PECEA@@std@@@chrono@std@@@details@spdlog@@U?$default_delete@V?$elapsed_formatter@Vscoped_padder@details@spdlog@@V?$duration@_JU?$ratio@$00$0PECEA@@std@@@chrono@std@@@details@spdlog@@@std@@@std@@QEAA@PEAV?$elapsed_formatter@Vscoped_padder@details@spdlog@@V?$duration@_JU?$ratio@$00$0PECEA@@std@@@chrono@std@@@details@spdlog@@@Z
	??$?0U?$default_delete@V?$elapsed_formatter@Vscoped_padder@details@spdlog@@V?$duration@_JU?$ratio@$00$0PECEA@@std@@@chrono@std@@@details@spdlog@@@std@@PEAV?$elapsed_formatter@Vscoped_padder@details@spdlog@@V?$duration@_JU?$ratio@$00$0PECEA@@std@@@chrono@std@@@details@spdlog@@@?$_Compressed_pair@U?$default_delete@Vflag_formatter@details@spdlog@@@std@@PEAVflag_formatter@details@spdlog@@$00@std@@QEAA@U_One_then_variadic_args_t@1@$$QEAU?$default_delete@V?$elapsed_formatter@Vscoped_padder@details@spdlog@@V?$duration@_JU?$ratio@$00$0PECEA@@std@@@chrono@std@@@details@spdlog@@@1@$$QEAPEAV?$elapsed_formatter@Vscoped_padder@details@spdlog@@V?$duration@_JU?$ratio@$00$0PECEA@@std@@@chrono@std@@@details@spdlog@@@Z
	??$?0U?$default_delete@V?$f_formatter@Unull_scoped_padder@details@spdlog@@@details@spdlog@@@std@@$0A@@?$unique_ptr@V?$f_formatter@Unull_scoped_padder@details@spdlog@@@details@spdlog@@U?$default_delete@V?$f_formatter@Unull_scoped_padder@details@spdlog@@@details@spdlog@@@std@@@std@@QEAA@PEAV?$f_formatter@Unull_scoped_padder@details@spdlog@@@details@spdlog@@@Z
	??$?0U?$default_delete@V?$f_formatter@Unull_scoped_padder@details@spdlog@@@details@spdlog@@@std@@PEAV?$f_formatter@Unull_scoped_padder@details@spdlog@@@details@spdlog@@@?$_Compressed_pair@U?$default_delete@Vflag_formatter@details@spdlog@@@std@@PEAVflag_formatter@details@spdlog@@$00@std@@QEAA@U_One_then_variadic_args_t@1@$$QEAU?$default_delete@V?$f_formatter@Unull_scoped_padder@details@spdlog@@@details@spdlog@@@1@$$QEAPEAV?$f_formatter@Unull_scoped_padder@details@spdlog@@@details@spdlog@@@Z
	??$?0U?$default_delete@V?$f_formatter@Vscoped_padder@details@spdlog@@@details@spdlog@@@std@@$0A@@?$unique_ptr@V?$f_formatter@Vscoped_padder@details@spdlog@@@details@spdlog@@U?$default_delete@V?$f_formatter@Vscoped_padder@details@spdlog@@@details@spdlog@@@std@@@std@@QEAA@PEAV?$f_formatter@Vscoped_padder@details@spdlog@@@details@spdlog@@@Z
	??$?0U?$default_delete@V?$f_formatter@Vscoped_padder@details@spdlog@@@details@spdlog@@@std@@PEAV?$f_formatter@Vscoped_padder@details@spdlog@@@details@spdlog@@@?$_Compressed_pair@U?$default_delete@Vflag_formatter@details@spdlog@@@std@@PEAVflag_formatter@details@spdlog@@$00@std@@QEAA@U_One_then_variadic_args_t@1@$$QEAU?$default_delete@V?$f_formatter@Vscoped_padder@details@spdlog@@@details@spdlog@@@1@$$QEAPEAV?$f_formatter@Vscoped_padder@details@spdlog@@@details@spdlog@@@Z
	??$?0U?$default_delete@V?$level_formatter@Unull_scoped_padder@details@spdlog@@@details@spdlog@@@std@@$0A@@?$unique_ptr@V?$level_formatter@Unull_scoped_padder@details@spdlog@@@details@spdlog@@U?$default_delete@V?$level_formatter@Unull_scoped_padder@details@spdlog@@@details@spdlog@@@std@@@std@@QEAA@PEAV?$level_formatter@Unull_scoped_padder@details@spdlog@@@details@spdlog@@@Z
	??$?0U?$default_delete@V?$level_formatter@Unull_scoped_padder@details@spdlog@@@details@spdlog@@@std@@PEAV?$level_formatter@Unull_scoped_padder@details@spdlog@@@details@spdlog@@@?$_Compressed_pair@U?$default_delete@Vflag_formatter@details@spdlog@@@std@@PEAVflag_formatter@details@spdlog@@$00@std@@QEAA@U_One_then_variadic_args_t@1@$$QEAU?$default_delete@V?$level_formatter@Unull_scoped_padder@details@spdlog@@@details@spdlog@@@1@$$QEAPEAV?$level_formatter@Unull_scoped_padder@details@spdlog@@@details@spdlog@@@Z
	??$?0U?$default_delete@V?$level_formatter@Vscoped_padder@details@spdlog@@@details@spdlog@@@std@@$0A@@?$unique_ptr@V?$level_formatter@Vscoped_padder@details@spdlog@@@details@spdlog@@U?$default_delete@V?$level_formatter@Vscoped_padder@details@spdlog@@@details@spdlog@@@std@@@std@@QEAA@PEAV?$level_formatter@Vscoped_padder@details@spdlog@@@details@spdlog@@@Z
	??$?0U?$default_delete@V?$level_formatter@Vscoped_padder@details@spdlog@@@details@spdlog@@@std@@PEAV?$level_formatter@Vscoped_padder@details@spdlog@@@details@spdlog@@@?$_Compressed_pair@U?$default_delete@Vflag_formatter@details@spdlog@@@std@@PEAVflag_formatter@details@spdlog@@$00@std@@QEAA@U_One_then_variadic_args_t@1@$$QEAU?$default_delete@V?$level_formatter@Vscoped_padder@details@spdlog@@@details@spdlog@@@1@$$QEAPEAV?$level_formatter@Vscoped_padder@details@spdlog@@@details@spdlog@@@Z
	??$?0U?$default_delete@V?$m_formatter@Unull_scoped_padder@details@spdlog@@@details@spdlog@@@std@@$0A@@?$unique_ptr@V?$m_formatter@Unull_scoped_padder@details@spdlog@@@details@spdlog@@U?$default_delete@V?$m_formatter@Unull_scoped_padder@details@spdlog@@@details@spdlog@@@std@@@std@@QEAA@PEAV?$m_formatter@Unull_scoped_padder@details@spdlog@@@details@spdlog@@@Z
	??$?0U?$default_delete@V?$m_formatter@Unull_scoped_padder@details@spdlog@@@details@spdlog@@@std@@PEAV?$m_formatter@Unull_scoped_padder@details@spdlog@@@details@spdlog@@@?$_Compressed_pair@U?$default_delete@Vflag_formatter@details@spdlog@@@std@@PEAVflag_formatter@details@spdlog@@$00@std@@QEAA@U_One_then_variadic_args_t@1@$$QEAU?$default_delete@V?$m_formatter@Unull_scoped_padder@details@spdlog@@@details@spdlog@@@1@$$QEAPEAV?$m_formatter@Unull_scoped_padder@details@spdlog@@@details@spdlog@@@Z
	??$?0U?$default_delete@V?$m_formatter@Vscoped_padder@details@spdlog@@@details@spdlog@@@std@@$0A@@?$unique_ptr@V?$m_formatter@Vscoped_padder@details@spdlog@@@details@spdlog@@U?$default_delete@V?$m_formatter@Vscoped_padder@details@spdlog@@@details@spdlog@@@std@@@std@@QEAA@PEAV?$m_formatter@Vscoped_padder@details@spdlog@@@details@spdlog@@@Z
	??$?0U?$default_delete@V?$m_formatter@Vscoped_padder@details@spdlog@@@details@spdlog@@@std@@PEAV?$m_formatter@Vscoped_padder@details@spdlog@@@details@spdlog@@@?$_Compressed_pair@U?$default_delete@Vflag_formatter@details@spdlog@@@std@@PEAVflag_formatter@details@spdlog@@$00@std@@QEAA@U_One_then_variadic_args_t@1@$$QEAU?$default_delete@V?$m_formatter@Vscoped_padder@details@spdlog@@@details@spdlog@@@1@$$QEAPEAV?$m_formatter@Vscoped_padder@details@spdlog@@@details@spdlog@@@Z
	??$?0U?$default_delete@V?$mdc_formatter@Unull_scoped_padder@details@spdlog@@@details@spdlog@@@std@@$0A@@?$unique_ptr@V?$mdc_formatter@Unull_scoped_padder@details@spdlog@@@details@spdlog@@U?$default_delete@V?$mdc_formatter@Unull_scoped_padder@details@spdlog@@@details@spdlog@@@std@@@std@@QEAA@PEAV?$mdc_formatter@Unull_scoped_padder@details@spdlog@@@details@spdlog@@@Z
	??$?0U?$default_delete@V?$mdc_formatter@Unull_scoped_padder@details@spdlog@@@details@spdlog@@@std@@PEAV?$mdc_formatter@Unull_scoped_padder@details@spdlog@@@details@spdlog@@@?$_Compressed_pair@U?$default_delete@Vflag_formatter@details@spdlog@@@std@@PEAVflag_formatter@details@spdlog@@$00@std@@QEAA@U_One_then_variadic_args_t@1@$$QEAU?$default_delete@V?$mdc_formatter@Unull_scoped_padder@details@spdlog@@@details@spdlog@@@1@$$QEAPEAV?$mdc_formatter@Unull_scoped_padder@details@spdlog@@@details@spdlog@@@Z
	??$?0U?$default_delete@V?$mdc_formatter@Vscoped_padder@details@spdlog@@@details@spdlog@@@std@@$0A@@?$unique_ptr@V?$mdc_formatter@Vscoped_padder@details@spdlog@@@details@spdlog@@U?$default_delete@V?$mdc_formatter@Vscoped_padder@details@spdlog@@@details@spdlog@@@std@@@std@@QEAA@PEAV?$mdc_formatter@Vscoped_padder@details@spdlog@@@details@spdlog@@@Z
	??$?0U?$default_delete@V?$mdc_formatter@Vscoped_padder@details@spdlog@@@details@spdlog@@@std@@PEAV?$mdc_formatter@Vscoped_padder@details@spdlog@@@details@spdlog@@@?$_Compressed_pair@U?$default_delete@Vflag_formatter@details@spdlog@@@std@@PEAVflag_formatter@details@spdlog@@$00@std@@QEAA@U_One_then_variadic_args_t@1@$$QEAU?$default_delete@V?$mdc_formatter@Vscoped_padder@details@spdlog@@@details@spdlog@@@1@$$QEAPEAV?$mdc_formatter@Vscoped_padder@details@spdlog@@@details@spdlog@@@Z
	??$?0U?$default_delete@V?$name_formatter@Unull_scoped_padder@details@spdlog@@@details@spdlog@@@std@@$0A@@?$unique_ptr@V?$name_formatter@Unull_scoped_padder@details@spdlog@@@details@spdlog@@U?$default_delete@V?$name_formatter@Unull_scoped_padder@details@spdlog@@@details@spdlog@@@std@@@std@@QEAA@PEAV?$name_formatter@Unull_scoped_padder@details@spdlog@@@details@spdlog@@@Z
	??$?0U?$default_delete@V?$name_formatter@Unull_scoped_padder@details@spdlog@@@details@spdlog@@@std@@PEAV?$name_formatter@Unull_scoped_padder@details@spdlog@@@details@spdlog@@@?$_Compressed_pair@U?$default_delete@Vflag_formatter@details@spdlog@@@std@@PEAVflag_formatter@details@spdlog@@$00@std@@QEAA@U_One_then_variadic_args_t@1@$$QEAU?$default_delete@V?$name_formatter@Unull_scoped_padder@details@spdlog@@@details@spdlog@@@1@$$QEAPEAV?$name_formatter@Unull_scoped_padder@details@spdlog@@@details@spdlog@@@Z
	??$?0U?$default_delete@V?$name_formatter@Vscoped_padder@details@spdlog@@@details@spdlog@@@std@@$0A@@?$unique_ptr@V?$name_formatter@Vscoped_padder@details@spdlog@@@details@spdlog@@U?$default_delete@V?$name_formatter@Vscoped_padder@details@spdlog@@@details@spdlog@@@std@@@std@@QEAA@PEAV?$name_formatter@Vscoped_padder@details@spdlog@@@details@spdlog@@@Z
	??$?0U?$default_delete@V?$name_formatter@Vscoped_padder@details@spdlog@@@details@spdlog@@@std@@PEAV?$name_formatter@Vscoped_padder@details@spdlog@@@details@spdlog@@@?$_Compressed_pair@U?$default_delete@Vflag_formatter@details@spdlog@@@std@@PEAVflag_formatter@details@spdlog@@$00@std@@QEAA@U_One_then_variadic_args_t@1@$$QEAU?$default_delete@V?$name_formatter@Vscoped_padder@details@spdlog@@@details@spdlog@@@1@$$QEAPEAV?$name_formatter@Vscoped_padder@details@spdlog@@@details@spdlog@@@Z
	??$?0U?$default_delete@V?$p_formatter@Unull_scoped_padder@details@spdlog@@@details@spdlog@@@std@@$0A@@?$unique_ptr@V?$p_formatter@Unull_scoped_padder@details@spdlog@@@details@spdlog@@U?$default_delete@V?$p_formatter@Unull_scoped_padder@details@spdlog@@@details@spdlog@@@std@@@std@@QEAA@PEAV?$p_formatter@Unull_scoped_padder@details@spdlog@@@details@spdlog@@@Z
	??$?0U?$default_delete@V?$p_formatter@Unull_scoped_padder@details@spdlog@@@details@spdlog@@@std@@PEAV?$p_formatter@Unull_scoped_padder@details@spdlog@@@details@spdlog@@@?$_Compressed_pair@U?$default_delete@Vflag_formatter@details@spdlog@@@std@@PEAVflag_formatter@details@spdlog@@$00@std@@QEAA@U_One_then_variadic_args_t@1@$$QEAU?$default_delete@V?$p_formatter@Unull_scoped_padder@details@spdlog@@@details@spdlog@@@1@$$QEAPEAV?$p_formatter@Unull_scoped_padder@details@spdlog@@@details@spdlog@@@Z
	??$?0U?$default_delete@V?$p_formatter@Vscoped_padder@details@spdlog@@@details@spdlog@@@std@@$0A@@?$unique_ptr@V?$p_formatter@Vscoped_padder@details@spdlog@@@details@spdlog@@U?$default_delete@V?$p_formatter@Vscoped_padder@details@spdlog@@@details@spdlog@@@std@@@std@@QEAA@PEAV?$p_formatter@Vscoped_padder@details@spdlog@@@details@spdlog@@@Z
	??$?0U?$default_delete@V?$p_formatter@Vscoped_padder@details@spdlog@@@details@spdlog@@@std@@PEAV?$p_formatter@Vscoped_padder@details@spdlog@@@details@spdlog@@@?$_Compressed_pair@U?$default_delete@Vflag_formatter@details@spdlog@@@std@@PEAVflag_formatter@details@spdlog@@$00@std@@QEAA@U_One_then_variadic_args_t@1@$$QEAU?$default_delete@V?$p_formatter@Vscoped_padder@details@spdlog@@@details@spdlog@@@1@$$QEAPEAV?$p_formatter@Vscoped_padder@details@spdlog@@@details@spdlog@@@Z
	??$?0U?$default_delete@V?$pid_formatter@Unull_scoped_padder@details@spdlog@@@details@spdlog@@@std@@$0A@@?$unique_ptr@V?$pid_formatter@Unull_scoped_padder@details@spdlog@@@details@spdlog@@U?$default_delete@V?$pid_formatter@Unull_scoped_padder@details@spdlog@@@details@spdlog@@@std@@@std@@QEAA@PEAV?$pid_formatter@Unull_scoped_padder@details@spdlog@@@details@spdlog@@@Z
	??$?0U?$default_delete@V?$pid_formatter@Unull_scoped_padder@details@spdlog@@@details@spdlog@@@std@@PEAV?$pid_formatter@Unull_scoped_padder@details@spdlog@@@details@spdlog@@@?$_Compressed_pair@U?$default_delete@Vflag_formatter@details@spdlog@@@std@@PEAVflag_formatter@details@spdlog@@$00@std@@QEAA@U_One_then_variadic_args_t@1@$$QEAU?$default_delete@V?$pid_formatter@Unull_scoped_padder@details@spdlog@@@details@spdlog@@@1@$$QEAPEAV?$pid_formatter@Unull_scoped_padder@details@spdlog@@@details@spdlog@@@Z
	??$?0U?$default_delete@V?$pid_formatter@Vscoped_padder@details@spdlog@@@details@spdlog@@@std@@$0A@@?$unique_ptr@V?$pid_formatter@Vscoped_padder@details@spdlog@@@details@spdlog@@U?$default_delete@V?$pid_formatter@Vscoped_padder@details@spdlog@@@details@spdlog@@@std@@@std@@QEAA@PEAV?$pid_formatter@Vscoped_padder@details@spdlog@@@details@spdlog@@@Z
	??$?0U?$default_delete@V?$pid_formatter@Vscoped_padder@details@spdlog@@@details@spdlog@@@std@@PEAV?$pid_formatter@Vscoped_padder@details@spdlog@@@details@spdlog@@@?$_Compressed_pair@U?$default_delete@Vflag_formatter@details@spdlog@@@std@@PEAVflag_formatter@details@spdlog@@$00@std@@QEAA@U_One_then_variadic_args_t@1@$$QEAU?$default_delete@V?$pid_formatter@Vscoped_padder@details@spdlog@@@details@spdlog@@@1@$$QEAPEAV?$pid_formatter@Vscoped_padder@details@spdlog@@@details@spdlog@@@Z
	??$?0U?$default_delete@V?$r_formatter@Unull_scoped_padder@details@spdlog@@@details@spdlog@@@std@@$0A@@?$unique_ptr@V?$r_formatter@Unull_scoped_padder@details@spdlog@@@details@spdlog@@U?$default_delete@V?$r_formatter@Unull_scoped_padder@details@spdlog@@@details@spdlog@@@std@@@std@@QEAA@PEAV?$r_formatter@Unull_scoped_padder@details@spdlog@@@details@spdlog@@@Z
	??$?0U?$default_delete@V?$r_formatter@Unull_scoped_padder@details@spdlog@@@details@spdlog@@@std@@PEAV?$r_formatter@Unull_scoped_padder@details@spdlog@@@details@spdlog@@@?$_Compressed_pair@U?$default_delete@Vflag_formatter@details@spdlog@@@std@@PEAVflag_formatter@details@spdlog@@$00@std@@QEAA@U_One_then_variadic_args_t@1@$$QEAU?$default_delete@V?$r_formatter@Unull_scoped_padder@details@spdlog@@@details@spdlog@@@1@$$QEAPEAV?$r_formatter@Unull_scoped_padder@details@spdlog@@@details@spdlog@@@Z
	??$?0U?$default_delete@V?$r_formatter@Vscoped_padder@details@spdlog@@@details@spdlog@@@std@@$0A@@?$unique_ptr@V?$r_formatter@Vscoped_padder@details@spdlog@@@details@spdlog@@U?$default_delete@V?$r_formatter@Vscoped_padder@details@spdlog@@@details@spdlog@@@std@@@std@@QEAA@PEAV?$r_formatter@Vscoped_padder@details@spdlog@@@details@spdlog@@@Z
	??$?0U?$default_delete@V?$r_formatter@Vscoped_padder@details@spdlog@@@details@spdlog@@@std@@PEAV?$r_formatter@Vscoped_padder@details@spdlog@@@details@spdlog@@@?$_Compressed_pair@U?$default_delete@Vflag_formatter@details@spdlog@@@std@@PEAVflag_formatter@details@spdlog@@$00@std@@QEAA@U_One_then_variadic_args_t@1@$$QEAU?$default_delete@V?$r_formatter@Vscoped_padder@details@spdlog@@@details@spdlog@@@1@$$QEAPEAV?$r_formatter@Vscoped_padder@details@spdlog@@@details@spdlog@@@Z
	??$?0U?$default_delete@V?$short_filename_formatter@Unull_scoped_padder@details@spdlog@@@details@spdlog@@@std@@$0A@@?$unique_ptr@V?$short_filename_formatter@Unull_scoped_padder@details@spdlog@@@details@spdlog@@U?$default_delete@V?$short_filename_formatter@Unull_scoped_padder@details@spdlog@@@details@spdlog@@@std@@@std@@QEAA@PEAV?$short_filename_formatter@Unull_scoped_padder@details@spdlog@@@details@spdlog@@@Z
	??$?0U?$default_delete@V?$short_filename_formatter@Unull_scoped_padder@details@spdlog@@@details@spdlog@@@std@@PEAV?$short_filename_formatter@Unull_scoped_padder@details@spdlog@@@details@spdlog@@@?$_Compressed_pair@U?$default_delete@Vflag_formatter@details@spdlog@@@std@@PEAVflag_formatter@details@spdlog@@$00@std@@QEAA@U_One_then_variadic_args_t@1@$$QEAU?$default_delete@V?$short_filename_formatter@Unull_scoped_padder@details@spdlog@@@details@spdlog@@@1@$$QEAPEAV?$short_filename_formatter@Unull_scoped_padder@details@spdlog@@@details@spdlog@@@Z
	??$?0U?$default_delete@V?$short_filename_formatter@Vscoped_padder@details@spdlog@@@details@spdlog@@@std@@$0A@@?$unique_ptr@V?$short_filename_formatter@Vscoped_padder@details@spdlog@@@details@spdlog@@U?$default_delete@V?$short_filename_formatter@Vscoped_padder@details@spdlog@@@details@spdlog@@@std@@@std@@QEAA@PEAV?$short_filename_formatter@Vscoped_padder@details@spdlog@@@details@spdlog@@@Z
	??$?0U?$default_delete@V?$short_filename_formatter@Vscoped_padder@details@spdlog@@@details@spdlog@@@std@@PEAV?$short_filename_formatter@Vscoped_padder@details@spdlog@@@details@spdlog@@@?$_Compressed_pair@U?$default_delete@Vflag_formatter@details@spdlog@@@std@@PEAVflag_formatter@details@spdlog@@$00@std@@QEAA@U_One_then_variadic_args_t@1@$$QEAU?$default_delete@V?$short_filename_formatter@Vscoped_padder@details@spdlog@@@details@spdlog@@@1@$$QEAPEAV?$short_filename_formatter@Vscoped_padder@details@spdlog@@@details@spdlog@@@Z
	??$?0U?$default_delete@V?$short_level_formatter@Unull_scoped_padder@details@spdlog@@@details@spdlog@@@std@@$0A@@?$unique_ptr@V?$short_level_formatter@Unull_scoped_padder@details@spdlog@@@details@spdlog@@U?$default_delete@V?$short_level_formatter@Unull_scoped_padder@details@spdlog@@@details@spdlog@@@std@@@std@@QEAA@PEAV?$short_level_formatter@Unull_scoped_padder@details@spdlog@@@details@spdlog@@@Z
	??$?0U?$default_delete@V?$short_level_formatter@Unull_scoped_padder@details@spdlog@@@details@spdlog@@@std@@PEAV?$short_level_formatter@Unull_scoped_padder@details@spdlog@@@details@spdlog@@@?$_Compressed_pair@U?$default_delete@Vflag_formatter@details@spdlog@@@std@@PEAVflag_formatter@details@spdlog@@$00@std@@QEAA@U_One_then_variadic_args_t@1@$$QEAU?$default_delete@V?$short_level_formatter@Unull_scoped_padder@details@spdlog@@@details@spdlog@@@1@$$QEAPEAV?$short_level_formatter@Unull_scoped_padder@details@spdlog@@@details@spdlog@@@Z
	??$?0U?$default_delete@V?$short_level_formatter@Vscoped_padder@details@spdlog@@@details@spdlog@@@std@@$0A@@?$unique_ptr@V?$short_level_formatter@Vscoped_padder@details@spdlog@@@details@spdlog@@U?$default_delete@V?$short_level_formatter@Vscoped_padder@details@spdlog@@@details@spdlog@@@std@@@std@@QEAA@PEAV?$short_level_formatter@Vscoped_padder@details@spdlog@@@details@spdlog@@@Z
	??$?0U?$default_delete@V?$short_level_formatter@Vscoped_padder@details@spdlog@@@details@spdlog@@@std@@PEAV?$short_level_formatter@Vscoped_padder@details@spdlog@@@details@spdlog@@@?$_Compressed_pair@U?$default_delete@Vflag_formatter@details@spdlog@@@std@@PEAVflag_formatter@details@spdlog@@$00@std@@QEAA@U_One_then_variadic_args_t@1@$$QEAU?$default_delete@V?$short_level_formatter@Vscoped_padder@details@spdlog@@@details@spdlog@@@1@$$QEAPEAV?$short_level_formatter@Vscoped_padder@details@spdlog@@@details@spdlog@@@Z
	??$?0U?$default_delete@V?$source_filename_formatter@Unull_scoped_padder@details@spdlog@@@details@spdlog@@@std@@$0A@@?$unique_ptr@V?$source_filename_formatter@Unull_scoped_padder@details@spdlog@@@details@spdlog@@U?$default_delete@V?$source_filename_formatter@Unull_scoped_padder@details@spdlog@@@details@spdlog@@@std@@@std@@QEAA@PEAV?$source_filename_formatter@Unull_scoped_padder@details@spdlog@@@details@spdlog@@@Z
	??$?0U?$default_delete@V?$source_filename_formatter@Unull_scoped_padder@details@spdlog@@@details@spdlog@@@std@@PEAV?$source_filename_formatter@Unull_scoped_padder@details@spdlog@@@details@spdlog@@@?$_Compressed_pair@U?$default_delete@Vflag_formatter@details@spdlog@@@std@@PEAVflag_formatter@details@spdlog@@$00@std@@QEAA@U_One_then_variadic_args_t@1@$$QEAU?$default_delete@V?$source_filename_formatter@Unull_scoped_padder@details@spdlog@@@details@spdlog@@@1@$$QEAPEAV?$source_filename_formatter@Unull_scoped_padder@details@spdlog@@@details@spdlog@@@Z
	??$?0U?$default_delete@V?$source_filename_formatter@Vscoped_padder@details@spdlog@@@details@spdlog@@@std@@$0A@@?$unique_ptr@V?$source_filename_formatter@Vscoped_padder@details@spdlog@@@details@spdlog@@U?$default_delete@V?$source_filename_formatter@Vscoped_padder@details@spdlog@@@details@spdlog@@@std@@@std@@QEAA@PEAV?$source_filename_formatter@Vscoped_padder@details@spdlog@@@details@spdlog@@@Z
	??$?0U?$default_delete@V?$source_filename_formatter@Vscoped_padder@details@spdlog@@@details@spdlog@@@std@@PEAV?$source_filename_formatter@Vscoped_padder@details@spdlog@@@details@spdlog@@@?$_Compressed_pair@U?$default_delete@Vflag_formatter@details@spdlog@@@std@@PEAVflag_formatter@details@spdlog@@$00@std@@QEAA@U_One_then_variadic_args_t@1@$$QEAU?$default_delete@V?$source_filename_formatter@Vscoped_padder@details@spdlog@@@details@spdlog@@@1@$$QEAPEAV?$source_filename_formatter@Vscoped_padder@details@spdlog@@@details@spdlog@@@Z
	??$?0U?$default_delete@V?$source_funcname_formatter@Unull_scoped_padder@details@spdlog@@@details@spdlog@@@std@@$0A@@?$unique_ptr@V?$source_funcname_formatter@Unull_scoped_padder@details@spdlog@@@details@spdlog@@U?$default_delete@V?$source_funcname_formatter@Unull_scoped_padder@details@spdlog@@@details@spdlog@@@std@@@std@@QEAA@PEAV?$source_funcname_formatter@Unull_scoped_padder@details@spdlog@@@details@spdlog@@@Z
	??$?0U?$default_delete@V?$source_funcname_formatter@Unull_scoped_padder@details@spdlog@@@details@spdlog@@@std@@PEAV?$source_funcname_formatter@Unull_scoped_padder@details@spdlog@@@details@spdlog@@@?$_Compressed_pair@U?$default_delete@Vflag_formatter@details@spdlog@@@std@@PEAVflag_formatter@details@spdlog@@$00@std@@QEAA@U_One_then_variadic_args_t@1@$$QEAU?$default_delete@V?$source_funcname_formatter@Unull_scoped_padder@details@spdlog@@@details@spdlog@@@1@$$QEAPEAV?$source_funcname_formatter@Unull_scoped_padder@details@spdlog@@@details@spdlog@@@Z
	??$?0U?$default_delete@V?$source_funcname_formatter@Vscoped_padder@details@spdlog@@@details@spdlog@@@std@@$0A@@?$unique_ptr@V?$source_funcname_formatter@Vscoped_padder@details@spdlog@@@details@spdlog@@U?$default_delete@V?$source_funcname_formatter@Vscoped_padder@details@spdlog@@@details@spdlog@@@std@@@std@@QEAA@PEAV?$source_funcname_formatter@Vscoped_padder@details@spdlog@@@details@spdlog@@@Z
	??$?0U?$default_delete@V?$source_funcname_formatter@Vscoped_padder@details@spdlog@@@details@spdlog@@@std@@PEAV?$source_funcname_formatter@Vscoped_padder@details@spdlog@@@details@spdlog@@@?$_Compressed_pair@U?$default_delete@Vflag_formatter@details@spdlog@@@std@@PEAVflag_formatter@details@spdlog@@$00@std@@QEAA@U_One_then_variadic_args_t@1@$$QEAU?$default_delete@V?$source_funcname_formatter@Vscoped_padder@details@spdlog@@@details@spdlog@@@1@$$QEAPEAV?$source_funcname_formatter@Vscoped_padder@details@spdlog@@@details@spdlog@@@Z
	??$?0U?$default_delete@V?$source_linenum_formatter@Unull_scoped_padder@details@spdlog@@@details@spdlog@@@std@@$0A@@?$unique_ptr@V?$source_linenum_formatter@Unull_scoped_padder@details@spdlog@@@details@spdlog@@U?$default_delete@V?$source_linenum_formatter@Unull_scoped_padder@details@spdlog@@@details@spdlog@@@std@@@std@@QEAA@PEAV?$source_linenum_formatter@Unull_scoped_padder@details@spdlog@@@details@spdlog@@@Z
	??$?0U?$default_delete@V?$source_linenum_formatter@Unull_scoped_padder@details@spdlog@@@details@spdlog@@@std@@PEAV?$source_linenum_formatter@Unull_scoped_padder@details@spdlog@@@details@spdlog@@@?$_Compressed_pair@U?$default_delete@Vflag_formatter@details@spdlog@@@std@@PEAVflag_formatter@details@spdlog@@$00@std@@QEAA@U_One_then_variadic_args_t@1@$$QEAU?$default_delete@V?$source_linenum_formatter@Unull_scoped_padder@details@spdlog@@@details@spdlog@@@1@$$QEAPEAV?$source_linenum_formatter@Unull_scoped_padder@details@spdlog@@@details@spdlog@@@Z
	??$?0U?$default_delete@V?$source_linenum_formatter@Vscoped_padder@details@spdlog@@@details@spdlog@@@std@@$0A@@?$unique_ptr@V?$source_linenum_formatter@Vscoped_padder@details@spdlog@@@details@spdlog@@U?$default_delete@V?$source_linenum_formatter@Vscoped_padder@details@spdlog@@@details@spdlog@@@std@@@std@@QEAA@PEAV?$source_linenum_formatter@Vscoped_padder@details@spdlog@@@details@spdlog@@@Z
	??$?0U?$default_delete@V?$source_linenum_formatter@Vscoped_padder@details@spdlog@@@details@spdlog@@@std@@PEAV?$source_linenum_formatter@Vscoped_padder@details@spdlog@@@details@spdlog@@@?$_Compressed_pair@U?$default_delete@Vflag_formatter@details@spdlog@@@std@@PEAVflag_formatter@details@spdlog@@$00@std@@QEAA@U_One_then_variadic_args_t@1@$$QEAU?$default_delete@V?$source_linenum_formatter@Vscoped_padder@details@spdlog@@@details@spdlog@@@1@$$QEAPEAV?$source_linenum_formatter@Vscoped_padder@details@spdlog@@@details@spdlog@@@Z
	??$?0U?$default_delete@V?$source_location_formatter@Unull_scoped_padder@details@spdlog@@@details@spdlog@@@std@@$0A@@?$unique_ptr@V?$source_location_formatter@Unull_scoped_padder@details@spdlog@@@details@spdlog@@U?$default_delete@V?$source_location_formatter@Unull_scoped_padder@details@spdlog@@@details@spdlog@@@std@@@std@@QEAA@PEAV?$source_location_formatter@Unull_scoped_padder@details@spdlog@@@details@spdlog@@@Z
	??$?0U?$default_delete@V?$source_location_formatter@Unull_scoped_padder@details@spdlog@@@details@spdlog@@@std@@PEAV?$source_location_formatter@Unull_scoped_padder@details@spdlog@@@details@spdlog@@@?$_Compressed_pair@U?$default_delete@Vflag_formatter@details@spdlog@@@std@@PEAVflag_formatter@details@spdlog@@$00@std@@QEAA@U_One_then_variadic_args_t@1@$$QEAU?$default_delete@V?$source_location_formatter@Unull_scoped_padder@details@spdlog@@@details@spdlog@@@1@$$QEAPEAV?$source_location_formatter@Unull_scoped_padder@details@spdlog@@@details@spdlog@@@Z
	??$?0U?$default_delete@V?$source_location_formatter@Vscoped_padder@details@spdlog@@@details@spdlog@@@std@@$0A@@?$unique_ptr@V?$source_location_formatter@Vscoped_padder@details@spdlog@@@details@spdlog@@U?$default_delete@V?$source_location_formatter@Vscoped_padder@details@spdlog@@@details@spdlog@@@std@@@std@@QEAA@PEAV?$source_location_formatter@Vscoped_padder@details@spdlog@@@details@spdlog@@@Z
	??$?0U?$default_delete@V?$source_location_formatter@Vscoped_padder@details@spdlog@@@details@spdlog@@@std@@PEAV?$source_location_formatter@Vscoped_padder@details@spdlog@@@details@spdlog@@@?$_Compressed_pair@U?$default_delete@Vflag_formatter@details@spdlog@@@std@@PEAVflag_formatter@details@spdlog@@$00@std@@QEAA@U_One_then_variadic_args_t@1@$$QEAU?$default_delete@V?$source_location_formatter@Vscoped_padder@details@spdlog@@@details@spdlog@@@1@$$QEAPEAV?$source_location_formatter@Vscoped_padder@details@spdlog@@@details@spdlog@@@Z
	??$?0U?$default_delete@V?$t_formatter@Unull_scoped_padder@details@spdlog@@@details@spdlog@@@std@@$0A@@?$unique_ptr@V?$t_formatter@Unull_scoped_padder@details@spdlog@@@details@spdlog@@U?$default_delete@V?$t_formatter@Unull_scoped_padder@details@spdlog@@@details@spdlog@@@std@@@std@@QEAA@PEAV?$t_formatter@Unull_scoped_padder@details@spdlog@@@details@spdlog@@@Z
	??$?0U?$default_delete@V?$t_formatter@Unull_scoped_padder@details@spdlog@@@details@spdlog@@@std@@PEAV?$t_formatter@Unull_scoped_padder@details@spdlog@@@details@spdlog@@@?$_Compressed_pair@U?$default_delete@Vflag_formatter@details@spdlog@@@std@@PEAVflag_formatter@details@spdlog@@$00@std@@QEAA@U_One_then_variadic_args_t@1@$$QEAU?$default_delete@V?$t_formatter@Unull_scoped_padder@details@spdlog@@@details@spdlog@@@1@$$QEAPEAV?$t_formatter@Unull_scoped_padder@details@spdlog@@@details@spdlog@@@Z
	??$?0U?$default_delete@V?$t_formatter@Vscoped_padder@details@spdlog@@@details@spdlog@@@std@@$0A@@?$unique_ptr@V?$t_formatter@Vscoped_padder@details@spdlog@@@details@spdlog@@U?$default_delete@V?$t_formatter@Vscoped_padder@details@spdlog@@@details@spdlog@@@std@@@std@@QEAA@PEAV?$t_formatter@Vscoped_padder@details@spdlog@@@details@spdlog@@@Z
	??$?0U?$default_delete@V?$t_formatter@Vscoped_padder@details@spdlog@@@details@spdlog@@@std@@PEAV?$t_formatter@Vscoped_padder@details@spdlog@@@details@spdlog@@@?$_Compressed_pair@U?$default_delete@Vflag_formatter@details@spdlog@@@std@@PEAVflag_formatter@details@spdlog@@$00@std@@QEAA@U_One_then_variadic_args_t@1@$$QEAU?$default_delete@V?$t_formatter@Vscoped_padder@details@spdlog@@@details@spdlog@@@1@$$QEAPEAV?$t_formatter@Vscoped_padder@details@spdlog@@@details@spdlog@@@Z
	??$?0U?$default_delete@V?$v_formatter@Unull_scoped_padder@details@spdlog@@@details@spdlog@@@std@@$0A@@?$unique_ptr@V?$v_formatter@Unull_scoped_padder@details@spdlog@@@details@spdlog@@U?$default_delete@V?$v_formatter@Unull_scoped_padder@details@spdlog@@@details@spdlog@@@std@@@std@@QEAA@PEAV?$v_formatter@Unull_scoped_padder@details@spdlog@@@details@spdlog@@@Z
	??$?0U?$default_delete@V?$v_formatter@Unull_scoped_padder@details@spdlog@@@details@spdlog@@@std@@PEAV?$v_formatter@Unull_scoped_padder@details@spdlog@@@details@spdlog@@@?$_Compressed_pair@U?$default_delete@Vflag_formatter@details@spdlog@@@std@@PEAVflag_formatter@details@spdlog@@$00@std@@QEAA@U_One_then_variadic_args_t@1@$$QEAU?$default_delete@V?$v_formatter@Unull_scoped_padder@details@spdlog@@@details@spdlog@@@1@$$QEAPEAV?$v_formatter@Unull_scoped_padder@details@spdlog@@@details@spdlog@@@Z
	??$?0U?$default_delete@V?$v_formatter@Vscoped_padder@details@spdlog@@@details@spdlog@@@std@@$0A@@?$unique_ptr@V?$v_formatter@Vscoped_padder@details@spdlog@@@details@spdlog@@U?$default_delete@V?$v_formatter@Vscoped_padder@details@spdlog@@@details@spdlog@@@std@@@std@@QEAA@PEAV?$v_formatter@Vscoped_padder@details@spdlog@@@details@spdlog@@@Z
	??$?0U?$default_delete@V?$v_formatter@Vscoped_padder@details@spdlog@@@details@spdlog@@@std@@PEAV?$v_formatter@Vscoped_padder@details@spdlog@@@details@spdlog@@@?$_Compressed_pair@U?$default_delete@Vflag_formatter@details@spdlog@@@std@@PEAVflag_formatter@details@spdlog@@$00@std@@QEAA@U_One_then_variadic_args_t@1@$$QEAU?$default_delete@V?$v_formatter@Vscoped_padder@details@spdlog@@@details@spdlog@@@1@$$QEAPEAV?$v_formatter@Vscoped_padder@details@spdlog@@@details@spdlog@@@Z
	??$?0U?$default_delete@V?$z_formatter@Unull_scoped_padder@details@spdlog@@@details@spdlog@@@std@@$0A@@?$unique_ptr@V?$z_formatter@Unull_scoped_padder@details@spdlog@@@details@spdlog@@U?$default_delete@V?$z_formatter@Unull_scoped_padder@details@spdlog@@@details@spdlog@@@std@@@std@@QEAA@PEAV?$z_formatter@Unull_scoped_padder@details@spdlog@@@details@spdlog@@@Z
	??$?0U?$default_delete@V?$z_formatter@Unull_scoped_padder@details@spdlog@@@details@spdlog@@@std@@PEAV?$z_formatter@Unull_scoped_padder@details@spdlog@@@details@spdlog@@@?$_Compressed_pair@U?$default_delete@Vflag_formatter@details@spdlog@@@std@@PEAVflag_formatter@details@spdlog@@$00@std@@QEAA@U_One_then_variadic_args_t@1@$$QEAU?$default_delete@V?$z_formatter@Unull_scoped_padder@details@spdlog@@@details@spdlog@@@1@$$QEAPEAV?$z_formatter@Unull_scoped_padder@details@spdlog@@@details@spdlog@@@Z
	??$?0U?$default_delete@V?$z_formatter@Vscoped_padder@details@spdlog@@@details@spdlog@@@std@@$0A@@?$unique_ptr@V?$z_formatter@Vscoped_padder@details@spdlog@@@details@spdlog@@U?$default_delete@V?$z_formatter@Vscoped_padder@details@spdlog@@@details@spdlog@@@std@@@std@@QEAA@PEAV?$z_formatter@Vscoped_padder@details@spdlog@@@details@spdlog@@@Z
	??$?0U?$default_delete@V?$z_formatter@Vscoped_padder@details@spdlog@@@details@spdlog@@@std@@PEAV?$z_formatter@Vscoped_padder@details@spdlog@@@details@spdlog@@@?$_Compressed_pair@U?$default_delete@Vflag_formatter@details@spdlog@@@std@@PEAVflag_formatter@details@spdlog@@$00@std@@QEAA@U_One_then_variadic_args_t@1@$$QEAU?$default_delete@V?$z_formatter@Vscoped_padder@details@spdlog@@@details@spdlog@@@1@$$QEAPEAV?$z_formatter@Vscoped_padder@details@spdlog@@@details@spdlog@@@Z
	??$?0U?$default_delete@VWindow@Engine@@@std@@$0A@@?$unique_ptr@VWindow@Engine@@U?$default_delete@VWindow@Engine@@@std@@@std@@QEAA@PEAVWindow@Engine@@@Z
	??$?0U?$default_delete@VWindow@Engine@@@std@@$0A@@?$unique_ptr@VWindow@Engine@@U?$default_delete@VWindow@Engine@@@std@@@std@@QEAA@XZ
	??$?0U?$default_delete@V_Facet_base@std@@@std@@$0A@@?$unique_ptr@V_Facet_base@std@@U?$default_delete@V_Facet_base@std@@@2@@std@@QEAA@PEAV_Facet_base@1@@Z
	??$?0U?$default_delete@Vaggregate_formatter@details@spdlog@@@std@@$0A@@?$unique_ptr@Vaggregate_formatter@details@spdlog@@U?$default_delete@Vaggregate_formatter@details@spdlog@@@std@@@std@@QEAA@PEAVaggregate_formatter@details@spdlog@@@Z
	??$?0U?$default_delete@Vaggregate_formatter@details@spdlog@@@std@@$0A@@?$unique_ptr@Vaggregate_formatter@details@spdlog@@U?$default_delete@Vaggregate_formatter@details@spdlog@@@std@@@std@@QEAA@XZ
	??$?0U?$default_delete@Vaggregate_formatter@details@spdlog@@@std@@PEAVaggregate_formatter@details@spdlog@@@?$_Compressed_pair@U?$default_delete@Vflag_formatter@details@spdlog@@@std@@PEAVflag_formatter@details@spdlog@@$00@std@@QEAA@U_One_then_variadic_args_t@1@$$QEAU?$default_delete@Vaggregate_formatter@details@spdlog@@@1@$$QEAPEAVaggregate_formatter@details@spdlog@@@Z
	??$?0U?$default_delete@Vch_formatter@details@spdlog@@@std@@$0A@@?$unique_ptr@Vch_formatter@details@spdlog@@U?$default_delete@Vch_formatter@details@spdlog@@@std@@@std@@QEAA@PEAVch_formatter@details@spdlog@@@Z
	??$?0U?$default_delete@Vch_formatter@details@spdlog@@@std@@PEAVch_formatter@details@spdlog@@@?$_Compressed_pair@U?$default_delete@Vflag_formatter@details@spdlog@@@std@@PEAVflag_formatter@details@spdlog@@$00@std@@QEAA@U_One_then_variadic_args_t@1@$$QEAU?$default_delete@Vch_formatter@details@spdlog@@@1@$$QEAPEAVch_formatter@details@spdlog@@@Z
	??$?0U?$default_delete@Vcolor_start_formatter@details@spdlog@@@std@@$0A@@?$unique_ptr@Vcolor_start_formatter@details@spdlog@@U?$default_delete@Vcolor_start_formatter@details@spdlog@@@std@@@std@@QEAA@PEAVcolor_start_formatter@details@spdlog@@@Z
	??$?0U?$default_delete@Vcolor_start_formatter@details@spdlog@@@std@@PEAVcolor_start_formatter@details@spdlog@@@?$_Compressed_pair@U?$default_delete@Vflag_formatter@details@spdlog@@@std@@PEAVflag_formatter@details@spdlog@@$00@std@@QEAA@U_One_then_variadic_args_t@1@$$QEAU?$default_delete@Vcolor_start_formatter@details@spdlog@@@1@$$QEAPEAVcolor_start_formatter@details@spdlog@@@Z
	??$?0U?$default_delete@Vcolor_stop_formatter@details@spdlog@@@std@@$0A@@?$unique_ptr@Vcolor_stop_formatter@details@spdlog@@U?$default_delete@Vcolor_stop_formatter@details@spdlog@@@std@@@std@@QEAA@PEAVcolor_stop_formatter@details@spdlog@@@Z
	??$?0U?$default_delete@Vcolor_stop_formatter@details@spdlog@@@std@@PEAVcolor_stop_formatter@details@spdlog@@@?$_Compressed_pair@U?$default_delete@Vflag_formatter@details@spdlog@@@std@@PEAVflag_formatter@details@spdlog@@$00@std@@QEAA@U_One_then_variadic_args_t@1@$$QEAU?$default_delete@Vcolor_stop_formatter@details@spdlog@@@1@$$QEAPEAVcolor_stop_formatter@details@spdlog@@@Z
	??$?0U?$default_delete@Vcustom_flag_formatter@spdlog@@@std@@$0A@@?$unique_ptr@Vcustom_flag_formatter@spdlog@@U?$default_delete@Vcustom_flag_formatter@spdlog@@@std@@@std@@QEAA@XZ
	??$?0U?$default_delete@Vcustom_flag_formatter@spdlog@@@std@@PEAVcustom_flag_formatter@spdlog@@@?$_Compressed_pair@U?$default_delete@Vflag_formatter@details@spdlog@@@std@@PEAVflag_formatter@details@spdlog@@$00@std@@QEAA@U_One_then_variadic_args_t@1@$$QEAU?$default_delete@Vcustom_flag_formatter@spdlog@@@1@$$QEAPEAVcustom_flag_formatter@spdlog@@@Z
	??$?0U?$default_delete@Vflag_formatter@details@spdlog@@@std@@$0A@@?$unique_ptr@Vflag_formatter@details@spdlog@@U?$default_delete@Vflag_formatter@details@spdlog@@@std@@@std@@QEAA@$$QEAV01@@Z
	??$?0U?$default_delete@Vflag_formatter@details@spdlog@@@std@@PEAVflag_formatter@details@spdlog@@@?$_Compressed_pair@U?$default_delete@Vflag_formatter@details@spdlog@@@std@@PEAVflag_formatter@details@spdlog@@$00@std@@QEAA@U_One_then_variadic_args_t@1@$$QEAU?$default_delete@Vflag_formatter@details@spdlog@@@1@$$QEAPEAVflag_formatter@details@spdlog@@@Z
	??$?0U?$default_delete@Vformatter@spdlog@@@std@@$0A@@?$unique_ptr@Vformatter@spdlog@@U?$default_delete@Vformatter@spdlog@@@std@@@std@@QEAA@$$QEAV01@@Z
	??$?0U?$default_delete@Vformatter@spdlog@@@std@@$0A@@?$unique_ptr@Vformatter@spdlog@@U?$default_delete@Vformatter@spdlog@@@std@@@std@@QEAA@PEAVformatter@spdlog@@@Z
	??$?0U?$default_delete@Vformatter@spdlog@@@std@@PEAVformatter@spdlog@@@?$_Compressed_pair@U?$default_delete@Vformatter@spdlog@@@std@@PEAVformatter@spdlog@@$00@std@@QEAA@U_One_then_variadic_args_t@1@$$QEAU?$default_delete@Vformatter@spdlog@@@1@$$QEAPEAVformatter@spdlog@@@Z
	??$?0U?$default_delete@Vfull_formatter@details@spdlog@@@std@@$0A@@?$unique_ptr@Vfull_formatter@details@spdlog@@U?$default_delete@Vfull_formatter@details@spdlog@@@std@@@std@@QEAA@PEAVfull_formatter@details@spdlog@@@Z
	??$?0U?$default_delete@Vfull_formatter@details@spdlog@@@std@@PEAVfull_formatter@details@spdlog@@@?$_Compressed_pair@U?$default_delete@Vflag_formatter@details@spdlog@@@std@@PEAVflag_formatter@details@spdlog@@$00@std@@QEAA@U_One_then_variadic_args_t@1@$$QEAU?$default_delete@Vfull_formatter@details@spdlog@@@1@$$QEAPEAVfull_formatter@details@spdlog@@@Z
	??$?0U?$default_delete@Vpattern_formatter@spdlog@@@std@@$0A@@?$unique_ptr@Vpattern_formatter@spdlog@@U?$default_delete@Vpattern_formatter@spdlog@@@std@@@std@@QEAA@PEAVpattern_formatter@spdlog@@@Z
	??$?0U?$default_delete@Vpattern_formatter@spdlog@@@std@@PEAVpattern_formatter@spdlog@@@?$_Compressed_pair@U?$default_delete@Vformatter@spdlog@@@std@@PEAVformatter@spdlog@@$00@std@@QEAA@U_One_then_variadic_args_t@1@$$QEAU?$default_delete@Vpattern_formatter@spdlog@@@1@$$QEAPEAVpattern_formatter@spdlog@@@Z
	??$?0U?$default_delete@Vperiodic_worker@details@spdlog@@@std@@$0A@@?$unique_ptr@Vperiodic_worker@details@spdlog@@U?$default_delete@Vperiodic_worker@details@spdlog@@@std@@@std@@QEAA@XZ
	??$?0U?$pair@$$CBDV?$unique_ptr@Vcustom_flag_formatter@spdlog@@U?$default_delete@Vcustom_flag_formatter@spdlog@@@std@@@std@@@std@@@?$allocator@U?$_List_node@U?$pair@$$CBDV?$unique_ptr@Vcustom_flag_formatter@spdlog@@U?$default_delete@Vcustom_flag_formatter@spdlog@@@std@@@std@@@std@@PEAX@std@@@std@@QEAA@AEBV?$allocator@U?$pair@$$CBDV?$unique_ptr@Vcustom_flag_formatter@spdlog@@U?$default_delete@Vcustom_flag_formatter@spdlog@@@std@@@std@@@std@@@1@@Z
	??$?0U?$pair@$$CBDV?$unique_ptr@Vcustom_flag_formatter@spdlog@@U?$default_delete@Vcustom_flag_formatter@spdlog@@@std@@@std@@@std@@@?$allocator@V?$_List_unchecked_iterator@V?$_List_val@U?$_List_simple_types@U?$pair@$$CBDV?$unique_ptr@Vcustom_flag_formatter@spdlog@@U?$default_delete@Vcustom_flag_formatter@spdlog@@@std@@@std@@@std@@@std@@@std@@@std@@@std@@QEAA@AEBV?$allocator@U?$pair@$$CBDV?$unique_ptr@Vcustom_flag_formatter@spdlog@@U?$default_delete@Vcustom_flag_formatter@spdlog@@@std@@@std@@@std@@@1@@Z
	??$?0U?$pair@$$CBV?$basic_string@DU?$char_traits@D@std@@V?$allocator@D@2@@std@@V?$shared_ptr@Vlogger@spdlog@@@2@@std@@@?$allocator@U?$_List_node@U?$pair@$$CBV?$basic_string@DU?$char_traits@D@std@@V?$allocator@D@2@@std@@V?$shared_ptr@Vlogger@spdlog@@@2@@std@@PEAX@std@@@std@@QEAA@AEBV?$allocator@U?$pair@$$CBV?$basic_string@DU?$char_traits@D@std@@V?$allocator@D@2@@std@@V?$shared_ptr@Vlogger@spdlog@@@2@@std@@@1@@Z
	??$?0U?$pair@$$CBV?$basic_string@DU?$char_traits@D@std@@V?$allocator@D@2@@std@@V?$shared_ptr@Vlogger@spdlog@@@2@@std@@@?$allocator@V?$_List_unchecked_iterator@V?$_List_val@U?$_List_simple_types@U?$pair@$$CBV?$basic_string@DU?$char_traits@D@std@@V?$allocator@D@2@@std@@V?$shared_ptr@Vlogger@spdlog@@@2@@std@@@std@@@std@@@std@@@std@@QEAA@AEBV?$allocator@U?$pair@$$CBV?$basic_string@DU?$char_traits@D@std@@V?$allocator@D@2@@std@@V?$shared_ptr@Vlogger@spdlog@@@2@@std@@@1@@Z
	??$?0U?$pair@$$CBV?$basic_string@DU?$char_traits@D@std@@V?$allocator@D@2@@std@@W4level_enum@level@spdlog@@@std@@@?$allocator@U?$_List_node@U?$pair@$$CBV?$basic_string@DU?$char_traits@D@std@@V?$allocator@D@2@@std@@W4level_enum@level@spdlog@@@std@@PEAX@std@@@std@@QEAA@AEBV?$allocator@U?$pair@$$CBV?$basic_string@DU?$char_traits@D@std@@V?$allocator@D@2@@std@@W4level_enum@level@spdlog@@@std@@@1@@Z
	??$?0U?$pair@$$CBV?$basic_string@DU?$char_traits@D@std@@V?$allocator@D@2@@std@@W4level_enum@level@spdlog@@@std@@@?$allocator@V?$_List_unchecked_iterator@V?$_List_val@U?$_List_simple_types@U?$pair@$$CBV?$basic_string@DU?$char_traits@D@std@@V?$allocator@D@2@@std@@W4level_enum@level@spdlog@@@std@@@std@@@std@@@std@@@std@@QEAA@AEBV?$allocator@U?$pair@$$CBV?$basic_string@DU?$char_traits@D@std@@V?$allocator@D@2@@std@@W4level_enum@level@spdlog@@@std@@@1@@Z
	??$?0UFMT_COMPILE_STRING@?1???R<lambda_212d00fcbee2b91dfe80444fa9e75194>@@QEBA@XZ@$0A@@?$basic_format_string@DPEBDAEAPEBDAEAH@v9@fmt@@QEAA@AEBUFMT_COMPILE_STRING@?1???R<lambda_212d00fcbee2b91dfe80444fa9e75194>@@QEBA@XZ@@Z
	??$?0UFMT_COMPILE_STRING@?1???R<lambda_34dd3ed776973c3fb6c81e3f2a5b93d6>@@QEBA@XZ@$0A@@?$basic_format_string@DPEBDAEAPEBDAEAH@v9@fmt@@QEAA@AEBUFMT_COMPILE_STRING@?1???R<lambda_34dd3ed776973c3fb6c81e3f2a5b93d6>@@QEBA@XZ@@Z
	??$?0UFMT_COMPILE_STRING@?1???R<lambda_7046b8cb1365fe954f34e9bd737c2efb>@@QEBA@XZ@$0A@@?$basic_format_string@DPEBDAEBQEBDAEBH@v9@fmt@@QEAA@AEBUFMT_COMPILE_STRING@?1???R<lambda_7046b8cb1365fe954f34e9bd737c2efb>@@QEBA@XZ@@Z
	??$?0UFMT_COMPILE_STRING@?1???R<lambda_8858bbb77d2a42a7b2e251b7917f7d3f>@@QEBA@XZ@$0A@@?$basic_format_string@DAEAV?$basic_string_view@D@v9@fmt@@AEAY02$$CBD@v9@fmt@@QEAA@AEBUFMT_COMPILE_STRING@?1???R<lambda_8858bbb77d2a42a7b2e251b7917f7d3f>@@QEBA@XZ@@Z
	??$?0UFMT_COMPILE_STRING@?1???R<lambda_a4ff98230a81385c276afb92fba0d4d2>@@QEBA@XZ@$0A@@?$basic_format_string@DPEBDPEBDH@v9@fmt@@QEAA@AEBUFMT_COMPILE_STRING@?1???R<lambda_a4ff98230a81385c276afb92fba0d4d2>@@QEBA@XZ@@Z
	??$?0UFMT_COMPILE_STRING@?1???R<lambda_e67b02bdbac6039e8e2880dbb6e3e3aa>@@QEBA@XZ@$0A@@?$basic_format_string@DAEAH@v9@fmt@@QEAA@AEBUFMT_COMPILE_STRING@?1???R<lambda_e67b02bdbac6039e8e2880dbb6e3e3aa>@@QEBA@XZ@@Z
	??$?0UFMT_COMPILE_STRING@?1???R<lambda_ea8c7b7436323a1b4bf929d68ad400b6>@@QEBA@XZ@$0A@@?$basic_format_string@DAEAY06$$CBDAEAH@v9@fmt@@QEAA@AEBUFMT_COMPILE_STRING@?1???R<lambda_ea8c7b7436323a1b4bf929d68ad400b6>@@QEBA@XZ@@Z
	??$?0U_Exact_args_t@std@@$0A@@?$tuple@$$V@std@@QEAA@U_Exact_args_t@1@@Z
	??$?0U_Exact_args_t@std@@AEAVEvent@Engine@@$$V$0A@@?$tuple@AEAVEvent@Engine@@@std@@QEAA@U_Exact_args_t@1@AEAVEvent@Engine@@@Z
	??$?0U_Exact_args_t@std@@AEAVKeyPressedEvent@Engine@@$$V$0A@@?$tuple@AEAVKeyPressedEvent@Engine@@@std@@QEAA@U_Exact_args_t@1@AEAVKeyPressedEvent@Engine@@@Z
	??$?0U_Exact_args_t@std@@AEAVKeyReleasedEvent@Engine@@$$V$0A@@?$tuple@AEAVKeyReleasedEvent@Engine@@@std@@QEAA@U_Exact_args_t@1@AEAVKeyReleasedEvent@Engine@@@Z
	??$?0U_Exact_args_t@std@@AEAVKeyTypedEvent@Engine@@$$V$0A@@?$tuple@AEAVKeyTypedEvent@Engine@@@std@@QEAA@U_Exact_args_t@1@AEAVKeyTypedEvent@Engine@@@Z
	??$?0U_Exact_args_t@std@@AEAVMouseButtonPressedEvent@Engine@@$$V$0A@@?$tuple@AEAVMouseButtonPressedEvent@Engine@@@std@@QEAA@U_Exact_args_t@1@AEAVMouseButtonPressedEvent@Engine@@@Z
	??$?0U_Exact_args_t@std@@AEAVMouseButtonReleasedEvent@Engine@@$$V$0A@@?$tuple@AEAVMouseButtonReleasedEvent@Engine@@@std@@QEAA@U_Exact_args_t@1@AEAVMouseButtonReleasedEvent@Engine@@@Z
	??$?0U_Exact_args_t@std@@AEAVMouseMovedEvent@Engine@@$$V$0A@@?$tuple@AEAVMouseMovedEvent@Engine@@@std@@QEAA@U_Exact_args_t@1@AEAVMouseMovedEvent@Engine@@@Z
	??$?0U_Exact_args_t@std@@AEAVMouseScrolledEvent@Engine@@$$V$0A@@?$tuple@AEAVMouseScrolledEvent@Engine@@@std@@QEAA@U_Exact_args_t@1@AEAVMouseScrolledEvent@Engine@@@Z
	??$?0U_Exact_args_t@std@@AEAVWindowCloseEvent@Engine@@$$V$0A@@?$tuple@AEAVWindowCloseEvent@Engine@@@std@@QEAA@U_Exact_args_t@1@AEAVWindowCloseEvent@Engine@@@Z
	??$?0U_Exact_args_t@std@@AEAVWindowResizeEvent@Engine@@$$V$0A@@?$tuple@AEAVWindowResizeEvent@Engine@@@std@@QEAA@U_Exact_args_t@1@AEAVWindowResizeEvent@Engine@@@Z
	??$?0U_Exact_args_t@std@@AEBD$$V$0A@@?$tuple@AEBD@std@@QEAA@U_Exact_args_t@1@AEBD@Z
	??$?0U_Exact_args_t@std@@AEBU?$_Ph@$00@1@$$V$0A@@?$tuple@U?$_Ph@$00@std@@@std@@QEAA@U_Exact_args_t@1@AEBU?$_Ph@$00@1@@Z
	??$?0U_Exact_args_t@std@@AEBV?$basic_string@DU?$char_traits@D@std@@V?$allocator@D@2@@1@$$V$0A@@?$tuple@AEBV?$basic_string@DU?$char_traits@D@std@@V?$allocator@D@2@@std@@@std@@QEAA@U_Exact_args_t@1@AEBV?$basic_string@DU?$char_traits@D@std@@V?$allocator@D@2@@1@@Z
	??$?0U_Exact_args_t@std@@PEAVApplication@Engine@@AEBU?$_Ph@$00@1@$0A@@?$tuple@PEAVApplication@Engine@@U?$_Ph@$00@std@@@std@@QEAA@U_Exact_args_t@1@$$QEAPEAVApplication@Engine@@AEBU?$_Ph@$00@1@@Z
	??$?0U_Exact_args_t@std@@PEAVImGuiLayer@Engine@@AEBU?$_Ph@$00@1@$0A@@?$tuple@PEAVImGuiLayer@Engine@@U?$_Ph@$00@std@@@std@@QEAA@U_Exact_args_t@1@$$QEAPEAVImGuiLayer@Engine@@AEBU?$_Ph@$00@1@@Z
	??$?0U_Exact_args_t@std@@V?$basic_string@DU?$char_traits@D@std@@V?$allocator@D@2@@1@$$V$0A@@?$tuple@$$QEAV?$basic_string@DU?$char_traits@D@std@@V?$allocator@D@2@@std@@@std@@QEAA@U_Exact_args_t@1@$$QEAV?$basic_string@DU?$char_traits@D@std@@V?$allocator@D@2@@1@@Z
	??$?0U_Zero_then_variadic_args_t@std@@M@?$_Compressed_pair@U?$hash@D@std@@V?$_Compressed_pair@U?$equal_to@D@std@@M$00@2@$00@std@@QEAA@U_Zero_then_variadic_args_t@1@$$QEAU21@$$QEAM@Z
	??$?0U_Zero_then_variadic_args_t@std@@M@?$_Compressed_pair@U?$hash@V?$basic_string@DU?$char_traits@D@std@@V?$allocator@D@2@@std@@@std@@V?$_Compressed_pair@U?$equal_to@V?$basic_string@DU?$char_traits@D@std@@V?$allocator@D@2@@std@@@std@@M$00@2@$00@std@@QEAA@U_Zero_then_variadic_args_t@1@$$QEAU21@$$QEAM@Z
	??$?0V?$A_formatter@Unull_scoped_padder@details@spdlog@@@details@spdlog@@$0A@@?$default_delete@Vflag_formatter@details@spdlog@@@std@@QEAA@AEBU?$default_delete@V?$A_formatter@Unull_scoped_padder@details@spdlog@@@details@spdlog@@@1@@Z
	??$?0V?$A_formatter@Unull_scoped_padder@details@spdlog@@@details@spdlog@@U?$default_delete@V?$A_formatter@Unull_scoped_padder@details@spdlog@@@details@spdlog@@@std@@$0A@@?$unique_ptr@Vflag_formatter@details@spdlog@@U?$default_delete@Vflag_formatter@details@spdlog@@@std@@@std@@QEAA@$$QEAV?$unique_ptr@V?$A_formatter@Unull_scoped_padder@details@spdlog@@@details@spdlog@@U?$default_delete@V?$A_formatter@Unull_scoped_padder@details@spdlog@@@details@spdlog@@@std@@@1@@Z
	??$?0V?$A_formatter@Vscoped_padder@details@spdlog@@@details@spdlog@@$0A@@?$default_delete@Vflag_formatter@details@spdlog@@@std@@QEAA@AEBU?$default_delete@V?$A_formatter@Vscoped_padder@details@spdlog@@@details@spdlog@@@1@@Z
	??$?0V?$A_formatter@Vscoped_padder@details@spdlog@@@details@spdlog@@U?$default_delete@V?$A_formatter@Vscoped_padder@details@spdlog@@@details@spdlog@@@std@@$0A@@?$unique_ptr@Vflag_formatter@details@spdlog@@U?$default_delete@Vflag_formatter@details@spdlog@@@std@@@std@@QEAA@$$QEAV?$unique_ptr@V?$A_formatter@Vscoped_padder@details@spdlog@@@details@spdlog@@U?$default_delete@V?$A_formatter@Vscoped_padder@details@spdlog@@@details@spdlog@@@std@@@1@@Z
	??$?0V?$B_formatter@Unull_scoped_padder@details@spdlog@@@details@spdlog@@$0A@@?$default_delete@Vflag_formatter@details@spdlog@@@std@@QEAA@AEBU?$default_delete@V?$B_formatter@Unull_scoped_padder@details@spdlog@@@details@spdlog@@@1@@Z
	??$?0V?$B_formatter@Unull_scoped_padder@details@spdlog@@@details@spdlog@@U?$default_delete@V?$B_formatter@Unull_scoped_padder@details@spdlog@@@details@spdlog@@@std@@$0A@@?$unique_ptr@Vflag_formatter@details@spdlog@@U?$default_delete@Vflag_formatter@details@spdlog@@@std@@@std@@QEAA@$$QEAV?$unique_ptr@V?$B_formatter@Unull_scoped_padder@details@spdlog@@@details@spdlog@@U?$default_delete@V?$B_formatter@Unull_scoped_padder@details@spdlog@@@details@spdlog@@@std@@@1@@Z
	??$?0V?$B_formatter@Vscoped_padder@details@spdlog@@@details@spdlog@@$0A@@?$default_delete@Vflag_formatter@details@spdlog@@@std@@QEAA@AEBU?$default_delete@V?$B_formatter@Vscoped_padder@details@spdlog@@@details@spdlog@@@1@@Z
	??$?0V?$B_formatter@Vscoped_padder@details@spdlog@@@details@spdlog@@U?$default_delete@V?$B_formatter@Vscoped_padder@details@spdlog@@@details@spdlog@@@std@@$0A@@?$unique_ptr@Vflag_formatter@details@spdlog@@U?$default_delete@Vflag_formatter@details@spdlog@@@std@@@std@@QEAA@$$QEAV?$unique_ptr@V?$B_formatter@Vscoped_padder@details@spdlog@@@details@spdlog@@U?$default_delete@V?$B_formatter@Vscoped_padder@details@spdlog@@@details@spdlog@@@std@@@1@@Z
	??$?0V?$C_formatter@Unull_scoped_padder@details@spdlog@@@details@spdlog@@$0A@@?$default_delete@Vflag_formatter@details@spdlog@@@std@@QEAA@AEBU?$default_delete@V?$C_formatter@Unull_scoped_padder@details@spdlog@@@details@spdlog@@@1@@Z
	??$?0V?$C_formatter@Unull_scoped_padder@details@spdlog@@@details@spdlog@@U?$default_delete@V?$C_formatter@Unull_scoped_padder@details@spdlog@@@details@spdlog@@@std@@$0A@@?$unique_ptr@Vflag_formatter@details@spdlog@@U?$default_delete@Vflag_formatter@details@spdlog@@@std@@@std@@QEAA@$$QEAV?$unique_ptr@V?$C_formatter@Unull_scoped_padder@details@spdlog@@@details@spdlog@@U?$default_delete@V?$C_formatter@Unull_scoped_padder@details@spdlog@@@details@spdlog@@@std@@@1@@Z
	??$?0V?$C_formatter@Vscoped_padder@details@spdlog@@@details@spdlog@@$0A@@?$default_delete@Vflag_formatter@details@spdlog@@@std@@QEAA@AEBU?$default_delete@V?$C_formatter@Vscoped_padder@details@spdlog@@@details@spdlog@@@1@@Z
	??$?0V?$C_formatter@Vscoped_padder@details@spdlog@@@details@spdlog@@U?$default_delete@V?$C_formatter@Vscoped_padder@details@spdlog@@@details@spdlog@@@std@@$0A@@?$unique_ptr@Vflag_formatter@details@spdlog@@U?$default_delete@Vflag_formatter@details@spdlog@@@std@@@std@@QEAA@$$QEAV?$unique_ptr@V?$C_formatter@Vscoped_padder@details@spdlog@@@details@spdlog@@U?$default_delete@V?$C_formatter@Vscoped_padder@details@spdlog@@@details@spdlog@@@std@@@1@@Z
	??$?0V?$D_formatter@Unull_scoped_padder@details@spdlog@@@details@spdlog@@$0A@@?$default_delete@Vflag_formatter@details@spdlog@@@std@@QEAA@AEBU?$default_delete@V?$D_formatter@Unull_scoped_padder@details@spdlog@@@details@spdlog@@@1@@Z
	??$?0V?$D_formatter@Unull_scoped_padder@details@spdlog@@@details@spdlog@@U?$default_delete@V?$D_formatter@Unull_scoped_padder@details@spdlog@@@details@spdlog@@@std@@$0A@@?$unique_ptr@Vflag_formatter@details@spdlog@@U?$default_delete@Vflag_formatter@details@spdlog@@@std@@@std@@QEAA@$$QEAV?$unique_ptr@V?$D_formatter@Unull_scoped_padder@details@spdlog@@@details@spdlog@@U?$default_delete@V?$D_formatter@Unull_scoped_padder@details@spdlog@@@details@spdlog@@@std@@@1@@Z
	??$?0V?$D_formatter@Vscoped_padder@details@spdlog@@@details@spdlog@@$0A@@?$default_delete@Vflag_formatter@details@spdlog@@@std@@QEAA@AEBU?$default_delete@V?$D_formatter@Vscoped_padder@details@spdlog@@@details@spdlog@@@1@@Z
	??$?0V?$D_formatter@Vscoped_padder@details@spdlog@@@details@spdlog@@U?$default_delete@V?$D_formatter@Vscoped_padder@details@spdlog@@@details@spdlog@@@std@@$0A@@?$unique_ptr@Vflag_formatter@details@spdlog@@U?$default_delete@Vflag_formatter@details@spdlog@@@std@@@std@@QEAA@$$QEAV?$unique_ptr@V?$D_formatter@Vscoped_padder@details@spdlog@@@details@spdlog@@U?$default_delete@V?$D_formatter@Vscoped_padder@details@spdlog@@@details@spdlog@@@std@@@1@@Z
	??$?0V?$E_formatter@Unull_scoped_padder@details@spdlog@@@details@spdlog@@$0A@@?$default_delete@Vflag_formatter@details@spdlog@@@std@@QEAA@AEBU?$default_delete@V?$E_formatter@Unull_scoped_padder@details@spdlog@@@details@spdlog@@@1@@Z
	??$?0V?$E_formatter@Unull_scoped_padder@details@spdlog@@@details@spdlog@@U?$default_delete@V?$E_formatter@Unull_scoped_padder@details@spdlog@@@details@spdlog@@@std@@$0A@@?$unique_ptr@Vflag_formatter@details@spdlog@@U?$default_delete@Vflag_formatter@details@spdlog@@@std@@@std@@QEAA@$$QEAV?$unique_ptr@V?$E_formatter@Unull_scoped_padder@details@spdlog@@@details@spdlog@@U?$default_delete@V?$E_formatter@Unull_scoped_padder@details@spdlog@@@details@spdlog@@@std@@@1@@Z
	??$?0V?$E_formatter@Vscoped_padder@details@spdlog@@@details@spdlog@@$0A@@?$default_delete@Vflag_formatter@details@spdlog@@@std@@QEAA@AEBU?$default_delete@V?$E_formatter@Vscoped_padder@details@spdlog@@@details@spdlog@@@1@@Z
	??$?0V?$E_formatter@Vscoped_padder@details@spdlog@@@details@spdlog@@U?$default_delete@V?$E_formatter@Vscoped_padder@details@spdlog@@@details@spdlog@@@std@@$0A@@?$unique_ptr@Vflag_formatter@details@spdlog@@U?$default_delete@Vflag_formatter@details@spdlog@@@std@@@std@@QEAA@$$QEAV?$unique_ptr@V?$E_formatter@Vscoped_padder@details@spdlog@@@details@spdlog@@U?$default_delete@V?$E_formatter@Vscoped_padder@details@spdlog@@@details@spdlog@@@std@@@1@@Z
	??$?0V?$F_formatter@Unull_scoped_padder@details@spdlog@@@details@spdlog@@$0A@@?$default_delete@Vflag_formatter@details@spdlog@@@std@@QEAA@AEBU?$default_delete@V?$F_formatter@Unull_scoped_padder@details@spdlog@@@details@spdlog@@@1@@Z
	??$?0V?$F_formatter@Unull_scoped_padder@details@spdlog@@@details@spdlog@@U?$default_delete@V?$F_formatter@Unull_scoped_padder@details@spdlog@@@details@spdlog@@@std@@$0A@@?$unique_ptr@Vflag_formatter@details@spdlog@@U?$default_delete@Vflag_formatter@details@spdlog@@@std@@@std@@QEAA@$$QEAV?$unique_ptr@V?$F_formatter@Unull_scoped_padder@details@spdlog@@@details@spdlog@@U?$default_delete@V?$F_formatter@Unull_scoped_padder@details@spdlog@@@details@spdlog@@@std@@@1@@Z
	??$?0V?$F_formatter@Vscoped_padder@details@spdlog@@@details@spdlog@@$0A@@?$default_delete@Vflag_formatter@details@spdlog@@@std@@QEAA@AEBU?$default_delete@V?$F_formatter@Vscoped_padder@details@spdlog@@@details@spdlog@@@1@@Z
	??$?0V?$F_formatter@Vscoped_padder@details@spdlog@@@details@spdlog@@U?$default_delete@V?$F_formatter@Vscoped_padder@details@spdlog@@@details@spdlog@@@std@@$0A@@?$unique_ptr@Vflag_formatter@details@spdlog@@U?$default_delete@Vflag_formatter@details@spdlog@@@std@@@std@@QEAA@$$QEAV?$unique_ptr@V?$F_formatter@Vscoped_padder@details@spdlog@@@details@spdlog@@U?$default_delete@V?$F_formatter@Vscoped_padder@details@spdlog@@@details@spdlog@@@std@@@1@@Z
	??$?0V?$H_formatter@Unull_scoped_padder@details@spdlog@@@details@spdlog@@$0A@@?$default_delete@Vflag_formatter@details@spdlog@@@std@@QEAA@AEBU?$default_delete@V?$H_formatter@Unull_scoped_padder@details@spdlog@@@details@spdlog@@@1@@Z
	??$?0V?$H_formatter@Unull_scoped_padder@details@spdlog@@@details@spdlog@@U?$default_delete@V?$H_formatter@Unull_scoped_padder@details@spdlog@@@details@spdlog@@@std@@$0A@@?$unique_ptr@Vflag_formatter@details@spdlog@@U?$default_delete@Vflag_formatter@details@spdlog@@@std@@@std@@QEAA@$$QEAV?$unique_ptr@V?$H_formatter@Unull_scoped_padder@details@spdlog@@@details@spdlog@@U?$default_delete@V?$H_formatter@Unull_scoped_padder@details@spdlog@@@details@spdlog@@@std@@@1@@Z
	??$?0V?$H_formatter@Vscoped_padder@details@spdlog@@@details@spdlog@@$0A@@?$default_delete@Vflag_formatter@details@spdlog@@@std@@QEAA@AEBU?$default_delete@V?$H_formatter@Vscoped_padder@details@spdlog@@@details@spdlog@@@1@@Z
	??$?0V?$H_formatter@Vscoped_padder@details@spdlog@@@details@spdlog@@U?$default_delete@V?$H_formatter@Vscoped_padder@details@spdlog@@@details@spdlog@@@std@@$0A@@?$unique_ptr@Vflag_formatter@details@spdlog@@U?$default_delete@Vflag_formatter@details@spdlog@@@std@@@std@@QEAA@$$QEAV?$unique_ptr@V?$H_formatter@Vscoped_padder@details@spdlog@@@details@spdlog@@U?$default_delete@V?$H_formatter@Vscoped_padder@details@spdlog@@@details@spdlog@@@std@@@1@@Z
	??$?0V?$I_formatter@Unull_scoped_padder@details@spdlog@@@details@spdlog@@$0A@@?$default_delete@Vflag_formatter@details@spdlog@@@std@@QEAA@AEBU?$default_delete@V?$I_formatter@Unull_scoped_padder@details@spdlog@@@details@spdlog@@@1@@Z
	??$?0V?$I_formatter@Unull_scoped_padder@details@spdlog@@@details@spdlog@@U?$default_delete@V?$I_formatter@Unull_scoped_padder@details@spdlog@@@details@spdlog@@@std@@$0A@@?$unique_ptr@Vflag_formatter@details@spdlog@@U?$default_delete@Vflag_formatter@details@spdlog@@@std@@@std@@QEAA@$$QEAV?$unique_ptr@V?$I_formatter@Unull_scoped_padder@details@spdlog@@@details@spdlog@@U?$default_delete@V?$I_formatter@Unull_scoped_padder@details@spdlog@@@details@spdlog@@@std@@@1@@Z
	??$?0V?$I_formatter@Vscoped_padder@details@spdlog@@@details@spdlog@@$0A@@?$default_delete@Vflag_formatter@details@spdlog@@@std@@QEAA@AEBU?$default_delete@V?$I_formatter@Vscoped_padder@details@spdlog@@@details@spdlog@@@1@@Z
	??$?0V?$I_formatter@Vscoped_padder@details@spdlog@@@details@spdlog@@U?$default_delete@V?$I_formatter@Vscoped_padder@details@spdlog@@@details@spdlog@@@std@@$0A@@?$unique_ptr@Vflag_formatter@details@spdlog@@U?$default_delete@Vflag_formatter@details@spdlog@@@std@@@std@@QEAA@$$QEAV?$unique_ptr@V?$I_formatter@Vscoped_padder@details@spdlog@@@details@spdlog@@U?$default_delete@V?$I_formatter@Vscoped_padder@details@spdlog@@@details@spdlog@@@std@@@1@@Z
	??$?0V?$M_formatter@Unull_scoped_padder@details@spdlog@@@details@spdlog@@$0A@@?$default_delete@Vflag_formatter@details@spdlog@@@std@@QEAA@AEBU?$default_delete@V?$M_formatter@Unull_scoped_padder@details@spdlog@@@details@spdlog@@@1@@Z
	??$?0V?$M_formatter@Unull_scoped_padder@details@spdlog@@@details@spdlog@@U?$default_delete@V?$M_formatter@Unull_scoped_padder@details@spdlog@@@details@spdlog@@@std@@$0A@@?$unique_ptr@Vflag_formatter@details@spdlog@@U?$default_delete@Vflag_formatter@details@spdlog@@@std@@@std@@QEAA@$$QEAV?$unique_ptr@V?$M_formatter@Unull_scoped_padder@details@spdlog@@@details@spdlog@@U?$default_delete@V?$M_formatter@Unull_scoped_padder@details@spdlog@@@details@spdlog@@@std@@@1@@Z
	??$?0V?$M_formatter@Vscoped_padder@details@spdlog@@@details@spdlog@@$0A@@?$default_delete@Vflag_formatter@details@spdlog@@@std@@QEAA@AEBU?$default_delete@V?$M_formatter@Vscoped_padder@details@spdlog@@@details@spdlog@@@1@@Z
	??$?0V?$M_formatter@Vscoped_padder@details@spdlog@@@details@spdlog@@U?$default_delete@V?$M_formatter@Vscoped_padder@details@spdlog@@@details@spdlog@@@std@@$0A@@?$unique_ptr@Vflag_formatter@details@spdlog@@U?$default_delete@Vflag_formatter@details@spdlog@@@std@@@std@@QEAA@$$QEAV?$unique_ptr@V?$M_formatter@Vscoped_padder@details@spdlog@@@details@spdlog@@U?$default_delete@V?$M_formatter@Vscoped_padder@details@spdlog@@@details@spdlog@@@std@@@1@@Z
	??$?0V?$R_formatter@Unull_scoped_padder@details@spdlog@@@details@spdlog@@$0A@@?$default_delete@Vflag_formatter@details@spdlog@@@std@@QEAA@AEBU?$default_delete@V?$R_formatter@Unull_scoped_padder@details@spdlog@@@details@spdlog@@@1@@Z
	??$?0V?$R_formatter@Unull_scoped_padder@details@spdlog@@@details@spdlog@@U?$default_delete@V?$R_formatter@Unull_scoped_padder@details@spdlog@@@details@spdlog@@@std@@$0A@@?$unique_ptr@Vflag_formatter@details@spdlog@@U?$default_delete@Vflag_formatter@details@spdlog@@@std@@@std@@QEAA@$$QEAV?$unique_ptr@V?$R_formatter@Unull_scoped_padder@details@spdlog@@@details@spdlog@@U?$default_delete@V?$R_formatter@Unull_scoped_padder@details@spdlog@@@details@spdlog@@@std@@@1@@Z
	??$?0V?$R_formatter@Vscoped_padder@details@spdlog@@@details@spdlog@@$0A@@?$default_delete@Vflag_formatter@details@spdlog@@@std@@QEAA@AEBU?$default_delete@V?$R_formatter@Vscoped_padder@details@spdlog@@@details@spdlog@@@1@@Z
	??$?0V?$R_formatter@Vscoped_padder@details@spdlog@@@details@spdlog@@U?$default_delete@V?$R_formatter@Vscoped_padder@details@spdlog@@@details@spdlog@@@std@@$0A@@?$unique_ptr@Vflag_formatter@details@spdlog@@U?$default_delete@Vflag_formatter@details@spdlog@@@std@@@std@@QEAA@$$QEAV?$unique_ptr@V?$R_formatter@Vscoped_padder@details@spdlog@@@details@spdlog@@U?$default_delete@V?$R_formatter@Vscoped_padder@details@spdlog@@@details@spdlog@@@std@@@1@@Z
	??$?0V?$S_formatter@Unull_scoped_padder@details@spdlog@@@details@spdlog@@$0A@@?$default_delete@Vflag_formatter@details@spdlog@@@std@@QEAA@AEBU?$default_delete@V?$S_formatter@Unull_scoped_padder@details@spdlog@@@details@spdlog@@@1@@Z
	??$?0V?$S_formatter@Unull_scoped_padder@details@spdlog@@@details@spdlog@@U?$default_delete@V?$S_formatter@Unull_scoped_padder@details@spdlog@@@details@spdlog@@@std@@$0A@@?$unique_ptr@Vflag_formatter@details@spdlog@@U?$default_delete@Vflag_formatter@details@spdlog@@@std@@@std@@QEAA@$$QEAV?$unique_ptr@V?$S_formatter@Unull_scoped_padder@details@spdlog@@@details@spdlog@@U?$default_delete@V?$S_formatter@Unull_scoped_padder@details@spdlog@@@details@spdlog@@@std@@@1@@Z
	??$?0V?$S_formatter@Vscoped_padder@details@spdlog@@@details@spdlog@@$0A@@?$default_delete@Vflag_formatter@details@spdlog@@@std@@QEAA@AEBU?$default_delete@V?$S_formatter@Vscoped_padder@details@spdlog@@@details@spdlog@@@1@@Z
	??$?0V?$S_formatter@Vscoped_padder@details@spdlog@@@details@spdlog@@U?$default_delete@V?$S_formatter@Vscoped_padder@details@spdlog@@@details@spdlog@@@std@@$0A@@?$unique_ptr@Vflag_formatter@details@spdlog@@U?$default_delete@Vflag_formatter@details@spdlog@@@std@@@std@@QEAA@$$QEAV?$unique_ptr@V?$S_formatter@Vscoped_padder@details@spdlog@@@details@spdlog@@U?$default_delete@V?$S_formatter@Vscoped_padder@details@spdlog@@@details@spdlog@@@std@@@1@@Z
	??$?0V?$T_formatter@Unull_scoped_padder@details@spdlog@@@details@spdlog@@$0A@@?$default_delete@Vflag_formatter@details@spdlog@@@std@@QEAA@AEBU?$default_delete@V?$T_formatter@Unull_scoped_padder@details@spdlog@@@details@spdlog@@@1@@Z
	??$?0V?$T_formatter@Unull_scoped_padder@details@spdlog@@@details@spdlog@@U?$default_delete@V?$T_formatter@Unull_scoped_padder@details@spdlog@@@details@spdlog@@@std@@$0A@@?$unique_ptr@Vflag_formatter@details@spdlog@@U?$default_delete@Vflag_formatter@details@spdlog@@@std@@@std@@QEAA@$$QEAV?$unique_ptr@V?$T_formatter@Unull_scoped_padder@details@spdlog@@@details@spdlog@@U?$default_delete@V?$T_formatter@Unull_scoped_padder@details@spdlog@@@details@spdlog@@@std@@@1@@Z
	??$?0V?$T_formatter@Vscoped_padder@details@spdlog@@@details@spdlog@@$0A@@?$default_delete@Vflag_formatter@details@spdlog@@@std@@QEAA@AEBU?$default_delete@V?$T_formatter@Vscoped_padder@details@spdlog@@@details@spdlog@@@1@@Z
	??$?0V?$T_formatter@Vscoped_padder@details@spdlog@@@details@spdlog@@U?$default_delete@V?$T_formatter@Vscoped_padder@details@spdlog@@@details@spdlog@@@std@@$0A@@?$unique_ptr@Vflag_formatter@details@spdlog@@U?$default_delete@Vflag_formatter@details@spdlog@@@std@@@std@@QEAA@$$QEAV?$unique_ptr@V?$T_formatter@Vscoped_padder@details@spdlog@@@details@spdlog@@U?$default_delete@V?$T_formatter@Vscoped_padder@details@spdlog@@@details@spdlog@@@std@@@1@@Z
	??$?0V?$Y_formatter@Unull_scoped_padder@details@spdlog@@@details@spdlog@@$0A@@?$default_delete@Vflag_formatter@details@spdlog@@@std@@QEAA@AEBU?$default_delete@V?$Y_formatter@Unull_scoped_padder@details@spdlog@@@details@spdlog@@@1@@Z
	??$?0V?$Y_formatter@Unull_scoped_padder@details@spdlog@@@details@spdlog@@U?$default_delete@V?$Y_formatter@Unull_scoped_padder@details@spdlog@@@details@spdlog@@@std@@$0A@@?$unique_ptr@Vflag_formatter@details@spdlog@@U?$default_delete@Vflag_formatter@details@spdlog@@@std@@@std@@QEAA@$$QEAV?$unique_ptr@V?$Y_formatter@Unull_scoped_padder@details@spdlog@@@details@spdlog@@U?$default_delete@V?$Y_formatter@Unull_scoped_padder@details@spdlog@@@details@spdlog@@@std@@@1@@Z
	??$?0V?$Y_formatter@Vscoped_padder@details@spdlog@@@details@spdlog@@$0A@@?$default_delete@Vflag_formatter@details@spdlog@@@std@@QEAA@AEBU?$default_delete@V?$Y_formatter@Vscoped_padder@details@spdlog@@@details@spdlog@@@1@@Z
	??$?0V?$Y_formatter@Vscoped_padder@details@spdlog@@@details@spdlog@@U?$default_delete@V?$Y_formatter@Vscoped_padder@details@spdlog@@@details@spdlog@@@std@@$0A@@?$unique_ptr@Vflag_formatter@details@spdlog@@U?$default_delete@Vflag_formatter@details@spdlog@@@std@@@std@@QEAA@$$QEAV?$unique_ptr@V?$Y_formatter@Vscoped_padder@details@spdlog@@@details@spdlog@@U?$default_delete@V?$Y_formatter@Vscoped_padder@details@spdlog@@@details@spdlog@@@std@@@1@@Z
	??$?0V?$_Binder@U_Unforced@std@@P8Application@Engine@@EAAXAEAVEvent@4@@ZPEAV34@AEBU?$_Ph@$00@2@@std@@$0A@@?$_Func_impl_no_alloc@V?$_Binder@U_Unforced@std@@P8Application@Engine@@EAAXAEAVEvent@4@@ZPEAV34@AEBU?$_Ph@$00@2@@std@@XAEAVEvent@Engine@@@std@@QEAA@$$QEAV?$_Binder@U_Unforced@std@@P8Application@Engine@@EAAXAEAVEvent@4@@ZPEAV34@AEBU?$_Ph@$00@2@@1@@Z
	??$?0V?$_Binder@U_Unforced@std@@P8Application@Engine@@EAAXAEAVEvent@4@@ZPEAV34@AEBU?$_Ph@$00@2@@std@@$0A@@?$function@$$A6AXAEAVEvent@Engine@@@Z@std@@QEAA@$$QEAV?$_Binder@U_Unforced@std@@P8Application@Engine@@EAAXAEAVEvent@4@@ZPEAV34@AEBU?$_Ph@$00@2@@1@@Z
	??$?0V?$_Binder@U_Unforced@std@@P8Application@Engine@@EAA_NAEAVWindowCloseEvent@4@@ZPEAV34@AEBU?$_Ph@$00@2@@std@@$0A@@?$_Func_impl_no_alloc@V?$_Binder@U_Unforced@std@@P8Application@Engine@@EAA_NAEAVWindowCloseEvent@4@@ZPEAV34@AEBU?$_Ph@$00@2@@std@@_NAEAVWindowCloseEvent@Engine@@@std@@QEAA@$$QEAV?$_Binder@U_Unforced@std@@P8Application@Engine@@EAA_NAEAVWindowCloseEvent@4@@ZPEAV34@AEBU?$_Ph@$00@2@@1@@Z
	??$?0V?$_Binder@U_Unforced@std@@P8Application@Engine@@EAA_NAEAVWindowCloseEvent@4@@ZPEAV34@AEBU?$_Ph@$00@2@@std@@$0A@@?$function@$$A6A_NAEAVWindowCloseEvent@Engine@@@Z@std@@QEAA@$$QEAV?$_Binder@U_Unforced@std@@P8Application@Engine@@EAA_NAEAVWindowCloseEvent@4@@ZPEAV34@AEBU?$_Ph@$00@2@@1@@Z
	??$?0V?$_Binder@U_Unforced@std@@P8ImGuiLayer@Engine@@EAA_NAEAVKeyPressedEvent@4@@ZPEAV34@AEBU?$_Ph@$00@2@@std@@$0A@@?$_Func_impl_no_alloc@V?$_Binder@U_Unforced@std@@P8ImGuiLayer@Engine@@EAA_NAEAVKeyPressedEvent@4@@ZPEAV34@AEBU?$_Ph@$00@2@@std@@_NAEAVKeyPressedEvent@Engine@@@std@@QEAA@$$QEAV?$_Binder@U_Unforced@std@@P8ImGuiLayer@Engine@@EAA_NAEAVKeyPressedEvent@4@@ZPEAV34@AEBU?$_Ph@$00@2@@1@@Z
	??$?0V?$_Binder@U_Unforced@std@@P8ImGuiLayer@Engine@@EAA_NAEAVKeyPressedEvent@4@@ZPEAV34@AEBU?$_Ph@$00@2@@std@@$0A@@?$function@$$A6A_NAEAVKeyPressedEvent@Engine@@@Z@std@@QEAA@$$QEAV?$_Binder@U_Unforced@std@@P8ImGuiLayer@Engine@@EAA_NAEAVKeyPressedEvent@4@@ZPEAV34@AEBU?$_Ph@$00@2@@1@@Z
	??$?0V?$_Binder@U_Unforced@std@@P8ImGuiLayer@Engine@@EAA_NAEAVKeyReleasedEvent@4@@ZPEAV34@AEBU?$_Ph@$00@2@@std@@$0A@@?$_Func_impl_no_alloc@V?$_Binder@U_Unforced@std@@P8ImGuiLayer@Engine@@EAA_NAEAVKeyReleasedEvent@4@@ZPEAV34@AEBU?$_Ph@$00@2@@std@@_NAEAVKeyReleasedEvent@Engine@@@std@@QEAA@$$QEAV?$_Binder@U_Unforced@std@@P8ImGuiLayer@Engine@@EAA_NAEAVKeyReleasedEvent@4@@ZPEAV34@AEBU?$_Ph@$00@2@@1@@Z
	??$?0V?$_Binder@U_Unforced@std@@P8ImGuiLayer@Engine@@EAA_NAEAVKeyReleasedEvent@4@@ZPEAV34@AEBU?$_Ph@$00@2@@std@@$0A@@?$function@$$A6A_NAEAVKeyReleasedEvent@Engine@@@Z@std@@QEAA@$$QEAV?$_Binder@U_Unforced@std@@P8ImGuiLayer@Engine@@EAA_NAEAVKeyReleasedEvent@4@@ZPEAV34@AEBU?$_Ph@$00@2@@1@@Z
	??$?0V?$_Binder@U_Unforced@std@@P8ImGuiLayer@Engine@@EAA_NAEAVKeyTypedEvent@4@@ZPEAV34@AEBU?$_Ph@$00@2@@std@@$0A@@?$_Func_impl_no_alloc@V?$_Binder@U_Unforced@std@@P8ImGuiLayer@Engine@@EAA_NAEAVKeyTypedEvent@4@@ZPEAV34@AEBU?$_Ph@$00@2@@std@@_NAEAVKeyTypedEvent@Engine@@@std@@QEAA@$$QEAV?$_Binder@U_Unforced@std@@P8ImGuiLayer@Engine@@EAA_NAEAVKeyTypedEvent@4@@ZPEAV34@AEBU?$_Ph@$00@2@@1@@Z
	??$?0V?$_Binder@U_Unforced@std@@P8ImGuiLayer@Engine@@EAA_NAEAVKeyTypedEvent@4@@ZPEAV34@AEBU?$_Ph@$00@2@@std@@$0A@@?$function@$$A6A_NAEAVKeyTypedEvent@Engine@@@Z@std@@QEAA@$$QEAV?$_Binder@U_Unforced@std@@P8ImGuiLayer@Engine@@EAA_NAEAVKeyTypedEvent@4@@ZPEAV34@AEBU?$_Ph@$00@2@@1@@Z
	??$?0V?$_Binder@U_Unforced@std@@P8ImGuiLayer@Engine@@EAA_NAEAVMouseButtonPressedEvent@4@@ZPEAV34@AEBU?$_Ph@$00@2@@std@@$0A@@?$_Func_impl_no_alloc@V?$_Binder@U_Unforced@std@@P8ImGuiLayer@Engine@@EAA_NAEAVMouseButtonPressedEvent@4@@ZPEAV34@AEBU?$_Ph@$00@2@@std@@_NAEAVMouseButtonPressedEvent@Engine@@@std@@QEAA@$$QEAV?$_Binder@U_Unforced@std@@P8ImGuiLayer@Engine@@EAA_NAEAVMouseButtonPressedEvent@4@@ZPEAV34@AEBU?$_Ph@$00@2@@1@@Z
	??$?0V?$_Binder@U_Unforced@std@@P8ImGuiLayer@Engine@@EAA_NAEAVMouseButtonPressedEvent@4@@ZPEAV34@AEBU?$_Ph@$00@2@@std@@$0A@@?$function@$$A6A_NAEAVMouseButtonPressedEvent@Engine@@@Z@std@@QEAA@$$QEAV?$_Binder@U_Unforced@std@@P8ImGuiLayer@Engine@@EAA_NAEAVMouseButtonPressedEvent@4@@ZPEAV34@AEBU?$_Ph@$00@2@@1@@Z
	??$?0V?$_Binder@U_Unforced@std@@P8ImGuiLayer@Engine@@EAA_NAEAVMouseButtonReleasedEvent@4@@ZPEAV34@AEBU?$_Ph@$00@2@@std@@$0A@@?$_Func_impl_no_alloc@V?$_Binder@U_Unforced@std@@P8ImGuiLayer@Engine@@EAA_NAEAVMouseButtonReleasedEvent@4@@ZPEAV34@AEBU?$_Ph@$00@2@@std@@_NAEAVMouseButtonReleasedEvent@Engine@@@std@@QEAA@$$QEAV?$_Binder@U_Unforced@std@@P8ImGuiLayer@Engine@@EAA_NAEAVMouseButtonReleasedEvent@4@@ZPEAV34@AEBU?$_Ph@$00@2@@1@@Z
	??$?0V?$_Binder@U_Unforced@std@@P8ImGuiLayer@Engine@@EAA_NAEAVMouseButtonReleasedEvent@4@@ZPEAV34@AEBU?$_Ph@$00@2@@std@@$0A@@?$function@$$A6A_NAEAVMouseButtonReleasedEvent@Engine@@@Z@std@@QEAA@$$QEAV?$_Binder@U_Unforced@std@@P8ImGuiLayer@Engine@@EAA_NAEAVMouseButtonReleasedEvent@4@@ZPEAV34@AEBU?$_Ph@$00@2@@1@@Z
	??$?0V?$_Binder@U_Unforced@std@@P8ImGuiLayer@Engine@@EAA_NAEAVMouseMovedEvent@4@@ZPEAV34@AEBU?$_Ph@$00@2@@std@@$0A@@?$_Func_impl_no_alloc@V?$_Binder@U_Unforced@std@@P8ImGuiLayer@Engine@@EAA_NAEAVMouseMovedEvent@4@@ZPEAV34@AEBU?$_Ph@$00@2@@std@@_NAEAVMouseMovedEvent@Engine@@@std@@QEAA@$$QEAV?$_Binder@U_Unforced@std@@P8ImGuiLayer@Engine@@EAA_NAEAVMouseMovedEvent@4@@ZPEAV34@AEBU?$_Ph@$00@2@@1@@Z
	??$?0V?$_Binder@U_Unforced@std@@P8ImGuiLayer@Engine@@EAA_NAEAVMouseMovedEvent@4@@ZPEAV34@AEBU?$_Ph@$00@2@@std@@$0A@@?$function@$$A6A_NAEAVMouseMovedEvent@Engine@@@Z@std@@QEAA@$$QEAV?$_Binder@U_Unforced@std@@P8ImGuiLayer@Engine@@EAA_NAEAVMouseMovedEvent@4@@ZPEAV34@AEBU?$_Ph@$00@2@@1@@Z
	??$?0V?$_Binder@U_Unforced@std@@P8ImGuiLayer@Engine@@EAA_NAEAVMouseScrolledEvent@4@@ZPEAV34@AEBU?$_Ph@$00@2@@std@@$0A@@?$_Func_impl_no_alloc@V?$_Binder@U_Unforced@std@@P8ImGuiLayer@Engine@@EAA_NAEAVMouseScrolledEvent@4@@ZPEAV34@AEBU?$_Ph@$00@2@@std@@_NAEAVMouseScrolledEvent@Engine@@@std@@QEAA@$$QEAV?$_Binder@U_Unforced@std@@P8ImGuiLayer@Engine@@EAA_NAEAVMouseScrolledEvent@4@@ZPEAV34@AEBU?$_Ph@$00@2@@1@@Z
	??$?0V?$_Binder@U_Unforced@std@@P8ImGuiLayer@Engine@@EAA_NAEAVMouseScrolledEvent@4@@ZPEAV34@AEBU?$_Ph@$00@2@@std@@$0A@@?$function@$$A6A_NAEAVMouseScrolledEvent@Engine@@@Z@std@@QEAA@$$QEAV?$_Binder@U_Unforced@std@@P8ImGuiLayer@Engine@@EAA_NAEAVMouseScrolledEvent@4@@ZPEAV34@AEBU?$_Ph@$00@2@@1@@Z
	??$?0V?$_Binder@U_Unforced@std@@P8ImGuiLayer@Engine@@EAA_NAEAVWindowResizeEvent@4@@ZPEAV34@AEBU?$_Ph@$00@2@@std@@$0A@@?$_Func_impl_no_alloc@V?$_Binder@U_Unforced@std@@P8ImGuiLayer@Engine@@EAA_NAEAVWindowResizeEvent@4@@ZPEAV34@AEBU?$_Ph@$00@2@@std@@_NAEAVWindowResizeEvent@Engine@@@std@@QEAA@$$QEAV?$_Binder@U_Unforced@std@@P8ImGuiLayer@Engine@@EAA_NAEAVWindowResizeEvent@4@@ZPEAV34@AEBU?$_Ph@$00@2@@1@@Z
	??$?0V?$_Binder@U_Unforced@std@@P8ImGuiLayer@Engine@@EAA_NAEAVWindowResizeEvent@4@@ZPEAV34@AEBU?$_Ph@$00@2@@std@@$0A@@?$function@$$A6A_NAEAVWindowResizeEvent@Engine@@@Z@std@@QEAA@$$QEAV?$_Binder@U_Unforced@std@@P8ImGuiLayer@Engine@@EAA_NAEAVWindowResizeEvent@4@@ZPEAV34@AEBU?$_Ph@$00@2@@1@@Z
	??$?0V?$_List_unchecked_iterator@V?$_List_val@U?$_List_simple_types@U?$pair@$$CBDV?$unique_ptr@Vcustom_flag_formatter@spdlog@@U?$default_delete@Vcustom_flag_formatter@spdlog@@@std@@@std@@@std@@@std@@@std@@@std@@@?$allocator@U_Container_proxy@std@@@std@@QEAA@AEBV?$allocator@V?$_List_unchecked_iterator@V?$_List_val@U?$_List_simple_types@U?$pair@$$CBDV?$unique_ptr@Vcustom_flag_formatter@spdlog@@U?$default_delete@Vcustom_flag_formatter@spdlog@@@std@@@std@@@std@@@std@@@std@@@std@@@1@@Z
	??$?0V?$_List_unchecked_iterator@V?$_List_val@U?$_List_simple_types@U?$pair@$$CBV?$basic_string@DU?$char_traits@D@std@@V?$allocator@D@2@@std@@V?$shared_ptr@Vlogger@spdlog@@@2@@std@@@std@@@std@@@std@@@?$allocator@U_Container_proxy@std@@@std@@QEAA@AEBV?$allocator@V?$_List_unchecked_iterator@V?$_List_val@U?$_List_simple_types@U?$pair@$$CBV?$basic_string@DU?$char_traits@D@std@@V?$allocator@D@2@@std@@V?$shared_ptr@Vlogger@spdlog@@@2@@std@@@std@@@std@@@std@@@1@@Z
	??$?0V?$_List_unchecked_iterator@V?$_List_val@U?$_List_simple_types@U?$pair@$$CBV?$basic_string@DU?$char_traits@D@std@@V?$allocator@D@2@@std@@W4level_enum@level@spdlog@@@std@@@std@@@std@@@std@@@?$allocator@U_Container_proxy@std@@@std@@QEAA@AEBV?$allocator@V?$_List_unchecked_iterator@V?$_List_val@U?$_List_simple_types@U?$pair@$$CBV?$basic_string@DU?$char_traits@D@std@@V?$allocator@D@2@@std@@W4level_enum@level@spdlog@@@std@@@std@@@std@@@std@@@1@@Z
	??$?0V?$a_formatter@Unull_scoped_padder@details@spdlog@@@details@spdlog@@$0A@@?$default_delete@Vflag_formatter@details@spdlog@@@std@@QEAA@AEBU?$default_delete@V?$a_formatter@Unull_scoped_padder@details@spdlog@@@details@spdlog@@@1@@Z
	??$?0V?$a_formatter@Unull_scoped_padder@details@spdlog@@@details@spdlog@@U?$default_delete@V?$a_formatter@Unull_scoped_padder@details@spdlog@@@details@spdlog@@@std@@$0A@@?$unique_ptr@Vflag_formatter@details@spdlog@@U?$default_delete@Vflag_formatter@details@spdlog@@@std@@@std@@QEAA@$$QEAV?$unique_ptr@V?$a_formatter@Unull_scoped_padder@details@spdlog@@@details@spdlog@@U?$default_delete@V?$a_formatter@Unull_scoped_padder@details@spdlog@@@details@spdlog@@@std@@@1@@Z
	??$?0V?$a_formatter@Vscoped_padder@details@spdlog@@@details@spdlog@@$0A@@?$default_delete@Vflag_formatter@details@spdlog@@@std@@QEAA@AEBU?$default_delete@V?$a_formatter@Vscoped_padder@details@spdlog@@@details@spdlog@@@1@@Z
	??$?0V?$a_formatter@Vscoped_padder@details@spdlog@@@details@spdlog@@U?$default_delete@V?$a_formatter@Vscoped_padder@details@spdlog@@@details@spdlog@@@std@@$0A@@?$unique_ptr@Vflag_formatter@details@spdlog@@U?$default_delete@Vflag_formatter@details@spdlog@@@std@@@std@@QEAA@$$QEAV?$unique_ptr@V?$a_formatter@Vscoped_padder@details@spdlog@@@details@spdlog@@U?$default_delete@V?$a_formatter@Vscoped_padder@details@spdlog@@@details@spdlog@@@std@@@1@@Z
	??$?0V?$allocator@D@std@@$$V@?$_Compressed_pair@V?$allocator@D@std@@V?$_String_val@U?$_Simple_types@D@std@@@2@$00@std@@QEAA@U_One_then_variadic_args_t@1@$$QEAV?$allocator@D@1@@Z
	??$?0V?$allocator@PEAVLayer@Engine@@@std@@$$V@?$_Compressed_pair@V?$allocator@PEAVLayer@Engine@@@std@@V?$_Vector_val@U?$_Simple_types@PEAVLayer@Engine@@@std@@@2@$00@std@@QEAA@U_One_then_variadic_args_t@1@$$QEAV?$allocator@PEAVLayer@Engine@@@1@@Z
	??$?0V?$allocator@U?$_List_node@U?$pair@$$CBDV?$unique_ptr@Vcustom_flag_formatter@spdlog@@U?$default_delete@Vcustom_flag_formatter@spdlog@@@std@@@std@@@std@@PEAX@std@@@std@@$$V@?$_Compressed_pair@V?$allocator@U?$_List_node@U?$pair@$$CBDV?$unique_ptr@Vcustom_flag_formatter@spdlog@@U?$default_delete@Vcustom_flag_formatter@spdlog@@@std@@@std@@@std@@PEAX@std@@@std@@V?$_List_val@U?$_List_simple_types@U?$pair@$$CBDV?$unique_ptr@Vcustom_flag_formatter@spdlog@@U?$default_delete@Vcustom_flag_formatter@spdlog@@@std@@@std@@@std@@@std@@@2@$00@std@@QEAA@U_One_then_variadic_args_t@1@$$QEAV?$allocator@U?$_List_node@U?$pair@$$CBDV?$unique_ptr@Vcustom_flag_formatter@spdlog@@U?$default_delete@Vcustom_flag_formatter@spdlog@@@std@@@std@@@std@@PEAX@std@@@1@@Z
	??$?0V?$allocator@U?$_List_node@U?$pair@$$CBDV?$unique_ptr@Vcustom_flag_formatter@spdlog@@U?$default_delete@Vcustom_flag_formatter@spdlog@@@std@@@std@@@std@@PEAX@std@@@std@@@?$list@U?$pair@$$CBDV?$unique_ptr@Vcustom_flag_formatter@spdlog@@U?$default_delete@Vcustom_flag_formatter@spdlog@@@std@@@std@@@std@@V?$allocator@U?$pair@$$CBDV?$unique_ptr@Vcustom_flag_formatter@spdlog@@U?$default_delete@Vcustom_flag_formatter@spdlog@@@std@@@std@@@std@@@2@@std@@AEAA@U_Move_allocator_tag@1@AEAV?$allocator@U?$_List_node@U?$pair@$$CBDV?$unique_ptr@Vcustom_flag_formatter@spdlog@@U?$default_delete@Vcustom_flag_formatter@spdlog@@@std@@@std@@@std@@PEAX@std@@@1@@Z
	??$?0V?$allocator@V?$_List_unchecked_iterator@V?$_List_val@U?$_List_simple_types@U?$pair@$$CBDV?$unique_ptr@Vcustom_flag_formatter@spdlog@@U?$default_delete@Vcustom_flag_formatter@spdlog@@@std@@@std@@@std@@@std@@@std@@@std@@@std@@$$V@?$_Compressed_pair@V?$allocator@V?$_List_unchecked_iterator@V?$_List_val@U?$_List_simple_types@U?$pair@$$CBDV?$unique_ptr@Vcustom_flag_formatter@spdlog@@U?$default_delete@Vcustom_flag_formatter@spdlog@@@std@@@std@@@std@@@std@@@std@@@std@@@std@@V?$_Vector_val@U?$_Simple_types@V?$_List_unchecked_iterator@V?$_List_val@U?$_List_simple_types@U?$pair@$$CBDV?$unique_ptr@Vcustom_flag_formatter@spdlog@@U?$default_delete@Vcustom_flag_formatter@spdlog@@@std@@@std@@@std@@@std@@@std@@@std@@@std@@@2@$00@std@@QEAA@U_One_then_variadic_args_t@1@$$QEAV?$allocator@V?$_List_unchecked_iterator@V?$_List_val@U?$_List_simple_types@U?$pair@$$CBDV?$unique_ptr@Vcustom_flag_formatter@spdlog@@U?$default_delete@Vcustom_flag_formatter@spdlog@@@std@@@std@@@std@@@std@@@std@@@std@@@1@@Z
	??$?0V?$allocator@V?$_List_unchecked_iterator@V?$_List_val@U?$_List_simple_types@U?$pair@$$CBDV?$unique_ptr@Vcustom_flag_formatter@spdlog@@U?$default_delete@Vcustom_flag_formatter@spdlog@@@std@@@std@@@std@@@std@@@std@@@std@@@std@@$0A@@?$_Hash_vec@V?$allocator@V?$_List_unchecked_iterator@V?$_List_val@U?$_List_simple_types@U?$pair@$$CBDV?$unique_ptr@Vcustom_flag_formatter@spdlog@@U?$default_delete@Vcustom_flag_formatter@spdlog@@@std@@@std@@@std@@@std@@@std@@@std@@@std@@@std@@QEAA@$$QEAV?$allocator@V?$_List_unchecked_iterator@V?$_List_val@U?$_List_simple_types@U?$pair@$$CBDV?$unique_ptr@Vcustom_flag_formatter@spdlog@@U?$default_delete@Vcustom_flag_formatter@spdlog@@@std@@@std@@@std@@@std@@@std@@@std@@@1@@Z
	??$?0V?$allocator@V?$shared_ptr@Vsink@sinks@spdlog@@@std@@@std@@$$V@?$_Compressed_pair@V?$allocator@V?$shared_ptr@Vsink@sinks@spdlog@@@std@@@std@@V?$_Vector_val@U?$_Simple_types@V?$shared_ptr@Vsink@sinks@spdlog@@@std@@@std@@@2@$00@std@@QEAA@U_One_then_variadic_args_t@1@$$QEAV?$allocator@V?$shared_ptr@Vsink@sinks@spdlog@@@std@@@1@@Z
	??$?0V?$b_formatter@Unull_scoped_padder@details@spdlog@@@details@spdlog@@$0A@@?$default_delete@Vflag_formatter@details@spdlog@@@std@@QEAA@AEBU?$default_delete@V?$b_formatter@Unull_scoped_padder@details@spdlog@@@details@spdlog@@@1@@Z
	??$?0V?$b_formatter@Unull_scoped_padder@details@spdlog@@@details@spdlog@@U?$default_delete@V?$b_formatter@Unull_scoped_padder@details@spdlog@@@details@spdlog@@@std@@$0A@@?$unique_ptr@Vflag_formatter@details@spdlog@@U?$default_delete@Vflag_formatter@details@spdlog@@@std@@@std@@QEAA@$$QEAV?$unique_ptr@V?$b_formatter@Unull_scoped_padder@details@spdlog@@@details@spdlog@@U?$default_delete@V?$b_formatter@Unull_scoped_padder@details@spdlog@@@details@spdlog@@@std@@@1@@Z
	??$?0V?$b_formatter@Vscoped_padder@details@spdlog@@@details@spdlog@@$0A@@?$default_delete@Vflag_formatter@details@spdlog@@@std@@QEAA@AEBU?$default_delete@V?$b_formatter@Vscoped_padder@details@spdlog@@@details@spdlog@@@1@@Z
	??$?0V?$b_formatter@Vscoped_padder@details@spdlog@@@details@spdlog@@U?$default_delete@V?$b_formatter@Vscoped_padder@details@spdlog@@@details@spdlog@@@std@@$0A@@?$unique_ptr@Vflag_formatter@details@spdlog@@U?$default_delete@Vflag_formatter@details@spdlog@@@std@@@std@@QEAA@$$QEAV?$unique_ptr@V?$b_formatter@Vscoped_padder@details@spdlog@@@details@spdlog@@U?$default_delete@V?$b_formatter@Vscoped_padder@details@spdlog@@@details@spdlog@@@std@@@1@@Z
	??$?0V?$basic_string@DU?$char_traits@D@std@@V?$allocator@D@2@@std@@$$V$0A@@?$tuple@$$QEAV?$basic_string@DU?$char_traits@D@std@@V?$allocator@D@2@@std@@@std@@QEAA@$$QEAV?$basic_string@DU?$char_traits@D@std@@V?$allocator@D@2@@1@@Z
	??$?0V?$basic_string@DU?$char_traits@D@std@@V?$allocator@D@2@@std@@@?$_Tuple_val@$$QEAV?$basic_string@DU?$char_traits@D@std@@V?$allocator@D@2@@std@@@std@@QEAA@$$QEAV?$basic_string@DU?$char_traits@D@std@@V?$allocator@D@2@@1@@Z
	??$?0V?$basic_string@DU?$char_traits@D@std@@V?$allocator@D@2@@std@@II@?$basic_format_args@V?$basic_format_context@Vappender@v9@fmt@@D@v9@fmt@@@v9@fmt@@QEAA@AEBV?$format_arg_store@V?$basic_format_context@Vappender@v9@fmt@@D@v9@fmt@@V?$basic_string@DU?$char_traits@D@std@@V?$allocator@D@2@@std@@II@12@@Z
	??$?0V?$basic_string@DU?$char_traits@D@std@@V?$allocator@D@2@@std@@V?$shared_ptr@V?$wincolor_stdout_sink@Uconsole_mutex@details@spdlog@@@sinks@spdlog@@@1@@?$_Ref_count_obj2@Vlogger@spdlog@@@std@@QEAA@$$QEAV?$basic_string@DU?$char_traits@D@std@@V?$allocator@D@2@@1@$$QEAV?$shared_ptr@V?$wincolor_stdout_sink@Uconsole_mutex@details@spdlog@@@sinks@spdlog@@@1@@Z
	??$?0V?$basic_string_view@D@v9@fmt@@$$BY02D@?$basic_format_args@V?$basic_format_context@Vappender@v9@fmt@@D@v9@fmt@@@v9@fmt@@QEAA@AEBV?$format_arg_store@V?$basic_format_context@Vappender@v9@fmt@@D@v9@fmt@@V?$basic_string_view@D@23@$$BY02D@12@@Z
	??$?0V?$c_formatter@Unull_scoped_padder@details@spdlog@@@details@spdlog@@$0A@@?$default_delete@Vflag_formatter@details@spdlog@@@std@@QEAA@AEBU?$default_delete@V?$c_formatter@Unull_scoped_padder@details@spdlog@@@details@spdlog@@@1@@Z
	??$?0V?$c_formatter@Unull_scoped_padder@details@spdlog@@@details@spdlog@@U?$default_delete@V?$c_formatter@Unull_scoped_padder@details@spdlog@@@details@spdlog@@@std@@$0A@@?$unique_ptr@Vflag_formatter@details@spdlog@@U?$default_delete@Vflag_formatter@details@spdlog@@@std@@@std@@QEAA@$$QEAV?$unique_ptr@V?$c_formatter@Unull_scoped_padder@details@spdlog@@@details@spdlog@@U?$default_delete@V?$c_formatter@Unull_scoped_padder@details@spdlog@@@details@spdlog@@@std@@@1@@Z
	??$?0V?$c_formatter@Vscoped_padder@details@spdlog@@@details@spdlog@@$0A@@?$default_delete@Vflag_formatter@details@spdlog@@@std@@QEAA@AEBU?$default_delete@V?$c_formatter@Vscoped_padder@details@spdlog@@@details@spdlog@@@1@@Z
	??$?0V?$c_formatter@Vscoped_padder@details@spdlog@@@details@spdlog@@U?$default_delete@V?$c_formatter@Vscoped_padder@details@spdlog@@@details@spdlog@@@std@@$0A@@?$unique_ptr@Vflag_formatter@details@spdlog@@U?$default_delete@Vflag_formatter@details@spdlog@@@std@@@std@@QEAA@$$QEAV?$unique_ptr@V?$c_formatter@Vscoped_padder@details@spdlog@@@details@spdlog@@U?$default_delete@V?$c_formatter@Vscoped_padder@details@spdlog@@@details@spdlog@@@std@@@1@@Z
	??$?0V?$d_formatter@Unull_scoped_padder@details@spdlog@@@details@spdlog@@$0A@@?$default_delete@Vflag_formatter@details@spdlog@@@std@@QEAA@AEBU?$default_delete@V?$d_formatter@Unull_scoped_padder@details@spdlog@@@details@spdlog@@@1@@Z
	??$?0V?$d_formatter@Unull_scoped_padder@details@spdlog@@@details@spdlog@@U?$default_delete@V?$d_formatter@Unull_scoped_padder@details@spdlog@@@details@spdlog@@@std@@$0A@@?$unique_ptr@Vflag_formatter@details@spdlog@@U?$default_delete@Vflag_formatter@details@spdlog@@@std@@@std@@QEAA@$$QEAV?$unique_ptr@V?$d_formatter@Unull_scoped_padder@details@spdlog@@@details@spdlog@@U?$default_delete@V?$d_formatter@Unull_scoped_padder@details@spdlog@@@details@spdlog@@@std@@@1@@Z
	??$?0V?$d_formatter@Vscoped_padder@details@spdlog@@@details@spdlog@@$0A@@?$default_delete@Vflag_formatter@details@spdlog@@@std@@QEAA@AEBU?$default_delete@V?$d_formatter@Vscoped_padder@details@spdlog@@@details@spdlog@@@1@@Z
	??$?0V?$d_formatter@Vscoped_padder@details@spdlog@@@details@spdlog@@U?$default_delete@V?$d_formatter@Vscoped_padder@details@spdlog@@@details@spdlog@@@std@@$0A@@?$unique_ptr@Vflag_formatter@details@spdlog@@U?$default_delete@Vflag_formatter@details@spdlog@@@std@@@std@@QEAA@$$QEAV?$unique_ptr@V?$d_formatter@Vscoped_padder@details@spdlog@@@details@spdlog@@U?$default_delete@V?$d_formatter@Vscoped_padder@details@spdlog@@@details@spdlog@@@std@@@1@@Z
	??$?0V?$e_formatter@Unull_scoped_padder@details@spdlog@@@details@spdlog@@$0A@@?$default_delete@Vflag_formatter@details@spdlog@@@std@@QEAA@AEBU?$default_delete@V?$e_formatter@Unull_scoped_padder@details@spdlog@@@details@spdlog@@@1@@Z
	??$?0V?$e_formatter@Unull_scoped_padder@details@spdlog@@@details@spdlog@@U?$default_delete@V?$e_formatter@Unull_scoped_padder@details@spdlog@@@details@spdlog@@@std@@$0A@@?$unique_ptr@Vflag_formatter@details@spdlog@@U?$default_delete@Vflag_formatter@details@spdlog@@@std@@@std@@QEAA@$$QEAV?$unique_ptr@V?$e_formatter@Unull_scoped_padder@details@spdlog@@@details@spdlog@@U?$default_delete@V?$e_formatter@Unull_scoped_padder@details@spdlog@@@details@spdlog@@@std@@@1@@Z
	??$?0V?$e_formatter@Vscoped_padder@details@spdlog@@@details@spdlog@@$0A@@?$default_delete@Vflag_formatter@details@spdlog@@@std@@QEAA@AEBU?$default_delete@V?$e_formatter@Vscoped_padder@details@spdlog@@@details@spdlog@@@1@@Z
	??$?0V?$e_formatter@Vscoped_padder@details@spdlog@@@details@spdlog@@U?$default_delete@V?$e_formatter@Vscoped_padder@details@spdlog@@@details@spdlog@@@std@@$0A@@?$unique_ptr@Vflag_formatter@details@spdlog@@U?$default_delete@Vflag_formatter@details@spdlog@@@std@@@std@@QEAA@$$QEAV?$unique_ptr@V?$e_formatter@Vscoped_padder@details@spdlog@@@details@spdlog@@U?$default_delete@V?$e_formatter@Vscoped_padder@details@spdlog@@@details@spdlog@@@std@@@1@@Z
	??$?0V?$elapsed_formatter@Unull_scoped_padder@details@spdlog@@V?$duration@_JU?$ratio@$00$00@std@@@chrono@std@@@details@spdlog@@$0A@@?$default_delete@Vflag_formatter@details@spdlog@@@std@@QEAA@AEBU?$default_delete@V?$elapsed_formatter@Unull_scoped_padder@details@spdlog@@V?$duration@_JU?$ratio@$00$00@std@@@chrono@std@@@details@spdlog@@@1@@Z
	??$?0V?$elapsed_formatter@Unull_scoped_padder@details@spdlog@@V?$duration@_JU?$ratio@$00$00@std@@@chrono@std@@@details@spdlog@@U?$default_delete@V?$elapsed_formatter@Unull_scoped_padder@details@spdlog@@V?$duration@_JU?$ratio@$00$00@std@@@chrono@std@@@details@spdlog@@@std@@$0A@@?$unique_ptr@Vflag_formatter@details@spdlog@@U?$default_delete@Vflag_formatter@details@spdlog@@@std@@@std@@QEAA@$$QEAV?$unique_ptr@V?$elapsed_formatter@Unull_scoped_padder@details@spdlog@@V?$duration@_JU?$ratio@$00$00@std@@@chrono@std@@@details@spdlog@@U?$default_delete@V?$elapsed_formatter@Unull_scoped_padder@details@spdlog@@V?$duration@_JU?$ratio@$00$00@std@@@chrono@std@@@details@spdlog@@@std@@@1@@Z
	??$?0V?$elapsed_formatter@Unull_scoped_padder@details@spdlog@@V?$duration@_JU?$ratio@$00$0DLJKMKAA@@std@@@chrono@std@@@details@spdlog@@$0A@@?$default_delete@Vflag_formatter@details@spdlog@@@std@@QEAA@AEBU?$default_delete@V?$elapsed_formatter@Unull_scoped_padder@details@spdlog@@V?$duration@_JU?$ratio@$00$0DLJKMKAA@@std@@@chrono@std@@@details@spdlog@@@1@@Z
	??$?0V?$elapsed_formatter@Unull_scoped_padder@details@spdlog@@V?$duration@_JU?$ratio@$00$0DLJKMKAA@@std@@@chrono@std@@@details@spdlog@@U?$default_delete@V?$elapsed_formatter@Unull_scoped_padder@details@spdlog@@V?$duration@_JU?$ratio@$00$0DLJKMKAA@@std@@@chrono@std@@@details@spdlog@@@std@@$0A@@?$unique_ptr@Vflag_formatter@details@spdlog@@U?$default_delete@Vflag_formatter@details@spdlog@@@std@@@std@@QEAA@$$QEAV?$unique_ptr@V?$elapsed_formatter@Unull_scoped_padder@details@spdlog@@V?$duration@_JU?$ratio@$00$0DLJKMKAA@@std@@@chrono@std@@@details@spdlog@@U?$default_delete@V?$elapsed_formatter@Unull_scoped_padder@details@spdlog@@V?$duration@_JU?$ratio@$00$0DLJKMKAA@@std@@@chrono@std@@@details@spdlog@@@std@@@1@@Z
	??$?0V?$elapsed_formatter@Unull_scoped_padder@details@spdlog@@V?$duration@_JU?$ratio@$00$0DOI@@std@@@chrono@std@@@details@spdlog@@$0A@@?$default_delete@Vflag_formatter@details@spdlog@@@std@@QEAA@AEBU?$default_delete@V?$elapsed_formatter@Unull_scoped_padder@details@spdlog@@V?$duration@_JU?$ratio@$00$0DOI@@std@@@chrono@std@@@details@spdlog@@@1@@Z
	??$?0V?$elapsed_formatter@Unull_scoped_padder@details@spdlog@@V?$duration@_JU?$ratio@$00$0DOI@@std@@@chrono@std@@@details@spdlog@@U?$default_delete@V?$elapsed_formatter@Unull_scoped_padder@details@spdlog@@V?$duration@_JU?$ratio@$00$0DOI@@std@@@chrono@std@@@details@spdlog@@@std@@$0A@@?$unique_ptr@Vflag_formatter@details@spdlog@@U?$default_delete@Vflag_formatter@details@spdlog@@@std@@@std@@QEAA@$$QEAV?$unique_ptr@V?$elapsed_formatter@Unull_scoped_padder@details@spdlog@@V?$duration@_JU?$ratio@$00$0DOI@@std@@@chrono@std@@@details@spdlog@@U?$default_delete@V?$elapsed_formatter@Unull_scoped_padder@details@spdlog@@V?$duration@_JU?$ratio@$00$0DOI@@std@@@chrono@std@@@details@spdlog@@@std@@@1@@Z
	??$?0V?$elapsed_formatter@Unull_scoped_padder@details@spdlog@@V?$duration@_JU?$ratio@$00$0PECEA@@std@@@chrono@std@@@details@spdlog@@$0A@@?$default_delete@Vflag_formatter@details@spdlog@@@std@@QEAA@AEBU?$default_delete@V?$elapsed_formatter@Unull_scoped_padder@details@spdlog@@V?$duration@_JU?$ratio@$00$0PECEA@@std@@@chrono@std@@@details@spdlog@@@1@@Z
	??$?0V?$elapsed_formatter@Unull_scoped_padder@details@spdlog@@V?$duration@_JU?$ratio@$00$0PECEA@@std@@@chrono@std@@@details@spdlog@@U?$default_delete@V?$elapsed_formatter@Unull_scoped_padder@details@spdlog@@V?$duration@_JU?$ratio@$00$0PECEA@@std@@@chrono@std@@@details@spdlog@@@std@@$0A@@?$unique_ptr@Vflag_formatter@details@spdlog@@U?$default_delete@Vflag_formatter@details@spdlog@@@std@@@std@@QEAA@$$QEAV?$unique_ptr@V?$elapsed_formatter@Unull_scoped_padder@details@spdlog@@V?$duration@_JU?$ratio@$00$0PECEA@@std@@@chrono@std@@@details@spdlog@@U?$default_delete@V?$elapsed_formatter@Unull_scoped_padder@details@spdlog@@V?$duration@_JU?$ratio@$00$0PECEA@@std@@@chrono@std@@@details@spdlog@@@std@@@1@@Z
	??$?0V?$elapsed_formatter@Vscoped_padder@details@spdlog@@V?$duration@_JU?$ratio@$00$00@std@@@chrono@std@@@details@spdlog@@$0A@@?$default_delete@Vflag_formatter@details@spdlog@@@std@@QEAA@AEBU?$default_delete@V?$elapsed_formatter@Vscoped_padder@details@spdlog@@V?$duration@_JU?$ratio@$00$00@std@@@chrono@std@@@details@spdlog@@@1@@Z
	??$?0V?$elapsed_formatter@Vscoped_padder@details@spdlog@@V?$duration@_JU?$ratio@$00$00@std@@@chrono@std@@@details@spdlog@@U?$default_delete@V?$elapsed_formatter@Vscoped_padder@details@spdlog@@V?$duration@_JU?$ratio@$00$00@std@@@chrono@std@@@details@spdlog@@@std@@$0A@@?$unique_ptr@Vflag_formatter@details@spdlog@@U?$default_delete@Vflag_formatter@details@spdlog@@@std@@@std@@QEAA@$$QEAV?$unique_ptr@V?$elapsed_formatter@Vscoped_padder@details@spdlog@@V?$duration@_JU?$ratio@$00$00@std@@@chrono@std@@@details@spdlog@@U?$default_delete@V?$elapsed_formatter@Vscoped_padder@details@spdlog@@V?$duration@_JU?$ratio@$00$00@std@@@chrono@std@@@details@spdlog@@@std@@@1@@Z
	??$?0V?$elapsed_formatter@Vscoped_padder@details@spdlog@@V?$duration@_JU?$ratio@$00$0DLJKMKAA@@std@@@chrono@std@@@details@spdlog@@$0A@@?$default_delete@Vflag_formatter@details@spdlog@@@std@@QEAA@AEBU?$default_delete@V?$elapsed_formatter@Vscoped_padder@details@spdlog@@V?$duration@_JU?$ratio@$00$0DLJKMKAA@@std@@@chrono@std@@@details@spdlog@@@1@@Z
	??$?0V?$elapsed_formatter@Vscoped_padder@details@spdlog@@V?$duration@_JU?$ratio@$00$0DLJKMKAA@@std@@@chrono@std@@@details@spdlog@@U?$default_delete@V?$elapsed_formatter@Vscoped_padder@details@spdlog@@V?$duration@_JU?$ratio@$00$0DLJKMKAA@@std@@@chrono@std@@@details@spdlog@@@std@@$0A@@?$unique_ptr@Vflag_formatter@details@spdlog@@U?$default_delete@Vflag_formatter@details@spdlog@@@std@@@std@@QEAA@$$QEAV?$unique_ptr@V?$elapsed_formatter@Vscoped_padder@details@spdlog@@V?$duration@_JU?$ratio@$00$0DLJKMKAA@@std@@@chrono@std@@@details@spdlog@@U?$default_delete@V?$elapsed_formatter@Vscoped_padder@details@spdlog@@V?$duration@_JU?$ratio@$00$0DLJKMKAA@@std@@@chrono@std@@@details@spdlog@@@std@@@1@@Z
	??$?0V?$elapsed_formatter@Vscoped_padder@details@spdlog@@V?$duration@_JU?$ratio@$00$0DOI@@std@@@chrono@std@@@details@spdlog@@$0A@@?$default_delete@Vflag_formatter@details@spdlog@@@std@@QEAA@AEBU?$default_delete@V?$elapsed_formatter@Vscoped_padder@details@spdlog@@V?$duration@_JU?$ratio@$00$0DOI@@std@@@chrono@std@@@details@spdlog@@@1@@Z
	??$?0V?$elapsed_formatter@Vscoped_padder@details@spdlog@@V?$duration@_JU?$ratio@$00$0DOI@@std@@@chrono@std@@@details@spdlog@@U?$default_delete@V?$elapsed_formatter@Vscoped_padder@details@spdlog@@V?$duration@_JU?$ratio@$00$0DOI@@std@@@chrono@std@@@details@spdlog@@@std@@$0A@@?$unique_ptr@Vflag_formatter@details@spdlog@@U?$default_delete@Vflag_formatter@details@spdlog@@@std@@@std@@QEAA@$$QEAV?$unique_ptr@V?$elapsed_formatter@Vscoped_padder@details@spdlog@@V?$duration@_JU?$ratio@$00$0DOI@@std@@@chrono@std@@@details@spdlog@@U?$default_delete@V?$elapsed_formatter@Vscoped_padder@details@spdlog@@V?$duration@_JU?$ratio@$00$0DOI@@std@@@chrono@std@@@details@spdlog@@@std@@@1@@Z
	??$?0V?$elapsed_formatter@Vscoped_padder@details@spdlog@@V?$duration@_JU?$ratio@$00$0PECEA@@std@@@chrono@std@@@details@spdlog@@$0A@@?$default_delete@Vflag_formatter@details@spdlog@@@std@@QEAA@AEBU?$default_delete@V?$elapsed_formatter@Vscoped_padder@details@spdlog@@V?$duration@_JU?$ratio@$00$0PECEA@@std@@@chrono@std@@@details@spdlog@@@1@@Z
	??$?0V?$elapsed_formatter@Vscoped_padder@details@spdlog@@V?$duration@_JU?$ratio@$00$0PECEA@@std@@@chrono@std@@@details@spdlog@@U?$default_delete@V?$elapsed_formatter@Vscoped_padder@details@spdlog@@V?$duration@_JU?$ratio@$00$0PECEA@@std@@@chrono@std@@@details@spdlog@@@std@@$0A@@?$unique_ptr@Vflag_formatter@details@spdlog@@U?$default_delete@Vflag_formatter@details@spdlog@@@std@@@std@@QEAA@$$QEAV?$unique_ptr@V?$elapsed_formatter@Vscoped_padder@details@spdlog@@V?$duration@_JU?$ratio@$00$0PECEA@@std@@@chrono@std@@@details@spdlog@@U?$default_delete@V?$elapsed_formatter@Vscoped_padder@details@spdlog@@V?$duration@_JU?$ratio@$00$0PECEA@@std@@@chrono@std@@@details@spdlog@@@std@@@1@@Z
	??$?0V?$f_formatter@Unull_scoped_padder@details@spdlog@@@details@spdlog@@$0A@@?$default_delete@Vflag_formatter@details@spdlog@@@std@@QEAA@AEBU?$default_delete@V?$f_formatter@Unull_scoped_padder@details@spdlog@@@details@spdlog@@@1@@Z
	??$?0V?$f_formatter@Unull_scoped_padder@details@spdlog@@@details@spdlog@@U?$default_delete@V?$f_formatter@Unull_scoped_padder@details@spdlog@@@details@spdlog@@@std@@$0A@@?$unique_ptr@Vflag_formatter@details@spdlog@@U?$default_delete@Vflag_formatter@details@spdlog@@@std@@@std@@QEAA@$$QEAV?$unique_ptr@V?$f_formatter@Unull_scoped_padder@details@spdlog@@@details@spdlog@@U?$default_delete@V?$f_formatter@Unull_scoped_padder@details@spdlog@@@details@spdlog@@@std@@@1@@Z
	??$?0V?$f_formatter@Vscoped_padder@details@spdlog@@@details@spdlog@@$0A@@?$default_delete@Vflag_formatter@details@spdlog@@@std@@QEAA@AEBU?$default_delete@V?$f_formatter@Vscoped_padder@details@spdlog@@@details@spdlog@@@1@@Z
	??$?0V?$f_formatter@Vscoped_padder@details@spdlog@@@details@spdlog@@U?$default_delete@V?$f_formatter@Vscoped_padder@details@spdlog@@@details@spdlog@@@std@@$0A@@?$unique_ptr@Vflag_formatter@details@spdlog@@U?$default_delete@Vflag_formatter@details@spdlog@@@std@@@std@@QEAA@$$QEAV?$unique_ptr@V?$f_formatter@Vscoped_padder@details@spdlog@@@details@spdlog@@U?$default_delete@V?$f_formatter@Vscoped_padder@details@spdlog@@@details@spdlog@@@std@@@1@@Z
	??$?0V?$level_formatter@Unull_scoped_padder@details@spdlog@@@details@spdlog@@$0A@@?$default_delete@Vflag_formatter@details@spdlog@@@std@@QEAA@AEBU?$default_delete@V?$level_formatter@Unull_scoped_padder@details@spdlog@@@details@spdlog@@@1@@Z
	??$?0V?$level_formatter@Unull_scoped_padder@details@spdlog@@@details@spdlog@@U?$default_delete@V?$level_formatter@Unull_scoped_padder@details@spdlog@@@details@spdlog@@@std@@$0A@@?$unique_ptr@Vflag_formatter@details@spdlog@@U?$default_delete@Vflag_formatter@details@spdlog@@@std@@@std@@QEAA@$$QEAV?$unique_ptr@V?$level_formatter@Unull_scoped_padder@details@spdlog@@@details@spdlog@@U?$default_delete@V?$level_formatter@Unull_scoped_padder@details@spdlog@@@details@spdlog@@@std@@@1@@Z
	??$?0V?$level_formatter@Vscoped_padder@details@spdlog@@@details@spdlog@@$0A@@?$default_delete@Vflag_formatter@details@spdlog@@@std@@QEAA@AEBU?$default_delete@V?$level_formatter@Vscoped_padder@details@spdlog@@@details@spdlog@@@1@@Z
	??$?0V?$level_formatter@Vscoped_padder@details@spdlog@@@details@spdlog@@U?$default_delete@V?$level_formatter@Vscoped_padder@details@spdlog@@@details@spdlog@@@std@@$0A@@?$unique_ptr@Vflag_formatter@details@spdlog@@U?$default_delete@Vflag_formatter@details@spdlog@@@std@@@std@@QEAA@$$QEAV?$unique_ptr@V?$level_formatter@Vscoped_padder@details@spdlog@@@details@spdlog@@U?$default_delete@V?$level_formatter@Vscoped_padder@details@spdlog@@@details@spdlog@@@std@@@1@@Z
	??$?0V?$m_formatter@Unull_scoped_padder@details@spdlog@@@details@spdlog@@$0A@@?$default_delete@Vflag_formatter@details@spdlog@@@std@@QEAA@AEBU?$default_delete@V?$m_formatter@Unull_scoped_padder@details@spdlog@@@details@spdlog@@@1@@Z
	??$?0V?$m_formatter@Unull_scoped_padder@details@spdlog@@@details@spdlog@@U?$default_delete@V?$m_formatter@Unull_scoped_padder@details@spdlog@@@details@spdlog@@@std@@$0A@@?$unique_ptr@Vflag_formatter@details@spdlog@@U?$default_delete@Vflag_formatter@details@spdlog@@@std@@@std@@QEAA@$$QEAV?$unique_ptr@V?$m_formatter@Unull_scoped_padder@details@spdlog@@@details@spdlog@@U?$default_delete@V?$m_formatter@Unull_scoped_padder@details@spdlog@@@details@spdlog@@@std@@@1@@Z
	??$?0V?$m_formatter@Vscoped_padder@details@spdlog@@@details@spdlog@@$0A@@?$default_delete@Vflag_formatter@details@spdlog@@@std@@QEAA@AEBU?$default_delete@V?$m_formatter@Vscoped_padder@details@spdlog@@@details@spdlog@@@1@@Z
	??$?0V?$m_formatter@Vscoped_padder@details@spdlog@@@details@spdlog@@U?$default_delete@V?$m_formatter@Vscoped_padder@details@spdlog@@@details@spdlog@@@std@@$0A@@?$unique_ptr@Vflag_formatter@details@spdlog@@U?$default_delete@Vflag_formatter@details@spdlog@@@std@@@std@@QEAA@$$QEAV?$unique_ptr@V?$m_formatter@Vscoped_padder@details@spdlog@@@details@spdlog@@U?$default_delete@V?$m_formatter@Vscoped_padder@details@spdlog@@@details@spdlog@@@std@@@1@@Z
	??$?0V?$mdc_formatter@Unull_scoped_padder@details@spdlog@@@details@spdlog@@$0A@@?$default_delete@Vflag_formatter@details@spdlog@@@std@@QEAA@AEBU?$default_delete@V?$mdc_formatter@Unull_scoped_padder@details@spdlog@@@details@spdlog@@@1@@Z
	??$?0V?$mdc_formatter@Unull_scoped_padder@details@spdlog@@@details@spdlog@@U?$default_delete@V?$mdc_formatter@Unull_scoped_padder@details@spdlog@@@details@spdlog@@@std@@$0A@@?$unique_ptr@Vflag_formatter@details@spdlog@@U?$default_delete@Vflag_formatter@details@spdlog@@@std@@@std@@QEAA@$$QEAV?$unique_ptr@V?$mdc_formatter@Unull_scoped_padder@details@spdlog@@@details@spdlog@@U?$default_delete@V?$mdc_formatter@Unull_scoped_padder@details@spdlog@@@details@spdlog@@@std@@@1@@Z
	??$?0V?$mdc_formatter@Vscoped_padder@details@spdlog@@@details@spdlog@@$0A@@?$default_delete@Vflag_formatter@details@spdlog@@@std@@QEAA@AEBU?$default_delete@V?$mdc_formatter@Vscoped_padder@details@spdlog@@@details@spdlog@@@1@@Z
	??$?0V?$mdc_formatter@Vscoped_padder@details@spdlog@@@details@spdlog@@U?$default_delete@V?$mdc_formatter@Vscoped_padder@details@spdlog@@@details@spdlog@@@std@@$0A@@?$unique_ptr@Vflag_formatter@details@spdlog@@U?$default_delete@Vflag_formatter@details@spdlog@@@std@@@std@@QEAA@$$QEAV?$unique_ptr@V?$mdc_formatter@Vscoped_padder@details@spdlog@@@details@spdlog@@U?$default_delete@V?$mdc_formatter@Vscoped_padder@details@spdlog@@@details@spdlog@@@std@@@1@@Z
	??$?0V?$name_formatter@Unull_scoped_padder@details@spdlog@@@details@spdlog@@$0A@@?$default_delete@Vflag_formatter@details@spdlog@@@std@@QEAA@AEBU?$default_delete@V?$name_formatter@Unull_scoped_padder@details@spdlog@@@details@spdlog@@@1@@Z
	??$?0V?$name_formatter@Unull_scoped_padder@details@spdlog@@@details@spdlog@@U?$default_delete@V?$name_formatter@Unull_scoped_padder@details@spdlog@@@details@spdlog@@@std@@$0A@@?$unique_ptr@Vflag_formatter@details@spdlog@@U?$default_delete@Vflag_formatter@details@spdlog@@@std@@@std@@QEAA@$$QEAV?$unique_ptr@V?$name_formatter@Unull_scoped_padder@details@spdlog@@@details@spdlog@@U?$default_delete@V?$name_formatter@Unull_scoped_padder@details@spdlog@@@details@spdlog@@@std@@@1@@Z
	??$?0V?$name_formatter@Vscoped_padder@details@spdlog@@@details@spdlog@@$0A@@?$default_delete@Vflag_formatter@details@spdlog@@@std@@QEAA@AEBU?$default_delete@V?$name_formatter@Vscoped_padder@details@spdlog@@@details@spdlog@@@1@@Z
	??$?0V?$name_formatter@Vscoped_padder@details@spdlog@@@details@spdlog@@U?$default_delete@V?$name_formatter@Vscoped_padder@details@spdlog@@@details@spdlog@@@std@@$0A@@?$unique_ptr@Vflag_formatter@details@spdlog@@U?$default_delete@Vflag_formatter@details@spdlog@@@std@@@std@@QEAA@$$QEAV?$unique_ptr@V?$name_formatter@Vscoped_padder@details@spdlog@@@details@spdlog@@U?$default_delete@V?$name_formatter@Vscoped_padder@details@spdlog@@@details@spdlog@@@std@@@1@@Z
	??$?0V?$p_formatter@Unull_scoped_padder@details@spdlog@@@details@spdlog@@$0A@@?$default_delete@Vflag_formatter@details@spdlog@@@std@@QEAA@AEBU?$default_delete@V?$p_formatter@Unull_scoped_padder@details@spdlog@@@details@spdlog@@@1@@Z
	??$?0V?$p_formatter@Unull_scoped_padder@details@spdlog@@@details@spdlog@@U?$default_delete@V?$p_formatter@Unull_scoped_padder@details@spdlog@@@details@spdlog@@@std@@$0A@@?$unique_ptr@Vflag_formatter@details@spdlog@@U?$default_delete@Vflag_formatter@details@spdlog@@@std@@@std@@QEAA@$$QEAV?$unique_ptr@V?$p_formatter@Unull_scoped_padder@details@spdlog@@@details@spdlog@@U?$default_delete@V?$p_formatter@Unull_scoped_padder@details@spdlog@@@details@spdlog@@@std@@@1@@Z
	??$?0V?$p_formatter@Vscoped_padder@details@spdlog@@@details@spdlog@@$0A@@?$default_delete@Vflag_formatter@details@spdlog@@@std@@QEAA@AEBU?$default_delete@V?$p_formatter@Vscoped_padder@details@spdlog@@@details@spdlog@@@1@@Z
	??$?0V?$p_formatter@Vscoped_padder@details@spdlog@@@details@spdlog@@U?$default_delete@V?$p_formatter@Vscoped_padder@details@spdlog@@@details@spdlog@@@std@@$0A@@?$unique_ptr@Vflag_formatter@details@spdlog@@U?$default_delete@Vflag_formatter@details@spdlog@@@std@@@std@@QEAA@$$QEAV?$unique_ptr@V?$p_formatter@Vscoped_padder@details@spdlog@@@details@spdlog@@U?$default_delete@V?$p_formatter@Vscoped_padder@details@spdlog@@@details@spdlog@@@std@@@1@@Z
	??$?0V?$pid_formatter@Unull_scoped_padder@details@spdlog@@@details@spdlog@@$0A@@?$default_delete@Vflag_formatter@details@spdlog@@@std@@QEAA@AEBU?$default_delete@V?$pid_formatter@Unull_scoped_padder@details@spdlog@@@details@spdlog@@@1@@Z
	??$?0V?$pid_formatter@Unull_scoped_padder@details@spdlog@@@details@spdlog@@U?$default_delete@V?$pid_formatter@Unull_scoped_padder@details@spdlog@@@details@spdlog@@@std@@$0A@@?$unique_ptr@Vflag_formatter@details@spdlog@@U?$default_delete@Vflag_formatter@details@spdlog@@@std@@@std@@QEAA@$$QEAV?$unique_ptr@V?$pid_formatter@Unull_scoped_padder@details@spdlog@@@details@spdlog@@U?$default_delete@V?$pid_formatter@Unull_scoped_padder@details@spdlog@@@details@spdlog@@@std@@@1@@Z
	??$?0V?$pid_formatter@Vscoped_padder@details@spdlog@@@details@spdlog@@$0A@@?$default_delete@Vflag_formatter@details@spdlog@@@std@@QEAA@AEBU?$default_delete@V?$pid_formatter@Vscoped_padder@details@spdlog@@@details@spdlog@@@1@@Z
	??$?0V?$pid_formatter@Vscoped_padder@details@spdlog@@@details@spdlog@@U?$default_delete@V?$pid_formatter@Vscoped_padder@details@spdlog@@@details@spdlog@@@std@@$0A@@?$unique_ptr@Vflag_formatter@details@spdlog@@U?$default_delete@Vflag_formatter@details@spdlog@@@std@@@std@@QEAA@$$QEAV?$unique_ptr@V?$pid_formatter@Vscoped_padder@details@spdlog@@@details@spdlog@@U?$default_delete@V?$pid_formatter@Vscoped_padder@details@spdlog@@@details@spdlog@@@std@@@1@@Z
	??$?0V?$r_formatter@Unull_scoped_padder@details@spdlog@@@details@spdlog@@$0A@@?$default_delete@Vflag_formatter@details@spdlog@@@std@@QEAA@AEBU?$default_delete@V?$r_formatter@Unull_scoped_padder@details@spdlog@@@details@spdlog@@@1@@Z
	??$?0V?$r_formatter@Unull_scoped_padder@details@spdlog@@@details@spdlog@@U?$default_delete@V?$r_formatter@Unull_scoped_padder@details@spdlog@@@details@spdlog@@@std@@$0A@@?$unique_ptr@Vflag_formatter@details@spdlog@@U?$default_delete@Vflag_formatter@details@spdlog@@@std@@@std@@QEAA@$$QEAV?$unique_ptr@V?$r_formatter@Unull_scoped_padder@details@spdlog@@@details@spdlog@@U?$default_delete@V?$r_formatter@Unull_scoped_padder@details@spdlog@@@details@spdlog@@@std@@@1@@Z
	??$?0V?$r_formatter@Vscoped_padder@details@spdlog@@@details@spdlog@@$0A@@?$default_delete@Vflag_formatter@details@spdlog@@@std@@QEAA@AEBU?$default_delete@V?$r_formatter@Vscoped_padder@details@spdlog@@@details@spdlog@@@1@@Z
	??$?0V?$r_formatter@Vscoped_padder@details@spdlog@@@details@spdlog@@U?$default_delete@V?$r_formatter@Vscoped_padder@details@spdlog@@@details@spdlog@@@std@@$0A@@?$unique_ptr@Vflag_formatter@details@spdlog@@U?$default_delete@Vflag_formatter@details@spdlog@@@std@@@std@@QEAA@$$QEAV?$unique_ptr@V?$r_formatter@Vscoped_padder@details@spdlog@@@details@spdlog@@U?$default_delete@V?$r_formatter@Vscoped_padder@details@spdlog@@@details@spdlog@@@std@@@1@@Z
	??$?0V?$shared_ptr@Vsink@sinks@spdlog@@@std@@@?$allocator@U_Container_proxy@std@@@std@@QEAA@AEBV?$allocator@V?$shared_ptr@Vsink@sinks@spdlog@@@std@@@1@@Z
	??$?0V?$short_filename_formatter@Unull_scoped_padder@details@spdlog@@@details@spdlog@@$0A@@?$default_delete@Vflag_formatter@details@spdlog@@@std@@QEAA@AEBU?$default_delete@V?$short_filename_formatter@Unull_scoped_padder@details@spdlog@@@details@spdlog@@@1@@Z
	??$?0V?$short_filename_formatter@Unull_scoped_padder@details@spdlog@@@details@spdlog@@U?$default_delete@V?$short_filename_formatter@Unull_scoped_padder@details@spdlog@@@details@spdlog@@@std@@$0A@@?$unique_ptr@Vflag_formatter@details@spdlog@@U?$default_delete@Vflag_formatter@details@spdlog@@@std@@@std@@QEAA@$$QEAV?$unique_ptr@V?$short_filename_formatter@Unull_scoped_padder@details@spdlog@@@details@spdlog@@U?$default_delete@V?$short_filename_formatter@Unull_scoped_padder@details@spdlog@@@details@spdlog@@@std@@@1@@Z
	??$?0V?$short_filename_formatter@Vscoped_padder@details@spdlog@@@details@spdlog@@$0A@@?$default_delete@Vflag_formatter@details@spdlog@@@std@@QEAA@AEBU?$default_delete@V?$short_filename_formatter@Vscoped_padder@details@spdlog@@@details@spdlog@@@1@@Z
	??$?0V?$short_filename_formatter@Vscoped_padder@details@spdlog@@@details@spdlog@@U?$default_delete@V?$short_filename_formatter@Vscoped_padder@details@spdlog@@@details@spdlog@@@std@@$0A@@?$unique_ptr@Vflag_formatter@details@spdlog@@U?$default_delete@Vflag_formatter@details@spdlog@@@std@@@std@@QEAA@$$QEAV?$unique_ptr@V?$short_filename_formatter@Vscoped_padder@details@spdlog@@@details@spdlog@@U?$default_delete@V?$short_filename_formatter@Vscoped_padder@details@spdlog@@@details@spdlog@@@std@@@1@@Z
	??$?0V?$short_level_formatter@Unull_scoped_padder@details@spdlog@@@details@spdlog@@$0A@@?$default_delete@Vflag_formatter@details@spdlog@@@std@@QEAA@AEBU?$default_delete@V?$short_level_formatter@Unull_scoped_padder@details@spdlog@@@details@spdlog@@@1@@Z
	??$?0V?$short_level_formatter@Unull_scoped_padder@details@spdlog@@@details@spdlog@@U?$default_delete@V?$short_level_formatter@Unull_scoped_padder@details@spdlog@@@details@spdlog@@@std@@$0A@@?$unique_ptr@Vflag_formatter@details@spdlog@@U?$default_delete@Vflag_formatter@details@spdlog@@@std@@@std@@QEAA@$$QEAV?$unique_ptr@V?$short_level_formatter@Unull_scoped_padder@details@spdlog@@@details@spdlog@@U?$default_delete@V?$short_level_formatter@Unull_scoped_padder@details@spdlog@@@details@spdlog@@@std@@@1@@Z
	??$?0V?$short_level_formatter@Vscoped_padder@details@spdlog@@@details@spdlog@@$0A@@?$default_delete@Vflag_formatter@details@spdlog@@@std@@QEAA@AEBU?$default_delete@V?$short_level_formatter@Vscoped_padder@details@spdlog@@@details@spdlog@@@1@@Z
	??$?0V?$short_level_formatter@Vscoped_padder@details@spdlog@@@details@spdlog@@U?$default_delete@V?$short_level_formatter@Vscoped_padder@details@spdlog@@@details@spdlog@@@std@@$0A@@?$unique_ptr@Vflag_formatter@details@spdlog@@U?$default_delete@Vflag_formatter@details@spdlog@@@std@@@std@@QEAA@$$QEAV?$unique_ptr@V?$short_level_formatter@Vscoped_padder@details@spdlog@@@details@spdlog@@U?$default_delete@V?$short_level_formatter@Vscoped_padder@details@spdlog@@@details@spdlog@@@std@@@1@@Z
	??$?0V?$source_filename_formatter@Unull_scoped_padder@details@spdlog@@@details@spdlog@@$0A@@?$default_delete@Vflag_formatter@details@spdlog@@@std@@QEAA@AEBU?$default_delete@V?$source_filename_formatter@Unull_scoped_padder@details@spdlog@@@details@spdlog@@@1@@Z
	??$?0V?$source_filename_formatter@Unull_scoped_padder@details@spdlog@@@details@spdlog@@U?$default_delete@V?$source_filename_formatter@Unull_scoped_padder@details@spdlog@@@details@spdlog@@@std@@$0A@@?$unique_ptr@Vflag_formatter@details@spdlog@@U?$default_delete@Vflag_formatter@details@spdlog@@@std@@@std@@QEAA@$$QEAV?$unique_ptr@V?$source_filename_formatter@Unull_scoped_padder@details@spdlog@@@details@spdlog@@U?$default_delete@V?$source_filename_formatter@Unull_scoped_padder@details@spdlog@@@details@spdlog@@@std@@@1@@Z
	??$?0V?$source_filename_formatter@Vscoped_padder@details@spdlog@@@details@spdlog@@$0A@@?$default_delete@Vflag_formatter@details@spdlog@@@std@@QEAA@AEBU?$default_delete@V?$source_filename_formatter@Vscoped_padder@details@spdlog@@@details@spdlog@@@1@@Z
	??$?0V?$source_filename_formatter@Vscoped_padder@details@spdlog@@@details@spdlog@@U?$default_delete@V?$source_filename_formatter@Vscoped_padder@details@spdlog@@@details@spdlog@@@std@@$0A@@?$unique_ptr@Vflag_formatter@details@spdlog@@U?$default_delete@Vflag_formatter@details@spdlog@@@std@@@std@@QEAA@$$QEAV?$unique_ptr@V?$source_filename_formatter@Vscoped_padder@details@spdlog@@@details@spdlog@@U?$default_delete@V?$source_filename_formatter@Vscoped_padder@details@spdlog@@@details@spdlog@@@std@@@1@@Z
	??$?0V?$source_funcname_formatter@Unull_scoped_padder@details@spdlog@@@details@spdlog@@$0A@@?$default_delete@Vflag_formatter@details@spdlog@@@std@@QEAA@AEBU?$default_delete@V?$source_funcname_formatter@Unull_scoped_padder@details@spdlog@@@details@spdlog@@@1@@Z
	??$?0V?$source_funcname_formatter@Unull_scoped_padder@details@spdlog@@@details@spdlog@@U?$default_delete@V?$source_funcname_formatter@Unull_scoped_padder@details@spdlog@@@details@spdlog@@@std@@$0A@@?$unique_ptr@Vflag_formatter@details@spdlog@@U?$default_delete@Vflag_formatter@details@spdlog@@@std@@@std@@QEAA@$$QEAV?$unique_ptr@V?$source_funcname_formatter@Unull_scoped_padder@details@spdlog@@@details@spdlog@@U?$default_delete@V?$source_funcname_formatter@Unull_scoped_padder@details@spdlog@@@details@spdlog@@@std@@@1@@Z
	??$?0V?$source_funcname_formatter@Vscoped_padder@details@spdlog@@@details@spdlog@@$0A@@?$default_delete@Vflag_formatter@details@spdlog@@@std@@QEAA@AEBU?$default_delete@V?$source_funcname_formatter@Vscoped_padder@details@spdlog@@@details@spdlog@@@1@@Z
	??$?0V?$source_funcname_formatter@Vscoped_padder@details@spdlog@@@details@spdlog@@U?$default_delete@V?$source_funcname_formatter@Vscoped_padder@details@spdlog@@@details@spdlog@@@std@@$0A@@?$unique_ptr@Vflag_formatter@details@spdlog@@U?$default_delete@Vflag_formatter@details@spdlog@@@std@@@std@@QEAA@$$QEAV?$unique_ptr@V?$source_funcname_formatter@Vscoped_padder@details@spdlog@@@details@spdlog@@U?$default_delete@V?$source_funcname_formatter@Vscoped_padder@details@spdlog@@@details@spdlog@@@std@@@1@@Z
	??$?0V?$source_linenum_formatter@Unull_scoped_padder@details@spdlog@@@details@spdlog@@$0A@@?$default_delete@Vflag_formatter@details@spdlog@@@std@@QEAA@AEBU?$default_delete@V?$source_linenum_formatter@Unull_scoped_padder@details@spdlog@@@details@spdlog@@@1@@Z
	??$?0V?$source_linenum_formatter@Unull_scoped_padder@details@spdlog@@@details@spdlog@@U?$default_delete@V?$source_linenum_formatter@Unull_scoped_padder@details@spdlog@@@details@spdlog@@@std@@$0A@@?$unique_ptr@Vflag_formatter@details@spdlog@@U?$default_delete@Vflag_formatter@details@spdlog@@@std@@@std@@QEAA@$$QEAV?$unique_ptr@V?$source_linenum_formatter@Unull_scoped_padder@details@spdlog@@@details@spdlog@@U?$default_delete@V?$source_linenum_formatter@Unull_scoped_padder@details@spdlog@@@details@spdlog@@@std@@@1@@Z
	??$?0V?$source_linenum_formatter@Vscoped_padder@details@spdlog@@@details@spdlog@@$0A@@?$default_delete@Vflag_formatter@details@spdlog@@@std@@QEAA@AEBU?$default_delete@V?$source_linenum_formatter@Vscoped_padder@details@spdlog@@@details@spdlog@@@1@@Z
	??$?0V?$source_linenum_formatter@Vscoped_padder@details@spdlog@@@details@spdlog@@U?$default_delete@V?$source_linenum_formatter@Vscoped_padder@details@spdlog@@@details@spdlog@@@std@@$0A@@?$unique_ptr@Vflag_formatter@details@spdlog@@U?$default_delete@Vflag_formatter@details@spdlog@@@std@@@std@@QEAA@$$QEAV?$unique_ptr@V?$source_linenum_formatter@Vscoped_padder@details@spdlog@@@details@spdlog@@U?$default_delete@V?$source_linenum_formatter@Vscoped_padder@details@spdlog@@@details@spdlog@@@std@@@1@@Z
	??$?0V?$source_location_formatter@Unull_scoped_padder@details@spdlog@@@details@spdlog@@$0A@@?$default_delete@Vflag_formatter@details@spdlog@@@std@@QEAA@AEBU?$default_delete@V?$source_location_formatter@Unull_scoped_padder@details@spdlog@@@details@spdlog@@@1@@Z
	??$?0V?$source_location_formatter@Unull_scoped_padder@details@spdlog@@@details@spdlog@@U?$default_delete@V?$source_location_formatter@Unull_scoped_padder@details@spdlog@@@details@spdlog@@@std@@$0A@@?$unique_ptr@Vflag_formatter@details@spdlog@@U?$default_delete@Vflag_formatter@details@spdlog@@@std@@@std@@QEAA@$$QEAV?$unique_ptr@V?$source_location_formatter@Unull_scoped_padder@details@spdlog@@@details@spdlog@@U?$default_delete@V?$source_location_formatter@Unull_scoped_padder@details@spdlog@@@details@spdlog@@@std@@@1@@Z
	??$?0V?$source_location_formatter@Vscoped_padder@details@spdlog@@@details@spdlog@@$0A@@?$default_delete@Vflag_formatter@details@spdlog@@@std@@QEAA@AEBU?$default_delete@V?$source_location_formatter@Vscoped_padder@details@spdlog@@@details@spdlog@@@1@@Z
	??$?0V?$source_location_formatter@Vscoped_padder@details@spdlog@@@details@spdlog@@U?$default_delete@V?$source_location_formatter@Vscoped_padder@details@spdlog@@@details@spdlog@@@std@@$0A@@?$unique_ptr@Vflag_formatter@details@spdlog@@U?$default_delete@Vflag_formatter@details@spdlog@@@std@@@std@@QEAA@$$QEAV?$unique_ptr@V?$source_location_formatter@Vscoped_padder@details@spdlog@@@details@spdlog@@U?$default_delete@V?$source_location_formatter@Vscoped_padder@details@spdlog@@@details@spdlog@@@std@@@1@@Z
	??$?0V?$t_formatter@Unull_scoped_padder@details@spdlog@@@details@spdlog@@$0A@@?$default_delete@Vflag_formatter@details@spdlog@@@std@@QEAA@AEBU?$default_delete@V?$t_formatter@Unull_scoped_padder@details@spdlog@@@details@spdlog@@@1@@Z
	??$?0V?$t_formatter@Unull_scoped_padder@details@spdlog@@@details@spdlog@@U?$default_delete@V?$t_formatter@Unull_scoped_padder@details@spdlog@@@details@spdlog@@@std@@$0A@@?$unique_ptr@Vflag_formatter@details@spdlog@@U?$default_delete@Vflag_formatter@details@spdlog@@@std@@@std@@QEAA@$$QEAV?$unique_ptr@V?$t_formatter@Unull_scoped_padder@details@spdlog@@@details@spdlog@@U?$default_delete@V?$t_formatter@Unull_scoped_padder@details@spdlog@@@details@spdlog@@@std@@@1@@Z
	??$?0V?$t_formatter@Vscoped_padder@details@spdlog@@@details@spdlog@@$0A@@?$default_delete@Vflag_formatter@details@spdlog@@@std@@QEAA@AEBU?$default_delete@V?$t_formatter@Vscoped_padder@details@spdlog@@@details@spdlog@@@1@@Z
	??$?0V?$t_formatter@Vscoped_padder@details@spdlog@@@details@spdlog@@U?$default_delete@V?$t_formatter@Vscoped_padder@details@spdlog@@@details@spdlog@@@std@@$0A@@?$unique_ptr@Vflag_formatter@details@spdlog@@U?$default_delete@Vflag_formatter@details@spdlog@@@std@@@std@@QEAA@$$QEAV?$unique_ptr@V?$t_formatter@Vscoped_padder@details@spdlog@@@details@spdlog@@U?$default_delete@V?$t_formatter@Vscoped_padder@details@spdlog@@@details@spdlog@@@std@@@1@@Z
	??$?0V?$tuple@$$QEAV?$basic_string@DU?$char_traits@D@std@@V?$allocator@D@2@@std@@@std@@V?$tuple@$$V@1@$0A@$$Z$S@?$pair@$$CBV?$basic_string@DU?$char_traits@D@std@@V?$allocator@D@2@@std@@V?$shared_ptr@Vlogger@spdlog@@@2@@std@@QEAA@AEAV?$tuple@$$QEAV?$basic_string@DU?$char_traits@D@std@@V?$allocator@D@2@@std@@@1@AEAV?$tuple@$$V@1@U?$integer_sequence@_K$0A@@1@U?$integer_sequence@_K$S@1@@Z
	??$?0V?$tuple@AEBD@std@@V?$tuple@$$V@1@$0A@$$Z$S@?$pair@$$CBDV?$unique_ptr@Vcustom_flag_formatter@spdlog@@U?$default_delete@Vcustom_flag_formatter@spdlog@@@std@@@std@@@std@@QEAA@AEAV?$tuple@AEBD@1@AEAV?$tuple@$$V@1@U?$integer_sequence@_K$0A@@1@U?$integer_sequence@_K$S@1@@Z
	??$?0V?$tuple@AEBV?$basic_string@DU?$char_traits@D@std@@V?$allocator@D@2@@std@@@std@@V?$tuple@$$V@1@$0A@$$Z$S@?$pair@$$CBV?$basic_string@DU?$char_traits@D@std@@V?$allocator@D@2@@std@@V?$shared_ptr@Vlogger@spdlog@@@2@@std@@QEAA@AEAV?$tuple@AEBV?$basic_string@DU?$char_traits@D@std@@V?$allocator@D@2@@std@@@1@AEAV?$tuple@$$V@1@U?$integer_sequence@_K$0A@@1@U?$integer_sequence@_K$S@1@@Z
	??$?0V?$unique_ptr@Vflag_formatter@details@spdlog@@U?$default_delete@Vflag_formatter@details@spdlog@@@std@@@std@@@?$allocator@U_Container_proxy@std@@@std@@QEAA@AEBV?$allocator@V?$unique_ptr@Vflag_formatter@details@spdlog@@U?$default_delete@Vflag_formatter@details@spdlog@@@std@@@std@@@1@@Z
	??$?0V?$v_formatter@Unull_scoped_padder@details@spdlog@@@details@spdlog@@$0A@@?$default_delete@Vflag_formatter@details@spdlog@@@std@@QEAA@AEBU?$default_delete@V?$v_formatter@Unull_scoped_padder@details@spdlog@@@details@spdlog@@@1@@Z
	??$?0V?$v_formatter@Unull_scoped_padder@details@spdlog@@@details@spdlog@@U?$default_delete@V?$v_formatter@Unull_scoped_padder@details@spdlog@@@details@spdlog@@@std@@$0A@@?$unique_ptr@Vflag_formatter@details@spdlog@@U?$default_delete@Vflag_formatter@details@spdlog@@@std@@@std@@QEAA@$$QEAV?$unique_ptr@V?$v_formatter@Unull_scoped_padder@details@spdlog@@@details@spdlog@@U?$default_delete@V?$v_formatter@Unull_scoped_padder@details@spdlog@@@details@spdlog@@@std@@@1@@Z
	??$?0V?$v_formatter@Vscoped_padder@details@spdlog@@@details@spdlog@@$0A@@?$default_delete@Vflag_formatter@details@spdlog@@@std@@QEAA@AEBU?$default_delete@V?$v_formatter@Vscoped_padder@details@spdlog@@@details@spdlog@@@1@@Z
	??$?0V?$v_formatter@Vscoped_padder@details@spdlog@@@details@spdlog@@U?$default_delete@V?$v_formatter@Vscoped_padder@details@spdlog@@@details@spdlog@@@std@@$0A@@?$unique_ptr@Vflag_formatter@details@spdlog@@U?$default_delete@Vflag_formatter@details@spdlog@@@std@@@std@@QEAA@$$QEAV?$unique_ptr@V?$v_formatter@Vscoped_padder@details@spdlog@@@details@spdlog@@U?$default_delete@V?$v_formatter@Vscoped_padder@details@spdlog@@@details@spdlog@@@std@@@1@@Z
	??$?0V?$value@V?$basic_format_context@Vappender@v9@fmt@@D@v9@fmt@@@detail@v9@fmt@@@?$arg_data@V?$value@V?$basic_format_context@Vappender@v9@fmt@@D@v9@fmt@@@detail@v9@fmt@@D$00$0A@@detail@v9@fmt@@QEAA@AEBV?$value@V?$basic_format_context@Vappender@v9@fmt@@D@v9@fmt@@@123@@Z
	??$?0V?$value@V?$basic_format_context@Vappender@v9@fmt@@D@v9@fmt@@@detail@v9@fmt@@V0123@@?$arg_data@V?$value@V?$basic_format_context@Vappender@v9@fmt@@D@v9@fmt@@@detail@v9@fmt@@D$01$0A@@detail@v9@fmt@@QEAA@AEBV?$value@V?$basic_format_context@Vappender@v9@fmt@@D@v9@fmt@@@123@0@Z
	??$?0V?$value@V?$basic_format_context@Vappender@v9@fmt@@D@v9@fmt@@@detail@v9@fmt@@V0123@V0123@@?$arg_data@V?$value@V?$basic_format_context@Vappender@v9@fmt@@D@v9@fmt@@@detail@v9@fmt@@D$02$0A@@detail@v9@fmt@@QEAA@AEBV?$value@V?$basic_format_context@Vappender@v9@fmt@@D@v9@fmt@@@123@00@Z
	??$?0V?$wincolor_stdout_sink@Uconsole_mutex@details@spdlog@@@sinks@spdlog@@$0A@@?$shared_ptr@Vsink@sinks@spdlog@@@std@@QEAA@$$QEAV?$shared_ptr@V?$wincolor_stdout_sink@Uconsole_mutex@details@spdlog@@@sinks@spdlog@@@1@@Z
	??$?0V?$z_formatter@Unull_scoped_padder@details@spdlog@@@details@spdlog@@$0A@@?$default_delete@Vflag_formatter@details@spdlog@@@std@@QEAA@AEBU?$default_delete@V?$z_formatter@Unull_scoped_padder@details@spdlog@@@details@spdlog@@@1@@Z
	??$?0V?$z_formatter@Unull_scoped_padder@details@spdlog@@@details@spdlog@@U?$default_delete@V?$z_formatter@Unull_scoped_padder@details@spdlog@@@details@spdlog@@@std@@$0A@@?$unique_ptr@Vflag_formatter@details@spdlog@@U?$default_delete@Vflag_formatter@details@spdlog@@@std@@@std@@QEAA@$$QEAV?$unique_ptr@V?$z_formatter@Unull_scoped_padder@details@spdlog@@@details@spdlog@@U?$default_delete@V?$z_formatter@Unull_scoped_padder@details@spdlog@@@details@spdlog@@@std@@@1@@Z
	??$?0V?$z_formatter@Vscoped_padder@details@spdlog@@@details@spdlog@@$0A@@?$default_delete@Vflag_formatter@details@spdlog@@@std@@QEAA@AEBU?$default_delete@V?$z_formatter@Vscoped_padder@details@spdlog@@@details@spdlog@@@1@@Z
	??$?0V?$z_formatter@Vscoped_padder@details@spdlog@@@details@spdlog@@U?$default_delete@V?$z_formatter@Vscoped_padder@details@spdlog@@@details@spdlog@@@std@@$0A@@?$unique_ptr@Vflag_formatter@details@spdlog@@U?$default_delete@Vflag_formatter@details@spdlog@@@std@@@std@@QEAA@$$QEAV?$unique_ptr@V?$z_formatter@Vscoped_padder@details@spdlog@@@details@spdlog@@U?$default_delete@V?$z_formatter@Vscoped_padder@details@spdlog@@@details@spdlog@@@std@@@1@@Z
	??$?0Vaggregate_formatter@details@spdlog@@$0A@@?$default_delete@Vflag_formatter@details@spdlog@@@std@@QEAA@AEBU?$default_delete@Vaggregate_formatter@details@spdlog@@@1@@Z
	??$?0Vaggregate_formatter@details@spdlog@@U?$default_delete@Vaggregate_formatter@details@spdlog@@@std@@$0A@@?$unique_ptr@Vflag_formatter@details@spdlog@@U?$default_delete@Vflag_formatter@details@spdlog@@@std@@@std@@QEAA@$$QEAV?$unique_ptr@Vaggregate_formatter@details@spdlog@@U?$default_delete@Vaggregate_formatter@details@spdlog@@@std@@@1@@Z
	??$?0Vch_formatter@details@spdlog@@$0A@@?$default_delete@Vflag_formatter@details@spdlog@@@std@@QEAA@AEBU?$default_delete@Vch_formatter@details@spdlog@@@1@@Z
	??$?0Vch_formatter@details@spdlog@@U?$default_delete@Vch_formatter@details@spdlog@@@std@@$0A@@?$unique_ptr@Vflag_formatter@details@spdlog@@U?$default_delete@Vflag_formatter@details@spdlog@@@std@@@std@@QEAA@$$QEAV?$unique_ptr@Vch_formatter@details@spdlog@@U?$default_delete@Vch_formatter@details@spdlog@@@std@@@1@@Z
	??$?0Vcolor_start_formatter@details@spdlog@@$0A@@?$default_delete@Vflag_formatter@details@spdlog@@@std@@QEAA@AEBU?$default_delete@Vcolor_start_formatter@details@spdlog@@@1@@Z
	??$?0Vcolor_start_formatter@details@spdlog@@U?$default_delete@Vcolor_start_formatter@details@spdlog@@@std@@$0A@@?$unique_ptr@Vflag_formatter@details@spdlog@@U?$default_delete@Vflag_formatter@details@spdlog@@@std@@@std@@QEAA@$$QEAV?$unique_ptr@Vcolor_start_formatter@details@spdlog@@U?$default_delete@Vcolor_start_formatter@details@spdlog@@@std@@@1@@Z
	??$?0Vcolor_stop_formatter@details@spdlog@@$0A@@?$default_delete@Vflag_formatter@details@spdlog@@@std@@QEAA@AEBU?$default_delete@Vcolor_stop_formatter@details@spdlog@@@1@@Z
	??$?0Vcolor_stop_formatter@details@spdlog@@U?$default_delete@Vcolor_stop_formatter@details@spdlog@@@std@@$0A@@?$unique_ptr@Vflag_formatter@details@spdlog@@U?$default_delete@Vflag_formatter@details@spdlog@@@std@@@std@@QEAA@$$QEAV?$unique_ptr@Vcolor_stop_formatter@details@spdlog@@U?$default_delete@Vcolor_stop_formatter@details@spdlog@@@std@@@1@@Z
	??$?0Vcustom_flag_formatter@spdlog@@$0A@@?$default_delete@Vflag_formatter@details@spdlog@@@std@@QEAA@AEBU?$default_delete@Vcustom_flag_formatter@spdlog@@@1@@Z
	??$?0Vcustom_flag_formatter@spdlog@@U?$default_delete@Vcustom_flag_formatter@spdlog@@@std@@$0A@@?$unique_ptr@Vflag_formatter@details@spdlog@@U?$default_delete@Vflag_formatter@details@spdlog@@@std@@@std@@QEAA@$$QEAV?$unique_ptr@Vcustom_flag_formatter@spdlog@@U?$default_delete@Vcustom_flag_formatter@spdlog@@@std@@@1@@Z
	??$?0Vfull_formatter@details@spdlog@@$0A@@?$default_delete@Vflag_formatter@details@spdlog@@@std@@QEAA@AEBU?$default_delete@Vfull_formatter@details@spdlog@@@1@@Z
	??$?0Vfull_formatter@details@spdlog@@U?$default_delete@Vfull_formatter@details@spdlog@@@std@@$0A@@?$unique_ptr@Vflag_formatter@details@spdlog@@U?$default_delete@Vflag_formatter@details@spdlog@@@std@@@std@@QEAA@$$QEAV?$unique_ptr@Vfull_formatter@details@spdlog@@U?$default_delete@Vfull_formatter@details@spdlog@@@std@@@1@@Z
	??$?0Vlog_msg_buffer@details@spdlog@@@?$allocator@U_Container_proxy@std@@@std@@QEAA@AEBV?$allocator@Vlog_msg_buffer@details@spdlog@@@1@@Z
	??$?0Vpattern_formatter@spdlog@@$0A@@?$default_delete@Vformatter@spdlog@@@std@@QEAA@AEBU?$default_delete@Vpattern_formatter@spdlog@@@1@@Z
	??$?0Vpattern_formatter@spdlog@@U?$default_delete@Vpattern_formatter@spdlog@@@std@@$0A@@?$unique_ptr@Vformatter@spdlog@@U?$default_delete@Vformatter@spdlog@@@std@@@std@@QEAA@$$QEAV?$unique_ptr@Vpattern_formatter@spdlog@@U?$default_delete@Vpattern_formatter@spdlog@@@std@@@1@@Z
	??$?0_J$0A@@?$duration@_JU?$ratio@$00$00@std@@@chrono@std@@QEAA@AEB_J@Z
	??$?0_J$0A@@?$duration@_JU?$ratio@$00$0DLJKMKAA@@std@@@chrono@std@@QEAA@AEB_J@Z
	??$?0_J$0A@@?$duration@_JU?$ratio@$00$0DOI@@std@@@chrono@std@@QEAA@AEB_J@Z
	??$?0_J$0A@@?$duration@_JU?$ratio@$00$0JIJGIA@@std@@@chrono@std@@QEAA@AEB_J@Z
	??$?0_J$0A@@?$duration@_JU?$ratio@$00$0PECEA@@std@@@chrono@std@@QEAA@AEB_J@Z
	??$?0_JU?$ratio@$00$00@std@@$0A@@?$duration@_JU?$ratio@$00$0JIJGIA@@std@@@chrono@std@@QEAA@AEBV?$duration@_JU?$ratio@$00$00@std@@@12@@Z
	??$?4D@value_type@counting_iterator@detail@v9@fmt@@QEAAXAEBD@Z
	??$?4H@bigint@detail@v9@fmt@@QEAAXH@Z
	??$?4U?$default_delete@VWindow@Engine@@@std@@$0A@@?$unique_ptr@VWindow@Engine@@U?$default_delete@VWindow@Engine@@@std@@@std@@QEAAAEAV01@$$QEAV01@@Z
	??$?4U?$default_delete@Vaggregate_formatter@details@spdlog@@@std@@$0A@@?$unique_ptr@Vaggregate_formatter@details@spdlog@@U?$default_delete@Vaggregate_formatter@details@spdlog@@@std@@@std@@QEAAAEAV01@$$QEAV01@@Z
	??$?4U?$default_delete@Vcustom_flag_formatter@spdlog@@@std@@$0A@@?$unique_ptr@Vcustom_flag_formatter@spdlog@@U?$default_delete@Vcustom_flag_formatter@spdlog@@@std@@@std@@QEAAAEAV01@$$QEAV01@@Z
	??$?4U?$default_delete@Vformatter@spdlog@@@std@@$0A@@?$unique_ptr@Vformatter@spdlog@@U?$default_delete@Vformatter@spdlog@@@std@@@std@@QEAAAEAV01@$$QEAV01@@Z
	??$?4Vuint128_fallback@detail@v9@fmt@@@bigint@detail@v9@fmt@@QEAAXVuint128_fallback@123@@Z
	??$?4_K@bigint@detail@v9@fmt@@QEAAX_K@Z
	??$?6U?$char_traits@D@std@@@std@@YAAEAV?$basic_ostream@DU?$char_traits@D@std@@@0@AEAV10@PEBD@Z
	??$?8DU?$char_traits@D@std@@V?$allocator@D@1@@std@@YA_NAEBV?$basic_string@DU?$char_traits@D@std@@V?$allocator@D@2@@0@0@Z
	??$?8_JU?$ratio@$00$00@std@@_JU01@@chrono@std@@YA_NAEBV?$duration@_JU?$ratio@$00$00@std@@@01@0@Z
	??$?9PEBDPEBD@std@@YA_NAEBV?$reverse_iterator@PEBD@0@0@Z
	??$?9_JU?$ratio@$00$00@std@@_JU01@@chrono@std@@YA_NAEBV?$duration@_JU?$ratio@$00$00@std@@@01@0@Z
	??$?AH@?$buffer@D@detail@v9@fmt@@QEAAAEADH@Z
	??$?AH@?$buffer@H@detail@v9@fmt@@QEAAAEAHH@Z
	??$?AH@?$buffer@I@detail@v9@fmt@@QEAAAEAIH@Z
	??$?AI@?$buffer@I@detail@v9@fmt@@QEAAAEAII@Z
	??$?AI@?$buffer@I@detail@v9@fmt@@QEBAAEBII@Z
	??$?A_K@?$buffer@D@detail@v9@fmt@@QEAAAEAD_K@Z
	??$?A_K@?$buffer@I@detail@v9@fmt@@QEAAAEAI_K@Z
	??$?A_K@?$buffer@I@detail@v9@fmt@@QEBAAEBI_K@Z
	??$?BI$0A@@uint128_fallback@detail@v9@fmt@@QEBAIXZ
	??$?B_K$0A@@uint128_fallback@detail@v9@fmt@@QEBA_KXZ
	??$?CVlogger@spdlog@@$0A@@?$shared_ptr@Vlogger@spdlog@@@std@@QEBAPEAVlogger@spdlog@@XZ
	??$?CVsink@sinks@spdlog@@$0A@@?$shared_ptr@Vsink@sinks@spdlog@@@std@@QEBAPEAVsink@sinks@spdlog@@XZ
	??$?GUsystem_clock@chrono@std@@V?$duration@_JU?$ratio@$00$0JIJGIA@@std@@@12@V312@@chrono@std@@YA?AV?$duration@_JU?$ratio@$00$0JIJGIA@@std@@@01@AEBV?$time_point@Usystem_clock@chrono@std@@V?$duration@_JU?$ratio@$00$0JIJGIA@@std@@@23@@01@0@Z
	??$?G_JU?$ratio@$00$0DLJKMKAA@@std@@_JU01@@chrono@std@@YA?AV?$duration@_JU?$ratio@$00$0DLJKMKAA@@std@@@01@AEBV201@0@Z
	??$?G_JU?$ratio@$00$0DOI@@std@@_JU01@@chrono@std@@YA?AV?$duration@_JU?$ratio@$00$0DOI@@std@@@01@AEBV201@0@Z
	??$?G_JU?$ratio@$00$0JIJGIA@@std@@_JU01@@chrono@std@@YA?AV?$duration@_JU?$ratio@$00$0JIJGIA@@std@@@01@AEBV201@0@Z
	??$?G_JU?$ratio@$00$0PECEA@@std@@_JU01@@chrono@std@@YA?AV?$duration@_JU?$ratio@$00$0PECEA@@std@@@01@AEBV201@0@Z
	??$?HDU?$char_traits@D@std@@V?$allocator@D@1@@std@@YA?AV?$basic_string@DU?$char_traits@D@std@@V?$allocator@D@2@@0@$$QEAV10@QEBD@Z
	??$?HDU?$char_traits@D@std@@V?$allocator@D@1@@std@@YA?AV?$basic_string@DU?$char_traits@D@std@@V?$allocator@D@2@@0@QEBDAEBV10@@Z
	??$?M_JU?$ratio@$00$0JIJGIA@@std@@_JU01@@chrono@std@@YA_NAEBV?$duration@_JU?$ratio@$00$0JIJGIA@@std@@@01@0@Z
	??$?M_JU?$ratio@$00$0JIJGIA@@std@@_JU?$ratio@$00$00@1@@chrono@std@@YA_NAEBV?$duration@_JU?$ratio@$00$0JIJGIA@@std@@@01@AEBV?$duration@_JU?$ratio@$00$00@std@@@01@@Z
	??$?P_JU?$ratio@$00$0JIJGIA@@std@@_JU?$ratio@$00$00@1@@chrono@std@@YA_NAEBV?$duration@_JU?$ratio@$00$0JIJGIA@@std@@@01@AEBV?$duration@_JU?$ratio@$00$00@std@@@01@@Z
	??$?RAEAVEvent@Engine@@$0A@@?$_Binder@U_Unforced@std@@P8Application@Engine@@EAAXAEAVEvent@4@@ZPEAV34@AEBU?$_Ph@$00@2@@std@@QEAA?A_TAEAVEvent@Engine@@@Z
	??$?RAEAVKeyPressedEvent@Engine@@$0A@@?$_Binder@U_Unforced@std@@P8ImGuiLayer@Engine@@EAA_NAEAVKeyPressedEvent@4@@ZPEAV34@AEBU?$_Ph@$00@2@@std@@QEAA?A_TAEAVKeyPressedEvent@Engine@@@Z
	??$?RAEAVKeyReleasedEvent@Engine@@$0A@@?$_Binder@U_Unforced@std@@P8ImGuiLayer@Engine@@EAA_NAEAVKeyReleasedEvent@4@@ZPEAV34@AEBU?$_Ph@$00@2@@std@@QEAA?A_TAEAVKeyReleasedEvent@Engine@@@Z
	??$?RAEAVKeyTypedEvent@Engine@@$0A@@?$_Binder@U_Unforced@std@@P8ImGuiLayer@Engine@@EAA_NAEAVKeyTypedEvent@4@@ZPEAV34@AEBU?$_Ph@$00@2@@std@@QEAA?A_TAEAVKeyTypedEvent@Engine@@@Z
	??$?RAEAVMouseButtonPressedEvent@Engine@@$0A@@?$_Binder@U_Unforced@std@@P8ImGuiLayer@Engine@@EAA_NAEAVMouseButtonPressedEvent@4@@ZPEAV34@AEBU?$_Ph@$00@2@@std@@QEAA?A_TAEAVMouseButtonPressedEvent@Engine@@@Z
	??$?RAEAVMouseButtonReleasedEvent@Engine@@$0A@@?$_Binder@U_Unforced@std@@P8ImGuiLayer@Engine@@EAA_NAEAVMouseButtonReleasedEvent@4@@ZPEAV34@AEBU?$_Ph@$00@2@@std@@QEAA?A_TAEAVMouseButtonReleasedEvent@Engine@@@Z
	??$?RAEAVMouseMovedEvent@Engine@@$0A@@?$_Binder@U_Unforced@std@@P8ImGuiLayer@Engine@@EAA_NAEAVMouseMovedEvent@4@@ZPEAV34@AEBU?$_Ph@$00@2@@std@@QEAA?A_TAEAVMouseMovedEvent@Engine@@@Z
	??$?RAEAVMouseScrolledEvent@Engine@@$0A@@?$_Binder@U_Unforced@std@@P8ImGuiLayer@Engine@@EAA_NAEAVMouseScrolledEvent@4@@ZPEAV34@AEBU?$_Ph@$00@2@@std@@QEAA?A_TAEAVMouseScrolledEvent@Engine@@@Z
	??$?RAEAVWindowCloseEvent@Engine@@$0A@@?$_Binder@U_Unforced@std@@P8Application@Engine@@EAA_NAEAVWindowCloseEvent@4@@ZPEAV34@AEBU?$_Ph@$00@2@@std@@QEAA?A_TAEAVWindowCloseEvent@Engine@@@Z
	??$?RAEAVWindowResizeEvent@Engine@@$0A@@?$_Binder@U_Unforced@std@@P8ImGuiLayer@Engine@@EAA_NAEAVWindowResizeEvent@4@@ZPEAV34@AEBU?$_Ph@$00@2@@std@@QEAA?A_TAEAVWindowResizeEvent@Engine@@@Z
	??$?RAEBDAEBD@?$equal_to@X@std@@QEBA_NAEBD0@Z
	??$?RD$0A@@?$precision_checker@Uerror_handler@detail@v9@fmt@@@detail@v9@fmt@@QEAA_KD@Z
	??$?RD$0A@@?$width_checker@Uerror_handler@detail@v9@fmt@@@detail@v9@fmt@@QEAA_KD@Z
	??$?RD@?$_Uhash_compare@DU?$hash@D@std@@U?$equal_to@D@2@@std@@QEBA_KAEBD@Z
	??$?RD@?$arg_formatter@D@detail@v9@fmt@@QEAA?AVappender@23@D@Z
	??$?RD@?$custom_formatter@D@detail@v9@fmt@@QEBAXD@Z
	??$?RD@?$default_arg_formatter@D@detail@v9@fmt@@QEAA?AVappender@23@D@Z
	??$?RDD@?$_Uhash_compare@DU?$hash@D@std@@U?$equal_to@D@2@@std@@QEBA_NAEBD0@Z
	??$?RH$0A@@?$precision_checker@Uerror_handler@detail@v9@fmt@@@detail@v9@fmt@@QEAA_KH@Z
	??$?RH$0A@@?$width_checker@Uerror_handler@detail@v9@fmt@@@detail@v9@fmt@@QEAA_KH@Z
	??$?RH@?$arg_formatter@D@detail@v9@fmt@@QEAA?AVappender@23@H@Z
	??$?RH@?$custom_formatter@D@detail@v9@fmt@@QEBAXH@Z
	??$?RH@?$default_arg_formatter@D@detail@v9@fmt@@QEAA?AVappender@23@H@Z
	??$?RI$0A@@?$precision_checker@Uerror_handler@detail@v9@fmt@@@detail@v9@fmt@@QEAA_KI@Z
	??$?RI$0A@@?$width_checker@Uerror_handler@detail@v9@fmt@@@detail@v9@fmt@@QEAA_KI@Z
	??$?RI@?$arg_formatter@D@detail@v9@fmt@@QEAA?AVappender@23@I@Z
	??$?RI@?$custom_formatter@D@detail@v9@fmt@@QEBAXI@Z
	??$?RI@?$default_arg_formatter@D@detail@v9@fmt@@QEAA?AVappender@23@I@Z
	??$?RM$0A@@?$precision_checker@Uerror_handler@detail@v9@fmt@@@detail@v9@fmt@@QEAA_KM@Z
	??$?RM$0A@@?$width_checker@Uerror_handler@detail@v9@fmt@@@detail@v9@fmt@@QEAA_KM@Z
	??$?RM@?$arg_formatter@D@detail@v9@fmt@@QEAA?AVappender@23@M@Z
	??$?RM@?$custom_formatter@D@detail@v9@fmt@@QEBAXM@Z
	??$?RM@?$default_arg_formatter@D@detail@v9@fmt@@QEAA?AVappender@23@M@Z
	??$?RN$0A@@?$precision_checker@Uerror_handler@detail@v9@fmt@@@detail@v9@fmt@@QEAA_KN@Z
	??$?RN$0A@@?$width_checker@Uerror_handler@detail@v9@fmt@@@detail@v9@fmt@@QEAA_KN@Z
	??$?RN@?$arg_formatter@D@detail@v9@fmt@@QEAA?AVappender@23@N@Z
	??$?RN@?$custom_formatter@D@detail@v9@fmt@@QEBAXN@Z
	??$?RN@?$default_arg_formatter@D@detail@v9@fmt@@QEAA?AVappender@23@N@Z
	??$?RO$0A@@?$precision_checker@Uerror_handler@detail@v9@fmt@@@detail@v9@fmt@@QEAA_KO@Z
	??$?RO$0A@@?$width_checker@Uerror_handler@detail@v9@fmt@@@detail@v9@fmt@@QEAA_KO@Z
	??$?RO@?$arg_formatter@D@detail@v9@fmt@@QEAA?AVappender@23@O@Z
	??$?RO@?$custom_formatter@D@detail@v9@fmt@@QEBAXO@Z
	??$?RO@?$default_arg_formatter@D@detail@v9@fmt@@QEAA?AVappender@23@O@Z
	??$?RPEBD$0A@@?$precision_checker@Uerror_handler@detail@v9@fmt@@@detail@v9@fmt@@QEAA_KPEBD@Z
	??$?RPEBD$0A@@?$width_checker@Uerror_handler@detail@v9@fmt@@@detail@v9@fmt@@QEAA_KPEBD@Z
	??$?RPEBD@?$arg_formatter@D@detail@v9@fmt@@QEAA?AVappender@23@PEBD@Z
	??$?RPEBD@?$custom_formatter@D@detail@v9@fmt@@QEBAXPEBD@Z
	??$?RPEBD@?$default_arg_formatter@D@detail@v9@fmt@@QEAA?AVappender@23@PEBD@Z
	??$?RPEBX$0A@@?$precision_checker@Uerror_handler@detail@v9@fmt@@@detail@v9@fmt@@QEAA_KPEBX@Z
	??$?RPEBX$0A@@?$width_checker@Uerror_handler@detail@v9@fmt@@@detail@v9@fmt@@QEAA_KPEBX@Z
	??$?RPEBX@?$arg_formatter@D@detail@v9@fmt@@QEAA?AVappender@23@PEBX@Z
	??$?RPEBX@?$custom_formatter@D@detail@v9@fmt@@QEBAXPEBX@Z
	??$?RPEBX@?$default_arg_formatter@D@detail@v9@fmt@@QEAA?AVappender@23@PEBX@Z
	??$?RUmonostate@v9@fmt@@$0A@@?$precision_checker@Uerror_handler@detail@v9@fmt@@@detail@v9@fmt@@QEAA_KUmonostate@23@@Z
	??$?RUmonostate@v9@fmt@@$0A@@?$width_checker@Uerror_handler@detail@v9@fmt@@@detail@v9@fmt@@QEAA_KUmonostate@23@@Z
	??$?RUmonostate@v9@fmt@@@?$arg_formatter@D@detail@v9@fmt@@QEAA?AVappender@23@Umonostate@23@@Z
	??$?RUmonostate@v9@fmt@@@?$custom_formatter@D@detail@v9@fmt@@QEBAXUmonostate@23@@Z
	??$?RUmonostate@v9@fmt@@@?$default_arg_formatter@D@detail@v9@fmt@@QEAA?AVappender@23@Umonostate@23@@Z
	??$?RV?$basic_string@DU?$char_traits@D@std@@V?$allocator@D@2@@std@@@?$_Uhash_compare@V?$basic_string@DU?$char_traits@D@std@@V?$allocator@D@2@@std@@U?$hash@V?$basic_string@DU?$char_traits@D@std@@V?$allocator@D@2@@std@@@2@U?$equal_to@V?$basic_string@DU?$char_traits@D@std@@V?$allocator@D@2@@std@@@2@@std@@QEBA_KAEBV?$basic_string@DU?$char_traits@D@std@@V?$allocator@D@2@@1@@Z
	??$?RV?$basic_string@DU?$char_traits@D@std@@V?$allocator@D@2@@std@@V01@@?$_Uhash_compare@V?$basic_string@DU?$char_traits@D@std@@V?$allocator@D@2@@std@@U?$hash@V?$basic_string@DU?$char_traits@D@std@@V?$allocator@D@2@@std@@@2@U?$equal_to@V?$basic_string@DU?$char_traits@D@std@@V?$allocator@D@2@@std@@@2@@std@@QEBA_NAEBV?$basic_string@DU?$char_traits@D@std@@V?$allocator@D@2@@1@0@Z
	??$?RV?$basic_string_view@D@v9@fmt@@$0A@@?$precision_checker@Uerror_handler@detail@v9@fmt@@@detail@v9@fmt@@QEAA_KV?$basic_string_view@D@23@@Z
	??$?RV?$basic_string_view@D@v9@fmt@@$0A@@?$width_checker@Uerror_handler@detail@v9@fmt@@@detail@v9@fmt@@QEAA_KV?$basic_string_view@D@23@@Z
	??$?RV?$basic_string_view@D@v9@fmt@@@?$arg_formatter@D@detail@v9@fmt@@QEAA?AVappender@23@V?$basic_string_view@D@23@@Z
	??$?RV?$basic_string_view@D@v9@fmt@@@?$custom_formatter@D@detail@v9@fmt@@QEBAXV?$basic_string_view@D@23@@Z
	??$?RV?$basic_string_view@D@v9@fmt@@@?$default_arg_formatter@D@detail@v9@fmt@@QEAA?AVappender@23@V?$basic_string_view@D@23@@Z
	??$?RVhandle@?$basic_format_arg@V?$basic_format_context@Vappender@v9@fmt@@D@v9@fmt@@@v9@fmt@@$0A@@?$precision_checker@Uerror_handler@detail@v9@fmt@@@detail@v9@fmt@@QEAA_KVhandle@?$basic_format_arg@V?$basic_format_context@Vappender@v9@fmt@@D@v9@fmt@@@23@@Z
	??$?RVhandle@?$basic_format_arg@V?$basic_format_context@Vappender@v9@fmt@@D@v9@fmt@@@v9@fmt@@$0A@@?$width_checker@Uerror_handler@detail@v9@fmt@@@detail@v9@fmt@@QEAA_KVhandle@?$basic_format_arg@V?$basic_format_context@Vappender@v9@fmt@@D@v9@fmt@@@23@@Z
	??$?R_J$0A@@?$precision_checker@Uerror_handler@detail@v9@fmt@@@detail@v9@fmt@@QEAA_K_J@Z
	??$?R_J$0A@@?$width_checker@Uerror_handler@detail@v9@fmt@@@detail@v9@fmt@@QEAA_K_J@Z
	??$?R_J@?$arg_formatter@D@detail@v9@fmt@@QEAA?AVappender@23@_J@Z
	??$?R_J@?$custom_formatter@D@detail@v9@fmt@@QEBAX_J@Z
	??$?R_J@?$default_arg_formatter@D@detail@v9@fmt@@QEAA?AVappender@23@_J@Z
	??$?R_K$0A@@?$precision_checker@Uerror_handler@detail@v9@fmt@@@detail@v9@fmt@@QEAA_K_K@Z
	??$?R_K$0A@@?$width_checker@Uerror_handler@detail@v9@fmt@@@detail@v9@fmt@@QEAA_K_K@Z
	??$?R_K@?$arg_formatter@D@detail@v9@fmt@@QEAA?AVappender@23@_K@Z
	??$?R_K@?$custom_formatter@D@detail@v9@fmt@@QEBAX_K@Z
	??$?R_K@?$default_arg_formatter@D@detail@v9@fmt@@QEAA?AVappender@23@_K@Z
	??$?R_N$0A@@?$precision_checker@Uerror_handler@detail@v9@fmt@@@detail@v9@fmt@@QEAA_K_N@Z
	??$?R_N$0A@@?$width_checker@Uerror_handler@detail@v9@fmt@@@detail@v9@fmt@@QEAA_K_N@Z
	??$?R_N@?$arg_formatter@D@detail@v9@fmt@@QEAA?AVappender@23@_N@Z
	??$?R_N@?$custom_formatter@D@detail@v9@fmt@@QEBAX_N@Z
	??$?R_N@?$default_arg_formatter@D@detail@v9@fmt@@QEAA?AVappender@23@_N@Z
	??$?XH@bigint@detail@v9@fmt@@QEAAAEAV0123@H@Z
	??$?XVuint128_fallback@detail@v9@fmt@@@bigint@detail@v9@fmt@@QEAAAEAV0123@Vuint128_fallback@123@@Z
	??$Dispatch@VKeyPressedEvent@Engine@@@EventDispatcher@Engine@@QEAA_NV?$function@$$A6A_NAEAVKeyPressedEvent@Engine@@@Z@std@@@Z
	??$Dispatch@VKeyReleasedEvent@Engine@@@EventDispatcher@Engine@@QEAA_NV?$function@$$A6A_NAEAVKeyReleasedEvent@Engine@@@Z@std@@@Z
	??$Dispatch@VKeyTypedEvent@Engine@@@EventDispatcher@Engine@@QEAA_NV?$function@$$A6A_NAEAVKeyTypedEvent@Engine@@@Z@std@@@Z
	??$Dispatch@VMouseButtonPressedEvent@Engine@@@EventDispatcher@Engine@@QEAA_NV?$function@$$A6A_NAEAVMouseButtonPressedEvent@Engine@@@Z@std@@@Z
	??$Dispatch@VMouseButtonReleasedEvent@Engine@@@EventDispatcher@Engine@@QEAA_NV?$function@$$A6A_NAEAVMouseButtonReleasedEvent@Engine@@@Z@std@@@Z
	??$Dispatch@VMouseMovedEvent@Engine@@@EventDispatcher@Engine@@QEAA_NV?$function@$$A6A_NAEAVMouseMovedEvent@Engine@@@Z@std@@@Z
	??$Dispatch@VMouseScrolledEvent@Engine@@@EventDispatcher@Engine@@QEAA_NV?$function@$$A6A_NAEAVMouseScrolledEvent@Engine@@@Z@std@@@Z
	??$Dispatch@VWindowCloseEvent@Engine@@@EventDispatcher@Engine@@QEAA_NV?$function@$$A6A_NAEAVWindowCloseEvent@Engine@@@Z@std@@@Z
	??$Dispatch@VWindowResizeEvent@Engine@@@EventDispatcher@Engine@@QEAA_NV?$function@$$A6A_NAEAVWindowResizeEvent@Engine@@@Z@std@@@Z
	??$IM_DELETE@UImGui_ImplOpenGL3_Data@@@@YAXPEAUImGui_ImplOpenGL3_Data@@@Z
	??$_Adl_verify_range@PEADPEAD@std@@YAXAEBQEAD0@Z
	??$_Adl_verify_range@PEAHPEAH@std@@YAXAEBQEAH0@Z
	??$_Adl_verify_range@PEAIPEAI@std@@YAXAEBQEAI0@Z
	??$_Adl_verify_range@PEAV?$_List_unchecked_iterator@V?$_List_val@U?$_List_simple_types@U?$pair@$$CBDV?$unique_ptr@Vcustom_flag_formatter@spdlog@@U?$default_delete@Vcustom_flag_formatter@spdlog@@@std@@@std@@@std@@@std@@@std@@@std@@PEAV12@@std@@YAXAEBQEAV?$_List_unchecked_iterator@V?$_List_val@U?$_List_simple_types@U?$pair@$$CBDV?$unique_ptr@Vcustom_flag_formatter@spdlog@@U?$default_delete@Vcustom_flag_formatter@spdlog@@@std@@@std@@@std@@@std@@@std@@@0@0@Z
	??$_Adl_verify_range@PEAV?$_List_unchecked_iterator@V?$_List_val@U?$_List_simple_types@U?$pair@$$CBV?$basic_string@DU?$char_traits@D@std@@V?$allocator@D@2@@std@@V?$shared_ptr@Vlogger@spdlog@@@2@@std@@@std@@@std@@@std@@PEAV12@@std@@YAXAEBQEAV?$_List_unchecked_iterator@V?$_List_val@U?$_List_simple_types@U?$pair@$$CBV?$basic_string@DU?$char_traits@D@std@@V?$allocator@D@2@@std@@V?$shared_ptr@Vlogger@spdlog@@@2@@std@@@std@@@std@@@0@0@Z
	??$_Adl_verify_range@PEAV?$_List_unchecked_iterator@V?$_List_val@U?$_List_simple_types@U?$pair@$$CBV?$basic_string@DU?$char_traits@D@std@@V?$allocator@D@2@@std@@W4level_enum@level@spdlog@@@std@@@std@@@std@@@std@@PEAV12@@std@@YAXAEBQEAV?$_List_unchecked_iterator@V?$_List_val@U?$_List_simple_types@U?$pair@$$CBV?$basic_string@DU?$char_traits@D@std@@V?$allocator@D@2@@std@@W4level_enum@level@spdlog@@@std@@@std@@@std@@@0@0@Z
	??$_Adl_verify_range@PEBDPEBD@std@@YAXAEBQEBD0@Z
	??$_Adl_verify_range@PEBIPEBI@std@@YAXAEBQEBI0@Z
	??$_Adl_verify_range@PEBV?$shared_ptr@Vsink@sinks@spdlog@@@std@@PEBV12@@std@@YAXAEBQEBV?$shared_ptr@Vsink@sinks@spdlog@@@0@0@Z
	??$_Adl_verify_range@V?$_Vector_iterator@V?$_Vector_val@U?$_Simple_types@PEAVLayer@Engine@@@std@@@std@@@std@@V12@@std@@YAXAEBV?$_Vector_iterator@V?$_Vector_val@U?$_Simple_types@PEAVLayer@Engine@@@std@@@std@@@0@0@Z
	??$_Adl_verify_range@V?$reverse_iterator@PEBD@std@@V12@@std@@YAXAEBV?$reverse_iterator@PEBD@0@0@Z
	??$_Alloc_proxy@V?$allocator@U_Container_proxy@std@@@std@@@_Container_base12@std@@QEAAX$$QEAV?$allocator@U_Container_proxy@std@@@1@@Z
	??$_Allocate@$0BA@U_Default_allocate_traits@std@@$0A@@std@@YAPEAX_K@Z
	??$_Allocate_at_least_helper@V?$allocator@D@std@@@std@@YAPEADAEAV?$allocator@D@0@AEA_K@Z
	??$_Allocate_at_least_helper@V?$allocator@PEAVLayer@Engine@@@std@@@std@@YAPEAPEAVLayer@Engine@@AEAV?$allocator@PEAVLayer@Engine@@@0@AEA_K@Z
	??$_Allocate_at_least_helper@V?$allocator@V?$shared_ptr@Vsink@sinks@spdlog@@@std@@@std@@@std@@YAPEAV?$shared_ptr@Vsink@sinks@spdlog@@@0@AEAV?$allocator@V?$shared_ptr@Vsink@sinks@spdlog@@@std@@@0@AEA_K@Z
	??$_Allocate_at_least_helper@V?$allocator@V?$unique_ptr@Vflag_formatter@details@spdlog@@U?$default_delete@Vflag_formatter@details@spdlog@@@std@@@std@@@std@@@std@@YAPEAV?$unique_ptr@Vflag_formatter@details@spdlog@@U?$default_delete@Vflag_formatter@details@spdlog@@@std@@@0@AEAV?$allocator@V?$unique_ptr@Vflag_formatter@details@spdlog@@U?$default_delete@Vflag_formatter@details@spdlog@@@std@@@std@@@0@AEA_K@Z
	??$_Allocate_at_least_helper@V?$allocator@Vlog_msg_buffer@details@spdlog@@@std@@@std@@YAPEAVlog_msg_buffer@details@spdlog@@AEAV?$allocator@Vlog_msg_buffer@details@spdlog@@@0@AEA_K@Z
	??$_Allocate_for_capacity@$0A@@?$basic_string@DU?$char_traits@D@std@@V?$allocator@D@2@@std@@CAPEADAEAV?$allocator@D@1@AEA_K@Z
	??$_Allocate_manually_vector_aligned@U_Default_allocate_traits@std@@@std@@YAPEAX_K@Z
	??$_Assign_counted_range@PEAPEAVLayer@Engine@@@?$vector@PEAVLayer@Engine@@V?$allocator@PEAVLayer@Engine@@@std@@@std@@AEAAXPEAPEAVLayer@Engine@@_K@Z
	??$_Assign_counted_range@PEAVlog_msg_buffer@details@spdlog@@@?$vector@Vlog_msg_buffer@details@spdlog@@V?$allocator@Vlog_msg_buffer@details@spdlog@@@std@@@std@@AEAAXPEAVlog_msg_buffer@details@spdlog@@_K@Z
	??$_Atomic_address_as@DU?$_Atomic_padded@_N@std@@@std@@YAPECDAEAU?$_Atomic_padded@_N@0@@Z
	??$_Atomic_address_as@DU?$_Atomic_padded@_N@std@@@std@@YAPEDDAEBU?$_Atomic_padded@_N@0@@Z
	??$_Atomic_address_as@HU?$_Atomic_padded@H@std@@@std@@YAPECHAEAU?$_Atomic_padded@H@0@@Z
	??$_Atomic_address_as@HU?$_Atomic_padded@H@std@@@std@@YAPEDHAEBU?$_Atomic_padded@H@0@@Z
	??$_Atomic_reinterpret_as@D_N@std@@YADAEB_N@Z
	??$_Atomic_reinterpret_as@HH@std@@YAHAEBH@Z
	??$_Bit_cast@_KT_Addr_storage@error_category@std@@$0A@@std@@YA_KAEBT_Addr_storage@error_category@0@@Z
	??$_Buyheadnode@V?$allocator@U?$_Tree_node@U?$pair@$$CBV?$basic_string@DU?$char_traits@D@std@@V?$allocator@D@2@@std@@V12@@std@@PEAX@std@@@std@@@?$_Tree_node@U?$pair@$$CBV?$basic_string@DU?$char_traits@D@std@@V?$allocator@D@2@@std@@V12@@std@@PEAX@std@@SAPEAU01@AEAV?$allocator@U?$_Tree_node@U?$pair@$$CBV?$basic_string@DU?$char_traits@D@std@@V?$allocator@D@2@@std@@V12@@std@@PEAX@std@@@1@@Z
	??$_Call@AEAP8Application@Engine@@EAAXAEAVEvent@2@@ZAEAPEAV12@AEAV32@@?$_Invoker_ret@U_Unforced@std@@@std@@SAXAEAP8Application@Engine@@EAAXAEAVEvent@3@@ZAEAPEAV23@0@Z
	??$_Call@AEAP8Application@Engine@@EAA_NAEAVWindowCloseEvent@2@@ZAEAPEAV12@AEAV32@@?$_Invoker_ret@U_Unforced@std@@@std@@SA_NAEAP8Application@Engine@@EAA_NAEAVWindowCloseEvent@3@@ZAEAPEAV23@0@Z
	??$_Call@AEAP8ImGuiLayer@Engine@@EAA_NAEAVKeyPressedEvent@2@@ZAEAPEAV12@AEAV32@@?$_Invoker_ret@U_Unforced@std@@@std@@SA_NAEAP8ImGuiLayer@Engine@@EAA_NAEAVKeyPressedEvent@3@@ZAEAPEAV23@0@Z
	??$_Call@AEAP8ImGuiLayer@Engine@@EAA_NAEAVKeyReleasedEvent@2@@ZAEAPEAV12@AEAV32@@?$_Invoker_ret@U_Unforced@std@@@std@@SA_NAEAP8ImGuiLayer@Engine@@EAA_NAEAVKeyReleasedEvent@3@@ZAEAPEAV23@0@Z
	??$_Call@AEAP8ImGuiLayer@Engine@@EAA_NAEAVKeyTypedEvent@2@@ZAEAPEAV12@AEAV32@@?$_Invoker_ret@U_Unforced@std@@@std@@SA_NAEAP8ImGuiLayer@Engine@@EAA_NAEAVKeyTypedEvent@3@@ZAEAPEAV23@0@Z
	??$_Call@AEAP8ImGuiLayer@Engine@@EAA_NAEAVMouseButtonPressedEvent@2@@ZAEAPEAV12@AEAV32@@?$_Invoker_ret@U_Unforced@std@@@std@@SA_NAEAP8ImGuiLayer@Engine@@EAA_NAEAVMouseButtonPressedEvent@3@@ZAEAPEAV23@0@Z
	??$_Call@AEAP8ImGuiLayer@Engine@@EAA_NAEAVMouseButtonReleasedEvent@2@@ZAEAPEAV12@AEAV32@@?$_Invoker_ret@U_Unforced@std@@@std@@SA_NAEAP8ImGuiLayer@Engine@@EAA_NAEAVMouseButtonReleasedEvent@3@@ZAEAPEAV23@0@Z
	??$_Call@AEAP8ImGuiLayer@Engine@@EAA_NAEAVMouseMovedEvent@2@@ZAEAPEAV12@AEAV32@@?$_Invoker_ret@U_Unforced@std@@@std@@SA_NAEAP8ImGuiLayer@Engine@@EAA_NAEAVMouseMovedEvent@3@@ZAEAPEAV23@0@Z
	??$_Call@AEAP8ImGuiLayer@Engine@@EAA_NAEAVMouseScrolledEvent@2@@ZAEAPEAV12@AEAV32@@?$_Invoker_ret@U_Unforced@std@@@std@@SA_NAEAP8ImGuiLayer@Engine@@EAA_NAEAVMouseScrolledEvent@3@@ZAEAPEAV23@0@Z
	??$_Call@AEAP8ImGuiLayer@Engine@@EAA_NAEAVWindowResizeEvent@2@@ZAEAPEAV12@AEAV32@@?$_Invoker_ret@U_Unforced@std@@@std@@SA_NAEAP8ImGuiLayer@Engine@@EAA_NAEAVWindowResizeEvent@3@@ZAEAPEAV23@0@Z
	??$_Call_binder@U_Unforced@std@@$0A@$00P8Application@Engine@@EAAXAEAVEvent@4@@ZV?$tuple@PEAVApplication@Engine@@U?$_Ph@$00@std@@@2@V?$tuple@AEAVEvent@Engine@@@2@@std@@YAXU?$_Invoker_ret@U_Unforced@std@@@0@U?$integer_sequence@_K$0A@$00@0@AEAP8Application@Engine@@EAAXAEAVEvent@4@@ZAEAV?$tuple@PEAVApplication@Engine@@U?$_Ph@$00@std@@@0@$$QEAV?$tuple@AEAVEvent@Engine@@@0@@Z
	??$_Call_binder@U_Unforced@std@@$0A@$00P8Application@Engine@@EAA_NAEAVWindowCloseEvent@4@@ZV?$tuple@PEAVApplication@Engine@@U?$_Ph@$00@std@@@2@V?$tuple@AEAVWindowCloseEvent@Engine@@@2@@std@@YA_NU?$_Invoker_ret@U_Unforced@std@@@0@U?$integer_sequence@_K$0A@$00@0@AEAP8Application@Engine@@EAA_NAEAVWindowCloseEvent@4@@ZAEAV?$tuple@PEAVApplication@Engine@@U?$_Ph@$00@std@@@0@$$QEAV?$tuple@AEAVWindowCloseEvent@Engine@@@0@@Z
	??$_Call_binder@U_Unforced@std@@$0A@$00P8ImGuiLayer@Engine@@EAA_NAEAVKeyPressedEvent@4@@ZV?$tuple@PEAVImGuiLayer@Engine@@U?$_Ph@$00@std@@@2@V?$tuple@AEAVKeyPressedEvent@Engine@@@2@@std@@YA_NU?$_Invoker_ret@U_Unforced@std@@@0@U?$integer_sequence@_K$0A@$00@0@AEAP8ImGuiLayer@Engine@@EAA_NAEAVKeyPressedEvent@4@@ZAEAV?$tuple@PEAVImGuiLayer@Engine@@U?$_Ph@$00@std@@@0@$$QEAV?$tuple@AEAVKeyPressedEvent@Engine@@@0@@Z
	??$_Call_binder@U_Unforced@std@@$0A@$00P8ImGuiLayer@Engine@@EAA_NAEAVKeyReleasedEvent@4@@ZV?$tuple@PEAVImGuiLayer@Engine@@U?$_Ph@$00@std@@@2@V?$tuple@AEAVKeyReleasedEvent@Engine@@@2@@std@@YA_NU?$_Invoker_ret@U_Unforced@std@@@0@U?$integer_sequence@_K$0A@$00@0@AEAP8ImGuiLayer@Engine@@EAA_NAEAVKeyReleasedEvent@4@@ZAEAV?$tuple@PEAVImGuiLayer@Engine@@U?$_Ph@$00@std@@@0@$$QEAV?$tuple@AEAVKeyReleasedEvent@Engine@@@0@@Z
	??$_Call_binder@U_Unforced@std@@$0A@$00P8ImGuiLayer@Engine@@EAA_NAEAVKeyTypedEvent@4@@ZV?$tuple@PEAVImGuiLayer@Engine@@U?$_Ph@$00@std@@@2@V?$tuple@AEAVKeyTypedEvent@Engine@@@2@@std@@YA_NU?$_Invoker_ret@U_Unforced@std@@@0@U?$integer_sequence@_K$0A@$00@0@AEAP8ImGuiLayer@Engine@@EAA_NAEAVKeyTypedEvent@4@@ZAEAV?$tuple@PEAVImGuiLayer@Engine@@U?$_Ph@$00@std@@@0@$$QEAV?$tuple@AEAVKeyTypedEvent@Engine@@@0@@Z
	??$_Call_binder@U_Unforced@std@@$0A@$00P8ImGuiLayer@Engine@@EAA_NAEAVMouseButtonPressedEvent@4@@ZV?$tuple@PEAVImGuiLayer@Engine@@U?$_Ph@$00@std@@@2@V?$tuple@AEAVMouseButtonPressedEvent@Engine@@@2@@std@@YA_NU?$_Invoker_ret@U_Unforced@std@@@0@U?$integer_sequence@_K$0A@$00@0@AEAP8ImGuiLayer@Engine@@EAA_NAEAVMouseButtonPressedEvent@4@@ZAEAV?$tuple@PEAVImGuiLayer@Engine@@U?$_Ph@$00@std@@@0@$$QEAV?$tuple@AEAVMouseButtonPressedEvent@Engine@@@0@@Z
	??$_Call_binder@U_Unforced@std@@$0A@$00P8ImGuiLayer@Engine@@EAA_NAEAVMouseButtonReleasedEvent@4@@ZV?$tuple@PEAVImGuiLayer@Engine@@U?$_Ph@$00@std@@@2@V?$tuple@AEAVMouseButtonReleasedEvent@Engine@@@2@@std@@YA_NU?$_Invoker_ret@U_Unforced@std@@@0@U?$integer_sequence@_K$0A@$00@0@AEAP8ImGuiLayer@Engine@@EAA_NAEAVMouseButtonReleasedEvent@4@@ZAEAV?$tuple@PEAVImGuiLayer@Engine@@U?$_Ph@$00@std@@@0@$$QEAV?$tuple@AEAVMouseButtonReleasedEvent@Engine@@@0@@Z
	??$_Call_binder@U_Unforced@std@@$0A@$00P8ImGuiLayer@Engine@@EAA_NAEAVMouseMovedEvent@4@@ZV?$tuple@PEAVImGuiLayer@Engine@@U?$_Ph@$00@std@@@2@V?$tuple@AEAVMouseMovedEvent@Engine@@@2@@std@@YA_NU?$_Invoker_ret@U_Unforced@std@@@0@U?$integer_sequence@_K$0A@$00@0@AEAP8ImGuiLayer@Engine@@EAA_NAEAVMouseMovedEvent@4@@ZAEAV?$tuple@PEAVImGuiLayer@Engine@@U?$_Ph@$00@std@@@0@$$QEAV?$tuple@AEAVMouseMovedEvent@Engine@@@0@@Z
	??$_Call_binder@U_Unforced@std@@$0A@$00P8ImGuiLayer@Engine@@EAA_NAEAVMouseScrolledEvent@4@@ZV?$tuple@PEAVImGuiLayer@Engine@@U?$_Ph@$00@std@@@2@V?$tuple@AEAVMouseScrolledEvent@Engine@@@2@@std@@YA_NU?$_Invoker_ret@U_Unforced@std@@@0@U?$integer_sequence@_K$0A@$00@0@AEAP8ImGuiLayer@Engine@@EAA_NAEAVMouseScrolledEvent@4@@ZAEAV?$tuple@PEAVImGuiLayer@Engine@@U?$_Ph@$00@std@@@0@$$QEAV?$tuple@AEAVMouseScrolledEvent@Engine@@@0@@Z
	??$_Call_binder@U_Unforced@std@@$0A@$00P8ImGuiLayer@Engine@@EAA_NAEAVWindowResizeEvent@4@@ZV?$tuple@PEAVImGuiLayer@Engine@@U?$_Ph@$00@std@@@2@V?$tuple@AEAVWindowResizeEvent@Engine@@@2@@std@@YA_NU?$_Invoker_ret@U_Unforced@std@@@0@U?$integer_sequence@_K$0A@$00@0@AEAP8ImGuiLayer@Engine@@EAA_NAEAVWindowResizeEvent@4@@ZAEAV?$tuple@PEAVImGuiLayer@Engine@@U?$_Ph@$00@std@@@0@$$QEAV?$tuple@AEAVWindowResizeEvent@Engine@@@0@@Z
	??$_Construct@$00PEBD@?$basic_string@DU?$char_traits@D@std@@V?$allocator@D@2@@std@@AEAAXQEBD_K@Z
	??$_Construct@$01PEBD@?$basic_string@DU?$char_traits@D@std@@V?$allocator@D@2@@std@@AEAAXQEBD_K@Z
	??$_Construct_in_place@DAEAD@std@@YAXAEAD0@Z
	??$_Construct_in_place@HAEAH@std@@YAXAEAH0@Z
	??$_Construct_in_place@IAEAI@std@@YAXAEAI0@Z
	??$_Construct_in_place@IAEBH@std@@YAXAEAIAEBH@Z
	??$_Construct_in_place@PEADAEAPEAD@std@@YAXAEAPEAD0@Z
	??$_Construct_in_place@PEADAEBQEAD@std@@YAXAEAPEADAEBQEAD@Z
	??$_Construct_in_place@PEAU?$_List_node@U?$pair@$$CBDV?$unique_ptr@Vcustom_flag_formatter@spdlog@@U?$default_delete@Vcustom_flag_formatter@spdlog@@@std@@@std@@@std@@PEAX@std@@AEAPEAU12@@std@@YAXAEAPEAU?$_List_node@U?$pair@$$CBDV?$unique_ptr@Vcustom_flag_formatter@spdlog@@U?$default_delete@Vcustom_flag_formatter@spdlog@@@std@@@std@@@std@@PEAX@0@0@Z
	??$_Construct_in_place@PEAU?$_List_node@U?$pair@$$CBDV?$unique_ptr@Vcustom_flag_formatter@spdlog@@U?$default_delete@Vcustom_flag_formatter@spdlog@@@std@@@std@@@std@@PEAX@std@@AEBQEAU12@@std@@YAXAEAPEAU?$_List_node@U?$pair@$$CBDV?$unique_ptr@Vcustom_flag_formatter@spdlog@@U?$default_delete@Vcustom_flag_formatter@spdlog@@@std@@@std@@@std@@PEAX@0@AEBQEAU10@@Z
	??$_Construct_in_place@PEAU?$_List_node@U?$pair@$$CBV?$basic_string@DU?$char_traits@D@std@@V?$allocator@D@2@@std@@V?$shared_ptr@Vlogger@spdlog@@@2@@std@@PEAX@std@@AEAPEAU12@@std@@YAXAEAPEAU?$_List_node@U?$pair@$$CBV?$basic_string@DU?$char_traits@D@std@@V?$allocator@D@2@@std@@V?$shared_ptr@Vlogger@spdlog@@@2@@std@@PEAX@0@0@Z
	??$_Construct_in_place@PEAU?$_List_node@U?$pair@$$CBV?$basic_string@DU?$char_traits@D@std@@V?$allocator@D@2@@std@@V?$shared_ptr@Vlogger@spdlog@@@2@@std@@PEAX@std@@AEBQEAU12@@std@@YAXAEAPEAU?$_List_node@U?$pair@$$CBV?$basic_string@DU?$char_traits@D@std@@V?$allocator@D@2@@std@@V?$shared_ptr@Vlogger@spdlog@@@2@@std@@PEAX@0@AEBQEAU10@@Z
	??$_Construct_in_place@PEAU?$_List_node@U?$pair@$$CBV?$basic_string@DU?$char_traits@D@std@@V?$allocator@D@2@@std@@W4level_enum@level@spdlog@@@std@@PEAX@std@@AEAPEAU12@@std@@YAXAEAPEAU?$_List_node@U?$pair@$$CBV?$basic_string@DU?$char_traits@D@std@@V?$allocator@D@2@@std@@W4level_enum@level@spdlog@@@std@@PEAX@0@0@Z
	??$_Construct_in_place@PEAU?$_Tree_node@U?$pair@$$CBV?$basic_string@DU?$char_traits@D@std@@V?$allocator@D@2@@std@@V12@@std@@PEAX@std@@AEBQEAU12@@std@@YAXAEAPEAU?$_Tree_node@U?$pair@$$CBV?$basic_string@DU?$char_traits@D@std@@V?$allocator@D@2@@std@@V12@@std@@PEAX@0@AEBQEAU10@@Z
	??$_Construct_in_place@PEAVLayer@Engine@@AEAPEAV12@@std@@YAXAEAPEAVLayer@Engine@@0@Z
	??$_Construct_in_place@U_Container_proxy@std@@PEAU_Container_base12@2@@std@@YAXAEAU_Container_proxy@0@$$QEAPEAU_Container_base12@0@@Z
	??$_Construct_in_place@V?$_List_unchecked_iterator@V?$_List_val@U?$_List_simple_types@U?$pair@$$CBDV?$unique_ptr@Vcustom_flag_formatter@spdlog@@U?$default_delete@Vcustom_flag_formatter@spdlog@@@std@@@std@@@std@@@std@@@std@@@std@@AEBV12@@std@@YAXAEAV?$_List_unchecked_iterator@V?$_List_val@U?$_List_simple_types@U?$pair@$$CBDV?$unique_ptr@Vcustom_flag_formatter@spdlog@@U?$default_delete@Vcustom_flag_formatter@spdlog@@@std@@@std@@@std@@@std@@@std@@@0@AEBV10@@Z
	??$_Construct_in_place@V?$_List_unchecked_iterator@V?$_List_val@U?$_List_simple_types@U?$pair@$$CBV?$basic_string@DU?$char_traits@D@std@@V?$allocator@D@2@@std@@V?$shared_ptr@Vlogger@spdlog@@@2@@std@@@std@@@std@@@std@@AEBV12@@std@@YAXAEAV?$_List_unchecked_iterator@V?$_List_val@U?$_List_simple_types@U?$pair@$$CBV?$basic_string@DU?$char_traits@D@std@@V?$allocator@D@2@@std@@V?$shared_ptr@Vlogger@spdlog@@@2@@std@@@std@@@std@@@0@AEBV10@@Z
	??$_Construct_in_place@V?$_List_unchecked_iterator@V?$_List_val@U?$_List_simple_types@U?$pair@$$CBV?$basic_string@DU?$char_traits@D@std@@V?$allocator@D@2@@std@@W4level_enum@level@spdlog@@@std@@@std@@@std@@@std@@AEBV12@@std@@YAXAEAV?$_List_unchecked_iterator@V?$_List_val@U?$_List_simple_types@U?$pair@$$CBV?$basic_string@DU?$char_traits@D@std@@V?$allocator@D@2@@std@@W4level_enum@level@spdlog@@@std@@@std@@@std@@@0@AEBV10@@Z
	??$_Construct_in_place@V?$unique_ptr@Vflag_formatter@details@spdlog@@U?$default_delete@Vflag_formatter@details@spdlog@@@std@@@std@@V12@@std@@YAXAEAV?$unique_ptr@Vflag_formatter@details@spdlog@@U?$default_delete@Vflag_formatter@details@spdlog@@@std@@@0@$$QEAV10@@Z
	??$_Construct_in_place@V?$wincolor_stdout_sink@Uconsole_mutex@details@spdlog@@@sinks@spdlog@@$$V@std@@YAXAEAV?$wincolor_stdout_sink@Uconsole_mutex@details@spdlog@@@sinks@spdlog@@@Z
	??$_Construct_in_place@V?$wincolor_stdout_sink@Uconsole_mutex@details@spdlog@@@sinks@spdlog@@AEAW4color_mode@3@@std@@YAXAEAV?$wincolor_stdout_sink@Uconsole_mutex@details@spdlog@@@sinks@spdlog@@AEAW4color_mode@3@@Z
	??$_Construct_in_place@Vlogger@spdlog@@AEAPEBDV?$shared_ptr@V?$wincolor_stdout_sink@Uconsole_mutex@details@spdlog@@@sinks@spdlog@@@std@@@std@@YAXAEAVlogger@spdlog@@AEAPEBD$$QEAV?$shared_ptr@V?$wincolor_stdout_sink@Uconsole_mutex@details@spdlog@@@sinks@spdlog@@@0@@Z
	??$_Construct_in_place@Vlogger@spdlog@@AEAV12@@std@@YAXAEAVlogger@spdlog@@0@Z
	??$_Construct_in_place@Vlogger@spdlog@@V?$basic_string@DU?$char_traits@D@std@@V?$allocator@D@2@@std@@V?$shared_ptr@V?$wincolor_stdout_sink@Uconsole_mutex@details@spdlog@@@sinks@spdlog@@@4@@std@@YAXAEAVlogger@spdlog@@$$QEAV?$basic_string@DU?$char_traits@D@std@@V?$allocator@D@2@@0@$$QEAV?$shared_ptr@V?$wincolor_stdout_sink@Uconsole_mutex@details@spdlog@@@sinks@spdlog@@@0@@Z
	??$_Construct_n@$$V@?$vector@Vlog_msg_buffer@details@spdlog@@V?$allocator@Vlog_msg_buffer@details@spdlog@@@std@@@std@@AEAAX_K@Z
	??$_Construct_n@AEBQEAPEAVLayer@Engine@@AEBQEAPEAV12@@?$vector@PEAVLayer@Engine@@V?$allocator@PEAVLayer@Engine@@@std@@@std@@AEAAX_KAEBQEAPEAVLayer@Engine@@1@Z
	??$_Construct_n@AEBQEAV?$shared_ptr@Vsink@sinks@spdlog@@@std@@AEBQEAV12@@?$vector@V?$shared_ptr@Vsink@sinks@spdlog@@@std@@V?$allocator@V?$shared_ptr@Vsink@sinks@spdlog@@@std@@@2@@std@@AEAAX_KAEBQEAV?$shared_ptr@Vsink@sinks@spdlog@@@1@1@Z
	??$_Construct_n@PEBV?$shared_ptr@Vsink@sinks@spdlog@@@std@@PEBV12@@?$vector@V?$shared_ptr@Vsink@sinks@spdlog@@@std@@V?$allocator@V?$shared_ptr@Vsink@sinks@spdlog@@@std@@@2@@std@@AEAAX_K$$QEAPEBV?$shared_ptr@Vsink@sinks@spdlog@@@1@1@Z
	??$_Convert_size@_K_K@std@@YA_K_K@Z
	??$_Copy_backward_memmove@PEAPEAVLayer@Engine@@PEAPEAV12@@std@@YAPEAPEAVLayer@Engine@@PEAPEAV12@00@Z
	??$_Copy_construct_from@Vlogger@spdlog@@@?$_Ptr_base@Vlogger@spdlog@@@std@@IEAAXAEBV?$shared_ptr@Vlogger@spdlog@@@1@@Z
	??$_Copy_construct_from@Vsink@sinks@spdlog@@@?$_Ptr_base@Vsink@sinks@spdlog@@@std@@IEAAXAEBV?$shared_ptr@Vsink@sinks@spdlog@@@1@@Z
	??$_Copy_memmove@PEADPEAD@std@@YAPEADPEAD00@Z
	??$_Copy_memmove@PEAHPEAH@std@@YAPEAHPEAH00@Z
	??$_Copy_memmove@PEAIPEAI@std@@YAPEAIPEAI00@Z
	??$_Copy_memmove@PEAPEAVLayer@Engine@@PEAPEAV12@@std@@YAPEAPEAVLayer@Engine@@PEAPEAV12@00@Z
	??$_Copy_memmove@PEBDPEAD@std@@YAPEADPEBD0PEAD@Z
	??$_Copy_memmove@PEBIPEAI@std@@YAPEAIPEBI0PEAI@Z
	??$_Copy_memmove_n@PEAPEAVLayer@Engine@@PEAPEAV12@@std@@YAPEAPEAVLayer@Engine@@PEAPEAV12@_K0@Z
	??$_Copy_memmove_n@PEBDPEAD@std@@YAPEADPEBD_KPEAD@Z
	??$_Copy_n_unchecked4@PEAPEAVLayer@Engine@@_KPEAPEAV12@@std@@YAPEAPEAVLayer@Engine@@PEAPEAV12@_K0@Z
	??$_Copy_n_unchecked4@PEAVlog_msg_buffer@details@spdlog@@_KPEAV123@@std@@YAPEAVlog_msg_buffer@details@spdlog@@PEAV123@_K0@Z
	??$_Copy_unchecked@PEBIPEBIPEAI@std@@YAPEAIPEBI0PEAI@Z
	??$_Could_compare_equal_to_value_type@PEAPEAVLayer@Engine@@PEAV12@@std@@YA_NAEBQEAVLayer@Engine@@@Z
	??$_Deallocate@$07$0A@@std@@YAXPEAX_K@Z
	??$_Deallocate@$0BA@$0A@@std@@YAXPEAX_K@Z
	??$_Deallocate_plain@V?$allocator@U_Container_proxy@std@@@std@@@std@@YAXAEAV?$allocator@U_Container_proxy@std@@@0@QEAU_Container_proxy@0@@Z
	??$_Delete_plain_internal@V?$allocator@U_Container_proxy@std@@@std@@@std@@YAXAEAV?$allocator@U_Container_proxy@std@@@0@QEAU_Container_proxy@0@@Z
	??$_Destroy_in_place@PEAD@std@@YAXAEAPEAD@Z
	??$_Destroy_in_place@PEAU?$_List_node@U?$pair@$$CBDV?$unique_ptr@Vcustom_flag_formatter@spdlog@@U?$default_delete@Vcustom_flag_formatter@spdlog@@@std@@@std@@@std@@PEAX@std@@@std@@YAXAEAPEAU?$_List_node@U?$pair@$$CBDV?$unique_ptr@Vcustom_flag_formatter@spdlog@@U?$default_delete@Vcustom_flag_formatter@spdlog@@@std@@@std@@@std@@PEAX@0@@Z
	??$_Destroy_in_place@PEAU?$_List_node@U?$pair@$$CBV?$basic_string@DU?$char_traits@D@std@@V?$allocator@D@2@@std@@V?$shared_ptr@Vlogger@spdlog@@@2@@std@@PEAX@std@@@std@@YAXAEAPEAU?$_List_node@U?$pair@$$CBV?$basic_string@DU?$char_traits@D@std@@V?$allocator@D@2@@std@@V?$shared_ptr@Vlogger@spdlog@@@2@@std@@PEAX@0@@Z
	??$_Destroy_in_place@PEAU?$_List_node@U?$pair@$$CBV?$basic_string@DU?$char_traits@D@std@@V?$allocator@D@2@@std@@W4level_enum@level@spdlog@@@std@@PEAX@std@@@std@@YAXAEAPEAU?$_List_node@U?$pair@$$CBV?$basic_string@DU?$char_traits@D@std@@V?$allocator@D@2@@std@@W4level_enum@level@spdlog@@@std@@PEAX@0@@Z
	??$_Destroy_in_place@PEAU?$_Tree_node@U?$pair@$$CBV?$basic_string@DU?$char_traits@D@std@@V?$allocator@D@2@@std@@V12@@std@@PEAX@std@@@std@@YAXAEAPEAU?$_Tree_node@U?$pair@$$CBV?$basic_string@DU?$char_traits@D@std@@V?$allocator@D@2@@std@@V12@@std@@PEAX@0@@Z
	??$_Destroy_in_place@V?$wincolor_stdout_sink@Uconsole_mutex@details@spdlog@@@sinks@spdlog@@@std@@YAXAEAV?$wincolor_stdout_sink@Uconsole_mutex@details@spdlog@@@sinks@spdlog@@@Z
	??$_Destroy_in_place@Vlogger@spdlog@@@std@@YAXAEAVlogger@spdlog@@@Z
	??$_Destroy_range@PEADPEAD@std@@YAXPEADQEAD@Z
	??$_Destroy_range@PEAHPEAH@std@@YAXPEAHQEAH@Z
	??$_Destroy_range@PEAIPEAI@std@@YAXPEAIQEAI@Z
	??$_Destroy_range@PEAV?$_List_unchecked_iterator@V?$_List_val@U?$_List_simple_types@U?$pair@$$CBDV?$unique_ptr@Vcustom_flag_formatter@spdlog@@U?$default_delete@Vcustom_flag_formatter@spdlog@@@std@@@std@@@std@@@std@@@std@@@std@@PEAV12@@std@@YAXPEAV?$_List_unchecked_iterator@V?$_List_val@U?$_List_simple_types@U?$pair@$$CBDV?$unique_ptr@Vcustom_flag_formatter@spdlog@@U?$default_delete@Vcustom_flag_formatter@spdlog@@@std@@@std@@@std@@@std@@@std@@@0@QEAV10@@Z
	??$_Destroy_range@PEAV?$_List_unchecked_iterator@V?$_List_val@U?$_List_simple_types@U?$pair@$$CBV?$basic_string@DU?$char_traits@D@std@@V?$allocator@D@2@@std@@V?$shared_ptr@Vlogger@spdlog@@@2@@std@@@std@@@std@@@std@@PEAV12@@std@@YAXPEAV?$_List_unchecked_iterator@V?$_List_val@U?$_List_simple_types@U?$pair@$$CBV?$basic_string@DU?$char_traits@D@std@@V?$allocator@D@2@@std@@V?$shared_ptr@Vlogger@spdlog@@@2@@std@@@std@@@std@@@0@QEAV10@@Z
	??$_Destroy_range@PEAV?$_List_unchecked_iterator@V?$_List_val@U?$_List_simple_types@U?$pair@$$CBV?$basic_string@DU?$char_traits@D@std@@V?$allocator@D@2@@std@@W4level_enum@level@spdlog@@@std@@@std@@@std@@@std@@PEAV12@@std@@YAXPEAV?$_List_unchecked_iterator@V?$_List_val@U?$_List_simple_types@U?$pair@$$CBV?$basic_string@DU?$char_traits@D@std@@V?$allocator@D@2@@std@@W4level_enum@level@spdlog@@@std@@@std@@@std@@@0@QEAV10@@Z
	??$_Destroy_range@V?$allocator@PEAVLayer@Engine@@@std@@@std@@YAXPEAPEAVLayer@Engine@@QEAPEAV12@AEAV?$allocator@PEAVLayer@Engine@@@0@@Z
	??$_Destroy_range@V?$allocator@V?$shared_ptr@Vsink@sinks@spdlog@@@std@@@std@@@std@@YAXPEAV?$shared_ptr@Vsink@sinks@spdlog@@@0@QEAV10@AEAV?$allocator@V?$shared_ptr@Vsink@sinks@spdlog@@@std@@@0@@Z
	??$_Destroy_range@V?$allocator@V?$unique_ptr@Vflag_formatter@details@spdlog@@U?$default_delete@Vflag_formatter@details@spdlog@@@std@@@std@@@std@@@std@@YAXPEAV?$unique_ptr@Vflag_formatter@details@spdlog@@U?$default_delete@Vflag_formatter@details@spdlog@@@std@@@0@QEAV10@AEAV?$allocator@V?$unique_ptr@Vflag_formatter@details@spdlog@@U?$default_delete@Vflag_formatter@details@spdlog@@@std@@@std@@@0@@Z
	??$_Destroy_range@V?$allocator@Vlog_msg_buffer@details@spdlog@@@std@@@std@@YAXPEAVlog_msg_buffer@details@spdlog@@QEAV123@AEAV?$allocator@Vlog_msg_buffer@details@spdlog@@@0@@Z
	??$_Emplace_back@$$V@?$_Uninitialized_backout_al@V?$allocator@Vlog_msg_buffer@details@spdlog@@@std@@@std@@QEAAXXZ
	??$_Emplace_back@AEAD@?$_Uninitialized_backout@PEAD@std@@QEAAXAEAD@Z
	??$_Emplace_back@AEAH@?$_Uninitialized_backout@PEAH@std@@QEAAXAEAH@Z
	??$_Emplace_back@AEAI@?$_Uninitialized_backout@PEAI@std@@QEAAXAEAI@Z
	??$_Emplace_back@AEAPEAVLayer@Engine@@@?$_Uninitialized_backout_al@V?$allocator@PEAVLayer@Engine@@@std@@@std@@QEAAXAEAPEAVLayer@Engine@@@Z
	??$_Emplace_back@AEAV?$shared_ptr@Vsink@sinks@spdlog@@@std@@@?$_Uninitialized_backout_al@V?$allocator@V?$shared_ptr@Vsink@sinks@spdlog@@@std@@@std@@@std@@QEAAXAEAV?$shared_ptr@Vsink@sinks@spdlog@@@1@@Z
	??$_Emplace_back@AEAVlog_msg_buffer@details@spdlog@@@?$_Uninitialized_backout_al@V?$allocator@Vlog_msg_buffer@details@spdlog@@@std@@@std@@QEAAXAEAVlog_msg_buffer@details@spdlog@@@Z
	??$_Emplace_back@AEBH@?$_Uninitialized_backout@PEAI@std@@QEAAXAEBH@Z
	??$_Emplace_back@AEBV?$_List_unchecked_iterator@V?$_List_val@U?$_List_simple_types@U?$pair@$$CBDV?$unique_ptr@Vcustom_flag_formatter@spdlog@@U?$default_delete@Vcustom_flag_formatter@spdlog@@@std@@@std@@@std@@@std@@@std@@@std@@@?$_Uninitialized_backout@PEAV?$_List_unchecked_iterator@V?$_List_val@U?$_List_simple_types@U?$pair@$$CBDV?$unique_ptr@Vcustom_flag_formatter@spdlog@@U?$default_delete@Vcustom_flag_formatter@spdlog@@@std@@@std@@@std@@@std@@@std@@@std@@@std@@QEAAXAEBV?$_List_unchecked_iterator@V?$_List_val@U?$_List_simple_types@U?$pair@$$CBDV?$unique_ptr@Vcustom_flag_formatter@spdlog@@U?$default_delete@Vcustom_flag_formatter@spdlog@@@std@@@std@@@std@@@std@@@std@@@1@@Z
	??$_Emplace_back@AEBV?$_List_unchecked_iterator@V?$_List_val@U?$_List_simple_types@U?$pair@$$CBV?$basic_string@DU?$char_traits@D@std@@V?$allocator@D@2@@std@@V?$shared_ptr@Vlogger@spdlog@@@2@@std@@@std@@@std@@@std@@@?$_Uninitialized_backout@PEAV?$_List_unchecked_iterator@V?$_List_val@U?$_List_simple_types@U?$pair@$$CBV?$basic_string@DU?$char_traits@D@std@@V?$allocator@D@2@@std@@V?$shared_ptr@Vlogger@spdlog@@@2@@std@@@std@@@std@@@std@@@std@@QEAAXAEBV?$_List_unchecked_iterator@V?$_List_val@U?$_List_simple_types@U?$pair@$$CBV?$basic_string@DU?$char_traits@D@std@@V?$allocator@D@2@@std@@V?$shared_ptr@Vlogger@spdlog@@@2@@std@@@std@@@std@@@1@@Z
	??$_Emplace_back@AEBV?$_List_unchecked_iterator@V?$_List_val@U?$_List_simple_types@U?$pair@$$CBV?$basic_string@DU?$char_traits@D@std@@V?$allocator@D@2@@std@@W4level_enum@level@spdlog@@@std@@@std@@@std@@@std@@@?$_Uninitialized_backout@PEAV?$_List_unchecked_iterator@V?$_List_val@U?$_List_simple_types@U?$pair@$$CBV?$basic_string@DU?$char_traits@D@std@@V?$allocator@D@2@@std@@W4level_enum@level@spdlog@@@std@@@std@@@std@@@std@@@std@@QEAAXAEBV?$_List_unchecked_iterator@V?$_List_val@U?$_List_simple_types@U?$pair@$$CBV?$basic_string@DU?$char_traits@D@std@@V?$allocator@D@2@@std@@W4level_enum@level@spdlog@@@std@@@std@@@std@@@1@@Z
	??$_Emplace_back@AEBV?$shared_ptr@Vsink@sinks@spdlog@@@std@@@?$_Uninitialized_backout_al@V?$allocator@V?$shared_ptr@Vsink@sinks@spdlog@@@std@@@std@@@std@@QEAAXAEBV?$shared_ptr@Vsink@sinks@spdlog@@@1@@Z
	??$_Emplace_back@PEAVLayer@Engine@@@?$_Uninitialized_backout_al@V?$allocator@PEAVLayer@Engine@@@std@@@std@@QEAAX$$QEAPEAVLayer@Engine@@@Z
	??$_Emplace_back@V?$unique_ptr@Vflag_formatter@details@spdlog@@U?$default_delete@Vflag_formatter@details@spdlog@@@std@@@std@@@?$_Uninitialized_backout_al@V?$allocator@V?$unique_ptr@Vflag_formatter@details@spdlog@@U?$default_delete@Vflag_formatter@details@spdlog@@@std@@@std@@@std@@@std@@QEAAX$$QEAV?$unique_ptr@Vflag_formatter@details@spdlog@@U?$default_delete@Vflag_formatter@details@spdlog@@@std@@@1@@Z
	??$_Emplace_back_with_unused_capacity@AEAPEAVLayer@Engine@@@?$vector@PEAVLayer@Engine@@V?$allocator@PEAVLayer@Engine@@@std@@@std@@AEAAAEAPEAVLayer@Engine@@AEAPEAV23@@Z
	??$_Emplace_back_with_unused_capacity@V?$unique_ptr@Vflag_formatter@details@spdlog@@U?$default_delete@Vflag_formatter@details@spdlog@@@std@@@std@@@?$vector@V?$unique_ptr@Vflag_formatter@details@spdlog@@U?$default_delete@Vflag_formatter@details@spdlog@@@std@@@std@@V?$allocator@V?$unique_ptr@Vflag_formatter@details@spdlog@@U?$default_delete@Vflag_formatter@details@spdlog@@@std@@@std@@@2@@std@@AEAAAEAV?$unique_ptr@Vflag_formatter@details@spdlog@@U?$default_delete@Vflag_formatter@details@spdlog@@@std@@@1@$$QEAV21@@Z
	??$_Emplace_one_at_back@AEAPEAVLayer@Engine@@@?$vector@PEAVLayer@Engine@@V?$allocator@PEAVLayer@Engine@@@std@@@std@@AEAAAEAPEAVLayer@Engine@@AEAPEAV23@@Z
	??$_Emplace_one_at_back@V?$unique_ptr@Vflag_formatter@details@spdlog@@U?$default_delete@Vflag_formatter@details@spdlog@@@std@@@std@@@?$vector@V?$unique_ptr@Vflag_formatter@details@spdlog@@U?$default_delete@Vflag_formatter@details@spdlog@@@std@@@std@@V?$allocator@V?$unique_ptr@Vflag_formatter@details@spdlog@@U?$default_delete@Vflag_formatter@details@spdlog@@@std@@@std@@@2@@std@@AEAAAEAV?$unique_ptr@Vflag_formatter@details@spdlog@@U?$default_delete@Vflag_formatter@details@spdlog@@@std@@@1@$$QEAV21@@Z
	??$_Emplace_reallocate@AEAPEAVLayer@Engine@@@?$vector@PEAVLayer@Engine@@V?$allocator@PEAVLayer@Engine@@@std@@@std@@AEAAPEAPEAVLayer@Engine@@QEAPEAV23@AEAPEAV23@@Z
	??$_Emplace_reallocate@V?$unique_ptr@Vflag_formatter@details@spdlog@@U?$default_delete@Vflag_formatter@details@spdlog@@@std@@@std@@@?$vector@V?$unique_ptr@Vflag_formatter@details@spdlog@@U?$default_delete@Vflag_formatter@details@spdlog@@@std@@@std@@V?$allocator@V?$unique_ptr@Vflag_formatter@details@spdlog@@U?$default_delete@Vflag_formatter@details@spdlog@@@std@@@std@@@2@@std@@AEAAPEAV?$unique_ptr@Vflag_formatter@details@spdlog@@U?$default_delete@Vflag_formatter@details@spdlog@@@std@@@1@QEAV21@$$QEAV21@@Z
	??$_Erase_head@V?$allocator@U?$_Tree_node@U?$pair@$$CBV?$basic_string@DU?$char_traits@D@std@@V?$allocator@D@2@@std@@V12@@std@@PEAX@std@@@std@@@?$_Tree_val@U?$_Tree_simple_types@U?$pair@$$CBV?$basic_string@DU?$char_traits@D@std@@V?$allocator@D@2@@std@@V12@@std@@@std@@@std@@QEAAXAEAV?$allocator@U?$_Tree_node@U?$pair@$$CBV?$basic_string@DU?$char_traits@D@std@@V?$allocator@D@2@@std@@V12@@std@@PEAX@std@@@1@@Z
	??$_Erase_tree@V?$allocator@U?$_Tree_node@U?$pair@$$CBV?$basic_string@DU?$char_traits@D@std@@V?$allocator@D@2@@std@@V12@@std@@PEAX@std@@@std@@@?$_Tree_val@U?$_Tree_simple_types@U?$pair@$$CBV?$basic_string@DU?$char_traits@D@std@@V?$allocator@D@2@@std@@V12@@std@@@std@@@std@@QEAAXAEAV?$allocator@U?$_Tree_node@U?$pair@$$CBV?$basic_string@DU?$char_traits@D@std@@V?$allocator@D@2@@std@@V12@@std@@PEAX@std@@@1@PEAU?$_Tree_node@U?$pair@$$CBV?$basic_string@DU?$char_traits@D@std@@V?$allocator@D@2@@std@@V12@@std@@PEAX@1@@Z
	??$_Fill_zero_memset@PEAI@std@@YAXPEAI_K@Z
	??$_Find@D@?$_Hash@V?$_Umap_traits@DV?$unique_ptr@Vcustom_flag_formatter@spdlog@@U?$default_delete@Vcustom_flag_formatter@spdlog@@@std@@@std@@V?$_Uhash_compare@DU?$hash@D@std@@U?$equal_to@D@2@@2@V?$allocator@U?$pair@$$CBDV?$unique_ptr@Vcustom_flag_formatter@spdlog@@U?$default_delete@Vcustom_flag_formatter@spdlog@@@std@@@std@@@std@@@2@$0A@@std@@@std@@AEBAPEAU?$_List_node@U?$pair@$$CBDV?$unique_ptr@Vcustom_flag_formatter@spdlog@@U?$default_delete@Vcustom_flag_formatter@spdlog@@@std@@@std@@@std@@PEAX@1@AEBD_K@Z
	??$_Find@V?$basic_string@DU?$char_traits@D@std@@V?$allocator@D@2@@std@@@?$_Hash@V?$_Umap_traits@V?$basic_string@DU?$char_traits@D@std@@V?$allocator@D@2@@std@@V?$shared_ptr@Vlogger@spdlog@@@2@V?$_Uhash_compare@V?$basic_string@DU?$char_traits@D@std@@V?$allocator@D@2@@std@@U?$hash@V?$basic_string@DU?$char_traits@D@std@@V?$allocator@D@2@@std@@@2@U?$equal_to@V?$basic_string@DU?$char_traits@D@std@@V?$allocator@D@2@@std@@@2@@2@V?$allocator@U?$pair@$$CBV?$basic_string@DU?$char_traits@D@std@@V?$allocator@D@2@@std@@V?$shared_ptr@Vlogger@spdlog@@@2@@std@@@2@$0A@@std@@@std@@AEBAPEAU?$_List_node@U?$pair@$$CBV?$basic_string@DU?$char_traits@D@std@@V?$allocator@D@2@@std@@V?$shared_ptr@Vlogger@spdlog@@@2@@std@@PEAX@1@AEBV?$basic_string@DU?$char_traits@D@std@@V?$allocator@D@2@@1@_K@Z
	??$_Find@V?$basic_string@DU?$char_traits@D@std@@V?$allocator@D@2@@std@@@?$_Hash@V?$_Umap_traits@V?$basic_string@DU?$char_traits@D@std@@V?$allocator@D@2@@std@@W4level_enum@level@spdlog@@V?$_Uhash_compare@V?$basic_string@DU?$char_traits@D@std@@V?$allocator@D@2@@std@@U?$hash@V?$basic_string@DU?$char_traits@D@std@@V?$allocator@D@2@@std@@@2@U?$equal_to@V?$basic_string@DU?$char_traits@D@std@@V?$allocator@D@2@@std@@@2@@2@V?$allocator@U?$pair@$$CBV?$basic_string@DU?$char_traits@D@std@@V?$allocator@D@2@@std@@W4level_enum@level@spdlog@@@std@@@2@$0A@@std@@@std@@AEBAPEAU?$_List_node@U?$pair@$$CBV?$basic_string@DU?$char_traits@D@std@@V?$allocator@D@2@@std@@W4level_enum@level@spdlog@@@std@@PEAX@1@AEBV?$basic_string@DU?$char_traits@D@std@@V?$allocator@D@2@@1@_K@Z
	??$_Find_last@D@?$_Hash@V?$_Umap_traits@DV?$unique_ptr@Vcustom_flag_formatter@spdlog@@U?$default_delete@Vcustom_flag_formatter@spdlog@@@std@@@std@@V?$_Uhash_compare@DU?$hash@D@std@@U?$equal_to@D@2@@2@V?$allocator@U?$pair@$$CBDV?$unique_ptr@Vcustom_flag_formatter@spdlog@@U?$default_delete@Vcustom_flag_formatter@spdlog@@@std@@@std@@@std@@@2@$0A@@std@@@std@@IEBA?AU?$_Hash_find_last_result@PEAU?$_List_node@U?$pair@$$CBDV?$unique_ptr@Vcustom_flag_formatter@spdlog@@U?$default_delete@Vcustom_flag_formatter@spdlog@@@std@@@std@@@std@@PEAX@std@@@1@AEBD_K@Z
	??$_Find_last@V?$basic_string@DU?$char_traits@D@std@@V?$allocator@D@2@@std@@@?$_Hash@V?$_Umap_traits@V?$basic_string@DU?$char_traits@D@std@@V?$allocator@D@2@@std@@V?$shared_ptr@Vlogger@spdlog@@@2@V?$_Uhash_compare@V?$basic_string@DU?$char_traits@D@std@@V?$allocator@D@2@@std@@U?$hash@V?$basic_string@DU?$char_traits@D@std@@V?$allocator@D@2@@std@@@2@U?$equal_to@V?$basic_string@DU?$char_traits@D@std@@V?$allocator@D@2@@std@@@2@@2@V?$allocator@U?$pair@$$CBV?$basic_string@DU?$char_traits@D@std@@V?$allocator@D@2@@std@@V?$shared_ptr@Vlogger@spdlog@@@2@@std@@@2@$0A@@std@@@std@@IEBA?AU?$_Hash_find_last_result@PEAU?$_List_node@U?$pair@$$CBV?$basic_string@DU?$char_traits@D@std@@V?$allocator@D@2@@std@@V?$shared_ptr@Vlogger@spdlog@@@2@@std@@PEAX@std@@@1@AEBV?$basic_string@DU?$char_traits@D@std@@V?$allocator@D@2@@1@_K@Z
	??$_Find_last@V?$basic_string@DU?$char_traits@D@std@@V?$allocator@D@2@@std@@@?$_Hash@V?$_Umap_traits@V?$basic_string@DU?$char_traits@D@std@@V?$allocator@D@2@@std@@W4level_enum@level@spdlog@@V?$_Uhash_compare@V?$basic_string@DU?$char_traits@D@std@@V?$allocator@D@2@@std@@U?$hash@V?$basic_string@DU?$char_traits@D@std@@V?$allocator@D@2@@std@@@2@U?$equal_to@V?$basic_string@DU?$char_traits@D@std@@V?$allocator@D@2@@std@@@2@@2@V?$allocator@U?$pair@$$CBV?$basic_string@DU?$char_traits@D@std@@V?$allocator@D@2@@std@@W4level_enum@level@spdlog@@@std@@@2@$0A@@std@@@std@@IEBA?AU?$_Hash_find_last_result@PEAU?$_List_node@U?$pair@$$CBV?$basic_string@DU?$char_traits@D@std@@V?$allocator@D@2@@std@@W4level_enum@level@spdlog@@@std@@PEAX@std@@@1@AEBV?$basic_string@DU?$char_traits@D@std@@V?$allocator@D@2@@1@_K@Z
	??$_Find_unchecked@PEAPEAVLayer@Engine@@PEAV12@@std@@YAPEAPEAVLayer@Engine@@PEAPEAV12@QEAPEAV12@AEBQEAV12@@Z
	??$_Fix@V?$tuple@AEAVEvent@Engine@@@std@@$0A@@?$_Select_fixer@U?$_Ph@$00@std@@$0A@$0A@$00@std@@SAAEAVEvent@Engine@@AEAU?$_Ph@$00@1@$$QEAV?$tuple@AEAVEvent@Engine@@@1@@Z
	??$_Fix@V?$tuple@AEAVEvent@Engine@@@std@@@?$_Select_fixer@PEAVApplication@Engine@@$0A@$0A@$0A@@std@@SAAEAPEAVApplication@Engine@@AEAPEAV23@$$QEAV?$tuple@AEAVEvent@Engine@@@1@@Z
	??$_Fix@V?$tuple@AEAVKeyPressedEvent@Engine@@@std@@$0A@@?$_Select_fixer@U?$_Ph@$00@std@@$0A@$0A@$00@std@@SAAEAVKeyPressedEvent@Engine@@AEAU?$_Ph@$00@1@$$QEAV?$tuple@AEAVKeyPressedEvent@Engine@@@1@@Z
	??$_Fix@V?$tuple@AEAVKeyPressedEvent@Engine@@@std@@@?$_Select_fixer@PEAVImGuiLayer@Engine@@$0A@$0A@$0A@@std@@SAAEAPEAVImGuiLayer@Engine@@AEAPEAV23@$$QEAV?$tuple@AEAVKeyPressedEvent@Engine@@@1@@Z
	??$_Fix@V?$tuple@AEAVKeyReleasedEvent@Engine@@@std@@$0A@@?$_Select_fixer@U?$_Ph@$00@std@@$0A@$0A@$00@std@@SAAEAVKeyReleasedEvent@Engine@@AEAU?$_Ph@$00@1@$$QEAV?$tuple@AEAVKeyReleasedEvent@Engine@@@1@@Z
	??$_Fix@V?$tuple@AEAVKeyReleasedEvent@Engine@@@std@@@?$_Select_fixer@PEAVImGuiLayer@Engine@@$0A@$0A@$0A@@std@@SAAEAPEAVImGuiLayer@Engine@@AEAPEAV23@$$QEAV?$tuple@AEAVKeyReleasedEvent@Engine@@@1@@Z
	??$_Fix@V?$tuple@AEAVKeyTypedEvent@Engine@@@std@@$0A@@?$_Select_fixer@U?$_Ph@$00@std@@$0A@$0A@$00@std@@SAAEAVKeyTypedEvent@Engine@@AEAU?$_Ph@$00@1@$$QEAV?$tuple@AEAVKeyTypedEvent@Engine@@@1@@Z
	??$_Fix@V?$tuple@AEAVKeyTypedEvent@Engine@@@std@@@?$_Select_fixer@PEAVImGuiLayer@Engine@@$0A@$0A@$0A@@std@@SAAEAPEAVImGuiLayer@Engine@@AEAPEAV23@$$QEAV?$tuple@AEAVKeyTypedEvent@Engine@@@1@@Z
	??$_Fix@V?$tuple@AEAVMouseButtonPressedEvent@Engine@@@std@@$0A@@?$_Select_fixer@U?$_Ph@$00@std@@$0A@$0A@$00@std@@SAAEAVMouseButtonPressedEvent@Engine@@AEAU?$_Ph@$00@1@$$QEAV?$tuple@AEAVMouseButtonPressedEvent@Engine@@@1@@Z
	??$_Fix@V?$tuple@AEAVMouseButtonPressedEvent@Engine@@@std@@@?$_Select_fixer@PEAVImGuiLayer@Engine@@$0A@$0A@$0A@@std@@SAAEAPEAVImGuiLayer@Engine@@AEAPEAV23@$$QEAV?$tuple@AEAVMouseButtonPressedEvent@Engine@@@1@@Z
	??$_Fix@V?$tuple@AEAVMouseButtonReleasedEvent@Engine@@@std@@$0A@@?$_Select_fixer@U?$_Ph@$00@std@@$0A@$0A@$00@std@@SAAEAVMouseButtonReleasedEvent@Engine@@AEAU?$_Ph@$00@1@$$QEAV?$tuple@AEAVMouseButtonReleasedEvent@Engine@@@1@@Z
	??$_Fix@V?$tuple@AEAVMouseButtonReleasedEvent@Engine@@@std@@@?$_Select_fixer@PEAVImGuiLayer@Engine@@$0A@$0A@$0A@@std@@SAAEAPEAVImGuiLayer@Engine@@AEAPEAV23@$$QEAV?$tuple@AEAVMouseButtonReleasedEvent@Engine@@@1@@Z
	??$_Fix@V?$tuple@AEAVMouseMovedEvent@Engine@@@std@@$0A@@?$_Select_fixer@U?$_Ph@$00@std@@$0A@$0A@$00@std@@SAAEAVMouseMovedEvent@Engine@@AEAU?$_Ph@$00@1@$$QEAV?$tuple@AEAVMouseMovedEvent@Engine@@@1@@Z
	??$_Fix@V?$tuple@AEAVMouseMovedEvent@Engine@@@std@@@?$_Select_fixer@PEAVImGuiLayer@Engine@@$0A@$0A@$0A@@std@@SAAEAPEAVImGuiLayer@Engine@@AEAPEAV23@$$QEAV?$tuple@AEAVMouseMovedEvent@Engine@@@1@@Z
	??$_Fix@V?$tuple@AEAVMouseScrolledEvent@Engine@@@std@@$0A@@?$_Select_fixer@U?$_Ph@$00@std@@$0A@$0A@$00@std@@SAAEAVMouseScrolledEvent@Engine@@AEAU?$_Ph@$00@1@$$QEAV?$tuple@AEAVMouseScrolledEvent@Engine@@@1@@Z
	??$_Fix@V?$tuple@AEAVMouseScrolledEvent@Engine@@@std@@@?$_Select_fixer@PEAVImGuiLayer@Engine@@$0A@$0A@$0A@@std@@SAAEAPEAVImGuiLayer@Engine@@AEAPEAV23@$$QEAV?$tuple@AEAVMouseScrolledEvent@Engine@@@1@@Z
	??$_Fix@V?$tuple@AEAVWindowCloseEvent@Engine@@@std@@$0A@@?$_Select_fixer@U?$_Ph@$00@std@@$0A@$0A@$00@std@@SAAEAVWindowCloseEvent@Engine@@AEAU?$_Ph@$00@1@$$QEAV?$tuple@AEAVWindowCloseEvent@Engine@@@1@@Z
	??$_Fix@V?$tuple@AEAVWindowCloseEvent@Engine@@@std@@@?$_Select_fixer@PEAVApplication@Engine@@$0A@$0A@$0A@@std@@SAAEAPEAVApplication@Engine@@AEAPEAV23@$$QEAV?$tuple@AEAVWindowCloseEvent@Engine@@@1@@Z
	??$_Fix@V?$tuple@AEAVWindowResizeEvent@Engine@@@std@@$0A@@?$_Select_fixer@U?$_Ph@$00@std@@$0A@$0A@$00@std@@SAAEAVWindowResizeEvent@Engine@@AEAU?$_Ph@$00@1@$$QEAV?$tuple@AEAVWindowResizeEvent@Engine@@@1@@Z
	??$_Fix@V?$tuple@AEAVWindowResizeEvent@Engine@@@std@@@?$_Select_fixer@PEAVImGuiLayer@Engine@@$0A@$0A@$0A@@std@@SAAEAPEAVImGuiLayer@Engine@@AEAPEAV23@$$QEAV?$tuple@AEAVWindowResizeEvent@Engine@@@1@@Z
	??$_Fix_arg@PEAVApplication@Engine@@V?$tuple@AEAVEvent@Engine@@@std@@@std@@YAAEAPEAVApplication@Engine@@AEAPEAV12@$$QEAV?$tuple@AEAVEvent@Engine@@@0@@Z
	??$_Fix_arg@PEAVApplication@Engine@@V?$tuple@AEAVWindowCloseEvent@Engine@@@std@@@std@@YAAEAPEAVApplication@Engine@@AEAPEAV12@$$QEAV?$tuple@AEAVWindowCloseEvent@Engine@@@0@@Z
	??$_Fix_arg@PEAVImGuiLayer@Engine@@V?$tuple@AEAVKeyPressedEvent@Engine@@@std@@@std@@YAAEAPEAVImGuiLayer@Engine@@AEAPEAV12@$$QEAV?$tuple@AEAVKeyPressedEvent@Engine@@@0@@Z
	??$_Fix_arg@PEAVImGuiLayer@Engine@@V?$tuple@AEAVKeyReleasedEvent@Engine@@@std@@@std@@YAAEAPEAVImGuiLayer@Engine@@AEAPEAV12@$$QEAV?$tuple@AEAVKeyReleasedEvent@Engine@@@0@@Z
	??$_Fix_arg@PEAVImGuiLayer@Engine@@V?$tuple@AEAVKeyTypedEvent@Engine@@@std@@@std@@YAAEAPEAVImGuiLayer@Engine@@AEAPEAV12@$$QEAV?$tuple@AEAVKeyTypedEvent@Engine@@@0@@Z
	??$_Fix_arg@PEAVImGuiLayer@Engine@@V?$tuple@AEAVMouseButtonPressedEvent@Engine@@@std@@@std@@YAAEAPEAVImGuiLayer@Engine@@AEAPEAV12@$$QEAV?$tuple@AEAVMouseButtonPressedEvent@Engine@@@0@@Z
	??$_Fix_arg@PEAVImGuiLayer@Engine@@V?$tuple@AEAVMouseButtonReleasedEvent@Engine@@@std@@@std@@YAAEAPEAVImGuiLayer@Engine@@AEAPEAV12@$$QEAV?$tuple@AEAVMouseButtonReleasedEvent@Engine@@@0@@Z
	??$_Fix_arg@PEAVImGuiLayer@Engine@@V?$tuple@AEAVMouseMovedEvent@Engine@@@std@@@std@@YAAEAPEAVImGuiLayer@Engine@@AEAPEAV12@$$QEAV?$tuple@AEAVMouseMovedEvent@Engine@@@0@@Z
	??$_Fix_arg@PEAVImGuiLayer@Engine@@V?$tuple@AEAVMouseScrolledEvent@Engine@@@std@@@std@@YAAEAPEAVImGuiLayer@Engine@@AEAPEAV12@$$QEAV?$tuple@AEAVMouseScrolledEvent@Engine@@@0@@Z
	??$_Fix_arg@PEAVImGuiLayer@Engine@@V?$tuple@AEAVWindowResizeEvent@Engine@@@std@@@std@@YAAEAPEAVImGuiLayer@Engine@@AEAPEAV12@$$QEAV?$tuple@AEAVWindowResizeEvent@Engine@@@0@@Z
	??$_Fix_arg@U?$_Ph@$00@std@@V?$tuple@AEAVEvent@Engine@@@2@@std@@YAAEAVEvent@Engine@@AEAU?$_Ph@$00@0@$$QEAV?$tuple@AEAVEvent@Engine@@@0@@Z
	??$_Fix_arg@U?$_Ph@$00@std@@V?$tuple@AEAVKeyPressedEvent@Engine@@@2@@std@@YAAEAVKeyPressedEvent@Engine@@AEAU?$_Ph@$00@0@$$QEAV?$tuple@AEAVKeyPressedEvent@Engine@@@0@@Z
	??$_Fix_arg@U?$_Ph@$00@std@@V?$tuple@AEAVKeyReleasedEvent@Engine@@@2@@std@@YAAEAVKeyReleasedEvent@Engine@@AEAU?$_Ph@$00@0@$$QEAV?$tuple@AEAVKeyReleasedEvent@Engine@@@0@@Z
	??$_Fix_arg@U?$_Ph@$00@std@@V?$tuple@AEAVKeyTypedEvent@Engine@@@2@@std@@YAAEAVKeyTypedEvent@Engine@@AEAU?$_Ph@$00@0@$$QEAV?$tuple@AEAVKeyTypedEvent@Engine@@@0@@Z
	??$_Fix_arg@U?$_Ph@$00@std@@V?$tuple@AEAVMouseButtonPressedEvent@Engine@@@2@@std@@YAAEAVMouseButtonPressedEvent@Engine@@AEAU?$_Ph@$00@0@$$QEAV?$tuple@AEAVMouseButtonPressedEvent@Engine@@@0@@Z
	??$_Fix_arg@U?$_Ph@$00@std@@V?$tuple@AEAVMouseButtonReleasedEvent@Engine@@@2@@std@@YAAEAVMouseButtonReleasedEvent@Engine@@AEAU?$_Ph@$00@0@$$QEAV?$tuple@AEAVMouseButtonReleasedEvent@Engine@@@0@@Z
	??$_Fix_arg@U?$_Ph@$00@std@@V?$tuple@AEAVMouseMovedEvent@Engine@@@2@@std@@YAAEAVMouseMovedEvent@Engine@@AEAU?$_Ph@$00@0@$$QEAV?$tuple@AEAVMouseMovedEvent@Engine@@@0@@Z
	??$_Fix_arg@U?$_Ph@$00@std@@V?$tuple@AEAVMouseScrolledEvent@Engine@@@2@@std@@YAAEAVMouseScrolledEvent@Engine@@AEAU?$_Ph@$00@0@$$QEAV?$tuple@AEAVMouseScrolledEvent@Engine@@@0@@Z
	??$_Fix_arg@U?$_Ph@$00@std@@V?$tuple@AEAVWindowCloseEvent@Engine@@@2@@std@@YAAEAVWindowCloseEvent@Engine@@AEAU?$_Ph@$00@0@$$QEAV?$tuple@AEAVWindowCloseEvent@Engine@@@0@@Z
	??$_Fix_arg@U?$_Ph@$00@std@@V?$tuple@AEAVWindowResizeEvent@Engine@@@2@@std@@YAAEAVWindowResizeEvent@Engine@@AEAU?$_Ph@$00@0@$$QEAV?$tuple@AEAVWindowResizeEvent@Engine@@@0@@Z
	??$_Fnv1a_append_value@D@std@@YA_K_KAEBD@Z
	??$_Free_non_head@V?$allocator@U?$_List_node@U?$pair@$$CBDV?$unique_ptr@Vcustom_flag_formatter@spdlog@@U?$default_delete@Vcustom_flag_formatter@spdlog@@@std@@@std@@@std@@PEAX@std@@@std@@@?$_List_node@U?$pair@$$CBDV?$unique_ptr@Vcustom_flag_formatter@spdlog@@U?$default_delete@Vcustom_flag_formatter@spdlog@@@std@@@std@@@std@@PEAX@std@@SAXAEAV?$allocator@U?$_List_node@U?$pair@$$CBDV?$unique_ptr@Vcustom_flag_formatter@spdlog@@U?$default_delete@Vcustom_flag_formatter@spdlog@@@std@@@std@@@std@@PEAX@std@@@1@PEAU01@@Z
	??$_Free_non_head@V?$allocator@U?$_List_node@U?$pair@$$CBV?$basic_string@DU?$char_traits@D@std@@V?$allocator@D@2@@std@@V?$shared_ptr@Vlogger@spdlog@@@2@@std@@PEAX@std@@@std@@@?$_List_node@U?$pair@$$CBV?$basic_string@DU?$char_traits@D@std@@V?$allocator@D@2@@std@@V?$shared_ptr@Vlogger@spdlog@@@2@@std@@PEAX@std@@SAXAEAV?$allocator@U?$_List_node@U?$pair@$$CBV?$basic_string@DU?$char_traits@D@std@@V?$allocator@D@2@@std@@V?$shared_ptr@Vlogger@spdlog@@@2@@std@@PEAX@std@@@1@PEAU01@@Z
	??$_Free_non_head@V?$allocator@U?$_List_node@U?$pair@$$CBV?$basic_string@DU?$char_traits@D@std@@V?$allocator@D@2@@std@@W4level_enum@level@spdlog@@@std@@PEAX@std@@@std@@@?$_List_node@U?$pair@$$CBV?$basic_string@DU?$char_traits@D@std@@V?$allocator@D@2@@std@@W4level_enum@level@spdlog@@@std@@PEAX@std@@SAXAEAV?$allocator@U?$_List_node@U?$pair@$$CBV?$basic_string@DU?$char_traits@D@std@@V?$allocator@D@2@@std@@W4level_enum@level@spdlog@@@std@@PEAX@std@@@1@PEAU01@@Z
	??$_Freenode0@V?$allocator@U?$_List_node@U?$pair@$$CBDV?$unique_ptr@Vcustom_flag_formatter@spdlog@@U?$default_delete@Vcustom_flag_formatter@spdlog@@@std@@@std@@@std@@PEAX@std@@@std@@@?$_List_node@U?$pair@$$CBDV?$unique_ptr@Vcustom_flag_formatter@spdlog@@U?$default_delete@Vcustom_flag_formatter@spdlog@@@std@@@std@@@std@@PEAX@std@@SAXAEAV?$allocator@U?$_List_node@U?$pair@$$CBDV?$unique_ptr@Vcustom_flag_formatter@spdlog@@U?$default_delete@Vcustom_flag_formatter@spdlog@@@std@@@std@@@std@@PEAX@std@@@1@PEAU01@@Z
	??$_Freenode0@V?$allocator@U?$_List_node@U?$pair@$$CBV?$basic_string@DU?$char_traits@D@std@@V?$allocator@D@2@@std@@V?$shared_ptr@Vlogger@spdlog@@@2@@std@@PEAX@std@@@std@@@?$_List_node@U?$pair@$$CBV?$basic_string@DU?$char_traits@D@std@@V?$allocator@D@2@@std@@V?$shared_ptr@Vlogger@spdlog@@@2@@std@@PEAX@std@@SAXAEAV?$allocator@U?$_List_node@U?$pair@$$CBV?$basic_string@DU?$char_traits@D@std@@V?$allocator@D@2@@std@@V?$shared_ptr@Vlogger@spdlog@@@2@@std@@PEAX@std@@@1@PEAU01@@Z
	??$_Freenode0@V?$allocator@U?$_List_node@U?$pair@$$CBV?$basic_string@DU?$char_traits@D@std@@V?$allocator@D@2@@std@@W4level_enum@level@spdlog@@@std@@PEAX@std@@@std@@@?$_List_node@U?$pair@$$CBV?$basic_string@DU?$char_traits@D@std@@V?$allocator@D@2@@std@@W4level_enum@level@spdlog@@@std@@PEAX@std@@SAXAEAV?$allocator@U?$_List_node@U?$pair@$$CBV?$basic_string@DU?$char_traits@D@std@@V?$allocator@D@2@@std@@W4level_enum@level@spdlog@@@std@@PEAX@std@@@1@PEAU01@@Z
	??$_Freenode0@V?$allocator@U?$_Tree_node@U?$pair@$$CBV?$basic_string@DU?$char_traits@D@std@@V?$allocator@D@2@@std@@V12@@std@@PEAX@std@@@std@@@?$_Tree_node@U?$pair@$$CBV?$basic_string@DU?$char_traits@D@std@@V?$allocator@D@2@@std@@V12@@std@@PEAX@std@@SAXAEAV?$allocator@U?$_Tree_node@U?$pair@$$CBV?$basic_string@DU?$char_traits@D@std@@V?$allocator@D@2@@std@@V12@@std@@PEAX@std@@@1@PEAU01@@Z
	??$_Freenode@V?$allocator@U?$_List_node@U?$pair@$$CBDV?$unique_ptr@Vcustom_flag_formatter@spdlog@@U?$default_delete@Vcustom_flag_formatter@spdlog@@@std@@@std@@@std@@PEAX@std@@@std@@@?$_List_node@U?$pair@$$CBDV?$unique_ptr@Vcustom_flag_formatter@spdlog@@U?$default_delete@Vcustom_flag_formatter@spdlog@@@std@@@std@@@std@@PEAX@std@@SAXAEAV?$allocator@U?$_List_node@U?$pair@$$CBDV?$unique_ptr@Vcustom_flag_formatter@spdlog@@U?$default_delete@Vcustom_flag_formatter@spdlog@@@std@@@std@@@std@@PEAX@std@@@1@PEAU01@@Z
	??$_Freenode@V?$allocator@U?$_List_node@U?$pair@$$CBV?$basic_string@DU?$char_traits@D@std@@V?$allocator@D@2@@std@@V?$shared_ptr@Vlogger@spdlog@@@2@@std@@PEAX@std@@@std@@@?$_List_node@U?$pair@$$CBV?$basic_string@DU?$char_traits@D@std@@V?$allocator@D@2@@std@@V?$shared_ptr@Vlogger@spdlog@@@2@@std@@PEAX@std@@SAXAEAV?$allocator@U?$_List_node@U?$pair@$$CBV?$basic_string@DU?$char_traits@D@std@@V?$allocator@D@2@@std@@V?$shared_ptr@Vlogger@spdlog@@@2@@std@@PEAX@std@@@1@PEAU01@@Z
	??$_Freenode@V?$allocator@U?$_List_node@U?$pair@$$CBV?$basic_string@DU?$char_traits@D@std@@V?$allocator@D@2@@std@@W4level_enum@level@spdlog@@@std@@PEAX@std@@@std@@@?$_List_node@U?$pair@$$CBV?$basic_string@DU?$char_traits@D@std@@V?$allocator@D@2@@std@@W4level_enum@level@spdlog@@@std@@PEAX@std@@SAXAEAV?$allocator@U?$_List_node@U?$pair@$$CBV?$basic_string@DU?$char_traits@D@std@@V?$allocator@D@2@@std@@W4level_enum@level@spdlog@@@std@@PEAX@std@@@1@PEAU01@@Z
	??$_Freenode@V?$allocator@U?$_Tree_node@U?$pair@$$CBV?$basic_string@DU?$char_traits@D@std@@V?$allocator@D@2@@std@@V12@@std@@PEAX@std@@@std@@@?$_Tree_node@U?$pair@$$CBV?$basic_string@DU?$char_traits@D@std@@V?$allocator@D@2@@std@@V12@@std@@PEAX@std@@SAXAEAV?$allocator@U?$_Tree_node@U?$pair@$$CBV?$basic_string@DU?$char_traits@D@std@@V?$allocator@D@2@@std@@V12@@std@@PEAX@std@@@1@PEAU01@@Z
	??$_Get_size_of_n@$00@std@@YA_K_K@Z
	??$_Get_size_of_n@$03@std@@YA_K_K@Z
	??$_Get_size_of_n@$07@std@@YA_K_K@Z
	??$_Get_size_of_n@$0BA@@std@@YA_K_K@Z
	??$_Get_size_of_n@$0BIA@@std@@YA_K_K@Z
	??$_Get_size_of_n@$0CA@@std@@YA_K_K@Z
	??$_Get_size_of_n@$0EA@@std@@YA_K_K@Z
	??$_Get_size_of_n@$0EI@@std@@YA_K_K@Z
	??$_Get_size_of_n@$0HA@@std@@YA_K_K@Z
	??$_Get_unwrapped@AEAPEBI@std@@YA?A_TAEAPEBI@Z
	??$_Get_unwrapped@AEAPEBV?$shared_ptr@Vsink@sinks@spdlog@@@std@@@std@@YA?A_TAEAPEBV?$shared_ptr@Vsink@sinks@spdlog@@@0@@Z
	??$_Get_unwrapped@AEAV?$_Vector_iterator@V?$_Vector_val@U?$_Simple_types@PEAVLayer@Engine@@@std@@@std@@@std@@@std@@YA?A_TAEAV?$_Vector_iterator@V?$_Vector_val@U?$_Simple_types@PEAVLayer@Engine@@@std@@@std@@@0@@Z
	??$_Get_unwrapped@AEAV?$reverse_iterator@PEBD@std@@@std@@YA?A_TAEAV?$reverse_iterator@PEBD@0@@Z
	??$_Get_unwrapped@AEBQEAD@std@@YA?A_TAEBQEAD@Z
	??$_Get_unwrapped@AEBQEAH@std@@YA?A_TAEBQEAH@Z
	??$_Get_unwrapped@AEBQEAI@std@@YA?A_TAEBQEAI@Z
	??$_Get_unwrapped@AEBQEAPEAVLayer@Engine@@@std@@YA?A_TAEBQEAPEAVLayer@Engine@@@Z
	??$_Get_unwrapped@AEBQEAV?$_List_unchecked_iterator@V?$_List_val@U?$_List_simple_types@U?$pair@$$CBDV?$unique_ptr@Vcustom_flag_formatter@spdlog@@U?$default_delete@Vcustom_flag_formatter@spdlog@@@std@@@std@@@std@@@std@@@std@@@std@@@std@@YA?A_TAEBQEAV?$_List_unchecked_iterator@V?$_List_val@U?$_List_simple_types@U?$pair@$$CBDV?$unique_ptr@Vcustom_flag_formatter@spdlog@@U?$default_delete@Vcustom_flag_formatter@spdlog@@@std@@@std@@@std@@@std@@@std@@@0@@Z
	??$_Get_unwrapped@AEBQEAV?$_List_unchecked_iterator@V?$_List_val@U?$_List_simple_types@U?$pair@$$CBV?$basic_string@DU?$char_traits@D@std@@V?$allocator@D@2@@std@@V?$shared_ptr@Vlogger@spdlog@@@2@@std@@@std@@@std@@@std@@@std@@YA?A_TAEBQEAV?$_List_unchecked_iterator@V?$_List_val@U?$_List_simple_types@U?$pair@$$CBV?$basic_string@DU?$char_traits@D@std@@V?$allocator@D@2@@std@@V?$shared_ptr@Vlogger@spdlog@@@2@@std@@@std@@@std@@@0@@Z
	??$_Get_unwrapped@AEBQEAV?$_List_unchecked_iterator@V?$_List_val@U?$_List_simple_types@U?$pair@$$CBV?$basic_string@DU?$char_traits@D@std@@V?$allocator@D@2@@std@@W4level_enum@level@spdlog@@@std@@@std@@@std@@@std@@@std@@YA?A_TAEBQEAV?$_List_unchecked_iterator@V?$_List_val@U?$_List_simple_types@U?$pair@$$CBV?$basic_string@DU?$char_traits@D@std@@V?$allocator@D@2@@std@@W4level_enum@level@spdlog@@@std@@@std@@@std@@@0@@Z
	??$_Get_unwrapped@AEBQEAV?$unique_ptr@Vflag_formatter@details@spdlog@@U?$default_delete@Vflag_formatter@details@spdlog@@@std@@@std@@@std@@YA?A_TAEBQEAV?$unique_ptr@Vflag_formatter@details@spdlog@@U?$default_delete@Vflag_formatter@details@spdlog@@@std@@@0@@Z
	??$_Get_unwrapped@AEBQEBD@std@@YA?A_TAEBQEBD@Z
	??$_Get_unwrapped@AEBV?$_Vector_iterator@V?$_Vector_val@U?$_Simple_types@PEAVLayer@Engine@@@std@@@std@@@std@@@std@@YA?A_TAEBV?$_Vector_iterator@V?$_Vector_val@U?$_Simple_types@PEAVLayer@Engine@@@std@@@std@@@0@@Z
	??$_Get_unwrapped@AEBV?$reverse_iterator@PEBD@std@@@std@@YA?A_TAEBV?$reverse_iterator@PEBD@0@@Z
	??$_Get_unwrapped@PEAPEAVLayer@Engine@@@std@@YA?A_T$$QEAPEAPEAVLayer@Engine@@@Z
	??$_Get_unwrapped@PEAV?$shared_ptr@Vsink@sinks@spdlog@@@std@@@std@@YA?A_T$$QEAPEAV?$shared_ptr@Vsink@sinks@spdlog@@@0@@Z
	??$_Get_unwrapped@PEAVlog_msg_buffer@details@spdlog@@@std@@YA?A_T$$QEAPEAVlog_msg_buffer@details@spdlog@@@Z
	??$_Get_unwrapped@PEBV?$shared_ptr@Vsink@sinks@spdlog@@@std@@@std@@YA?A_T$$QEAPEBV?$shared_ptr@Vsink@sinks@spdlog@@@0@@Z
	??$_Get_unwrapped_n@AEAPEAIH@std@@YA?A_TAEAPEAIH@Z
	??$_Get_unwrapped_n@AEAV?$checked_array_iterator@PEAD@stdext@@_J@std@@YA?A_TAEAV?$checked_array_iterator@PEAD@stdext@@_J@Z
	??$_Get_unwrapped_n@AEAV?$checked_array_iterator@PEAD@stdext@@_K@std@@YA?A_TAEAV?$checked_array_iterator@PEAD@stdext@@_K@Z
	??$_Get_unwrapped_n@AEAV?$checked_array_iterator@PEAH@stdext@@_J@std@@YA?A_TAEAV?$checked_array_iterator@PEAH@stdext@@_J@Z
	??$_Get_unwrapped_n@AEAV?$checked_array_iterator@PEAI@stdext@@_J@std@@YA?A_TAEAV?$checked_array_iterator@PEAI@stdext@@_J@Z
	??$_Get_unwrapped_n@AEBQEBD_K@std@@YA?A_TAEBQEBD_K@Z
	??$_Getvals@D@?$numpunct@D@std@@IEAAXDPEBUlconv@@U_Cvtvec@@@Z
	??$_Getvals@_W@?$time_get@DV?$istreambuf_iterator@DU?$char_traits@D@std@@@std@@@std@@IEAAX_WAEBV_Locinfo@1@@Z
	??$_Getvals@_W@?$time_get@_WV?$istreambuf_iterator@_WU?$char_traits@_W@std@@@std@@@std@@IEAAX_WAEBV_Locinfo@1@@Z
	??$_Hash_array_representation@D@std@@YA_KQEBD_K@Z
	??$_Hash_representation@D@std@@YA_KAEBD@Z
	??$_Idl_distance@PEADPEAD@std@@YA?A_PAEBQEAD0@Z
	??$_Idl_distance@PEAHPEAH@std@@YA?A_PAEBQEAH0@Z
	??$_Idl_distance@PEAIPEAI@std@@YA?A_PAEBQEAI0@Z
	??$_Idl_distance@PEBIPEBI@std@@YA?A_PAEBQEBI0@Z
	??$_Immortalize_memcpy_image@V_Generic_error_category@std@@@std@@YAAEBV_Generic_error_category@0@XZ
	??$_Is_all_bits_zero@H@std@@YA_NAEBH@Z
	??$_Kfn@$$CBDV?$unique_ptr@Vcustom_flag_formatter@spdlog@@U?$default_delete@Vcustom_flag_formatter@spdlog@@@std@@@std@@@?$_Umap_traits@DV?$unique_ptr@Vcustom_flag_formatter@spdlog@@U?$default_delete@Vcustom_flag_formatter@spdlog@@@std@@@std@@V?$_Uhash_compare@DU?$hash@D@std@@U?$equal_to@D@2@@2@V?$allocator@U?$pair@$$CBDV?$unique_ptr@Vcustom_flag_formatter@spdlog@@U?$default_delete@Vcustom_flag_formatter@spdlog@@@std@@@std@@@std@@@2@$0A@@std@@SAAEBDAEBU?$pair@$$CBDV?$unique_ptr@Vcustom_flag_formatter@spdlog@@U?$default_delete@Vcustom_flag_formatter@spdlog@@@std@@@std@@@1@@Z
	??$_Kfn@$$CBV?$basic_string@DU?$char_traits@D@std@@V?$allocator@D@2@@std@@V?$shared_ptr@Vlogger@spdlog@@@2@@?$_Umap_traits@V?$basic_string@DU?$char_traits@D@std@@V?$allocator@D@2@@std@@V?$shared_ptr@Vlogger@spdlog@@@2@V?$_Uhash_compare@V?$basic_string@DU?$char_traits@D@std@@V?$allocator@D@2@@std@@U?$hash@V?$basic_string@DU?$char_traits@D@std@@V?$allocator@D@2@@std@@@2@U?$equal_to@V?$basic_string@DU?$char_traits@D@std@@V?$allocator@D@2@@std@@@2@@2@V?$allocator@U?$pair@$$CBV?$basic_string@DU?$char_traits@D@std@@V?$allocator@D@2@@std@@V?$shared_ptr@Vlogger@spdlog@@@2@@std@@@2@$0A@@std@@SAAEBV?$basic_string@DU?$char_traits@D@std@@V?$allocator@D@2@@1@AEBU?$pair@$$CBV?$basic_string@DU?$char_traits@D@std@@V?$allocator@D@2@@std@@V?$shared_ptr@Vlogger@spdlog@@@2@@1@@Z
	??$_Kfn@$$CBV?$basic_string@DU?$char_traits@D@std@@V?$allocator@D@2@@std@@W4level_enum@level@spdlog@@@?$_Umap_traits@V?$basic_string@DU?$char_traits@D@std@@V?$allocator@D@2@@std@@W4level_enum@level@spdlog@@V?$_Uhash_compare@V?$basic_string@DU?$char_traits@D@std@@V?$allocator@D@2@@std@@U?$hash@V?$basic_string@DU?$char_traits@D@std@@V?$allocator@D@2@@std@@@2@U?$equal_to@V?$basic_string@DU?$char_traits@D@std@@V?$allocator@D@2@@std@@@2@@2@V?$allocator@U?$pair@$$CBV?$basic_string@DU?$char_traits@D@std@@V?$allocator@D@2@@std@@W4level_enum@level@spdlog@@@std@@@2@$0A@@std@@SAAEBV?$basic_string@DU?$char_traits@D@std@@V?$allocator@D@2@@1@AEBU?$pair@$$CBV?$basic_string@DU?$char_traits@D@std@@V?$allocator@D@2@@std@@W4level_enum@level@spdlog@@@1@@Z
	??$_Maklocchr@D@std@@YADDPEADAEBU_Cvtvec@@@Z
	??$_Maklocstr@D@std@@YAPEADPEBDPEADAEBU_Cvtvec@@@Z
	??$_Maklocstr@_W@std@@YAPEA_WPEBDPEA_WAEBU_Cvtvec@@@Z
	??$_Move_backward_unchecked@PEAPEAVLayer@Engine@@PEAPEAV12@@std@@YAPEAPEAVLayer@Engine@@PEAPEAV12@00@Z
	??$_Move_construct_from@V?$wincolor_stdout_sink@Uconsole_mutex@details@spdlog@@@sinks@spdlog@@@?$_Ptr_base@V?$wincolor_stdout_sink@Uconsole_mutex@details@spdlog@@@sinks@spdlog@@@std@@IEAAX$$QEAV01@@Z
	??$_Move_construct_from@V?$wincolor_stdout_sink@Uconsole_mutex@details@spdlog@@@sinks@spdlog@@@?$_Ptr_base@Vsink@sinks@spdlog@@@std@@IEAAX$$QEAV?$_Ptr_base@V?$wincolor_stdout_sink@Uconsole_mutex@details@spdlog@@@sinks@spdlog@@@1@@Z
	??$_Move_construct_from@Vlogger@spdlog@@@?$_Ptr_base@Vlogger@spdlog@@@std@@IEAAX$$QEAV01@@Z
	??$_Move_construct_from@Vsink@sinks@spdlog@@@?$_Ptr_base@Vsink@sinks@spdlog@@@std@@IEAAX$$QEAV01@@Z
	??$_Move_unchecked@PEAPEAVLayer@Engine@@PEAPEAV12@@std@@YAPEAPEAVLayer@Engine@@PEAPEAV12@00@Z
	??$_Pocca@V?$allocator@D@std@@@std@@YAXAEAV?$allocator@D@0@AEBV10@@Z
	??$_Pocca@V?$allocator@PEAVLayer@Engine@@@std@@@std@@YAXAEAV?$allocator@PEAVLayer@Engine@@@0@AEBV10@@Z
	??$_Pocca@V?$allocator@Vlog_msg_buffer@details@spdlog@@@std@@@std@@YAXAEAV?$allocator@Vlog_msg_buffer@details@spdlog@@@0@AEBV10@@Z
	??$_Pocma@V?$allocator@D@std@@@std@@YAXAEAV?$allocator@D@0@0@Z
	??$_Pocma@V?$allocator@Vlog_msg_buffer@details@spdlog@@@std@@@std@@YAXAEAV?$allocator@Vlog_msg_buffer@details@spdlog@@@0@0@Z
	??$_Reallocate_for@V<lambda_66f57f934f28d61049862f64df852ff0>@@PEBD@?$basic_string@DU?$char_traits@D@std@@V?$allocator@D@2@@std@@AEAAAEAV01@_KV<lambda_66f57f934f28d61049862f64df852ff0>@@PEBD@Z
	??$_Reallocate_grow_by@V<lambda_319d5e083f45f90dcdce5dce53cbb275>@@D@?$basic_string@DU?$char_traits@D@std@@V?$allocator@D@2@@std@@AEAAAEAV01@_KV<lambda_319d5e083f45f90dcdce5dce53cbb275>@@D@Z
	??$_Reallocate_grow_by@V<lambda_65e615be2a453ca0576c979606f46740>@@PEBD_K@?$basic_string@DU?$char_traits@D@std@@V?$allocator@D@2@@std@@AEAAAEAV01@_KV<lambda_65e615be2a453ca0576c979606f46740>@@PEBD_K@Z
	??$_Refancy@PEAPEAVLayer@Engine@@$0A@@std@@YAPEAPEAVLayer@Engine@@PEAPEAV12@@Z
	??$_Refancy@PEBD$0A@@std@@YAPEBDPEBD@Z
	??$_Reset@V?$_Binder@U_Unforced@std@@P8Application@Engine@@EAAXAEAVEvent@4@@ZPEAV34@AEBU?$_Ph@$00@2@@std@@@?$_Func_class@XAEAVEvent@Engine@@@std@@IEAAX$$QEAV?$_Binder@U_Unforced@std@@P8Application@Engine@@EAAXAEAVEvent@4@@ZPEAV34@AEBU?$_Ph@$00@2@@1@@Z
	??$_Reset@V?$_Binder@U_Unforced@std@@P8Application@Engine@@EAA_NAEAVWindowCloseEvent@4@@ZPEAV34@AEBU?$_Ph@$00@2@@std@@@?$_Func_class@_NAEAVWindowCloseEvent@Engine@@@std@@IEAAX$$QEAV?$_Binder@U_Unforced@std@@P8Application@Engine@@EAA_NAEAVWindowCloseEvent@4@@ZPEAV34@AEBU?$_Ph@$00@2@@1@@Z
	??$_Reset@V?$_Binder@U_Unforced@std@@P8ImGuiLayer@Engine@@EAA_NAEAVKeyPressedEvent@4@@ZPEAV34@AEBU?$_Ph@$00@2@@std@@@?$_Func_class@_NAEAVKeyPressedEvent@Engine@@@std@@IEAAX$$QEAV?$_Binder@U_Unforced@std@@P8ImGuiLayer@Engine@@EAA_NAEAVKeyPressedEvent@4@@ZPEAV34@AEBU?$_Ph@$00@2@@1@@Z
	??$_Reset@V?$_Binder@U_Unforced@std@@P8ImGuiLayer@Engine@@EAA_NAEAVKeyReleasedEvent@4@@ZPEAV34@AEBU?$_Ph@$00@2@@std@@@?$_Func_class@_NAEAVKeyReleasedEvent@Engine@@@std@@IEAAX$$QEAV?$_Binder@U_Unforced@std@@P8ImGuiLayer@Engine@@EAA_NAEAVKeyReleasedEvent@4@@ZPEAV34@AEBU?$_Ph@$00@2@@1@@Z
	??$_Reset@V?$_Binder@U_Unforced@std@@P8ImGuiLayer@Engine@@EAA_NAEAVKeyTypedEvent@4@@ZPEAV34@AEBU?$_Ph@$00@2@@std@@@?$_Func_class@_NAEAVKeyTypedEvent@Engine@@@std@@IEAAX$$QEAV?$_Binder@U_Unforced@std@@P8ImGuiLayer@Engine@@EAA_NAEAVKeyTypedEvent@4@@ZPEAV34@AEBU?$_Ph@$00@2@@1@@Z
	??$_Reset@V?$_Binder@U_Unforced@std@@P8ImGuiLayer@Engine@@EAA_NAEAVMouseButtonPressedEvent@4@@ZPEAV34@AEBU?$_Ph@$00@2@@std@@@?$_Func_class@_NAEAVMouseButtonPressedEvent@Engine@@@std@@IEAAX$$QEAV?$_Binder@U_Unforced@std@@P8ImGuiLayer@Engine@@EAA_NAEAVMouseButtonPressedEvent@4@@ZPEAV34@AEBU?$_Ph@$00@2@@1@@Z
	??$_Reset@V?$_Binder@U_Unforced@std@@P8ImGuiLayer@Engine@@EAA_NAEAVMouseButtonReleasedEvent@4@@ZPEAV34@AEBU?$_Ph@$00@2@@std@@@?$_Func_class@_NAEAVMouseButtonReleasedEvent@Engine@@@std@@IEAAX$$QEAV?$_Binder@U_Unforced@std@@P8ImGuiLayer@Engine@@EAA_NAEAVMouseButtonReleasedEvent@4@@ZPEAV34@AEBU?$_Ph@$00@2@@1@@Z
	??$_Reset@V?$_Binder@U_Unforced@std@@P8ImGuiLayer@Engine@@EAA_NAEAVMouseMovedEvent@4@@ZPEAV34@AEBU?$_Ph@$00@2@@std@@@?$_Func_class@_NAEAVMouseMovedEvent@Engine@@@std@@IEAAX$$QEAV?$_Binder@U_Unforced@std@@P8ImGuiLayer@Engine@@EAA_NAEAVMouseMovedEvent@4@@ZPEAV34@AEBU?$_Ph@$00@2@@1@@Z
	??$_Reset@V?$_Binder@U_Unforced@std@@P8ImGuiLayer@Engine@@EAA_NAEAVMouseScrolledEvent@4@@ZPEAV34@AEBU?$_Ph@$00@2@@std@@@?$_Func_class@_NAEAVMouseScrolledEvent@Engine@@@std@@IEAAX$$QEAV?$_Binder@U_Unforced@std@@P8ImGuiLayer@Engine@@EAA_NAEAVMouseScrolledEvent@4@@ZPEAV34@AEBU?$_Ph@$00@2@@1@@Z
	??$_Reset@V?$_Binder@U_Unforced@std@@P8ImGuiLayer@Engine@@EAA_NAEAVWindowResizeEvent@4@@ZPEAV34@AEBU?$_Ph@$00@2@@std@@@?$_Func_class@_NAEAVWindowResizeEvent@Engine@@@std@@IEAAX$$QEAV?$_Binder@U_Unforced@std@@P8ImGuiLayer@Engine@@EAA_NAEAVWindowResizeEvent@4@@ZPEAV34@AEBU?$_Ph@$00@2@@1@@Z
	??$_Seek_wrapped@PEAIAEAPEAI@std@@YAXAEAPEAI0@Z
	??$_Seek_wrapped@PEAIPEAI@std@@YAXAEAPEAI$$QEAPEAI@Z
	??$_Seek_wrapped@V?$_Vector_iterator@V?$_Vector_val@U?$_Simple_types@PEAVLayer@Engine@@@std@@@std@@@std@@PEAPEAVLayer@Engine@@@std@@YAXAEAV?$_Vector_iterator@V?$_Vector_val@U?$_Simple_types@PEAVLayer@Engine@@@std@@@std@@@0@$$QEAPEAPEAVLayer@Engine@@@Z
	??$_Seek_wrapped@V?$checked_array_iterator@PEAD@stdext@@AEAPEAD@std@@YAXAEAV?$checked_array_iterator@PEAD@stdext@@AEAPEAD@Z
	??$_Seek_wrapped@V?$checked_array_iterator@PEAD@stdext@@PEAD@std@@YAXAEAV?$checked_array_iterator@PEAD@stdext@@$$QEAPEAD@Z
	??$_Seek_wrapped@V?$checked_array_iterator@PEAH@stdext@@PEAH@std@@YAXAEAV?$checked_array_iterator@PEAH@stdext@@$$QEAPEAH@Z
	??$_Seek_wrapped@V?$checked_array_iterator@PEAI@stdext@@PEAI@std@@YAXAEAV?$checked_array_iterator@PEAI@stdext@@$$QEAPEAI@Z
	??$_Seek_wrapped@V?$reverse_iterator@PEBD@std@@AEAV12@@std@@YAXAEAV?$reverse_iterator@PEBD@0@0@Z
	??$_Set_ptr_rep_and_enable_shared@V?$wincolor_stdout_sink@Uconsole_mutex@details@spdlog@@@sinks@spdlog@@@?$shared_ptr@V?$wincolor_stdout_sink@Uconsole_mutex@details@spdlog@@@sinks@spdlog@@@std@@AEAAXQEAV?$wincolor_stdout_sink@Uconsole_mutex@details@spdlog@@@sinks@spdlog@@QEAV_Ref_count_base@1@@Z
	??$_Set_ptr_rep_and_enable_shared@Vlogger@spdlog@@@?$shared_ptr@Vlogger@spdlog@@@std@@AEAAXQEAVlogger@spdlog@@QEAV_Ref_count_base@1@@Z
	??$_Test_callable@V?$_Binder@U_Unforced@std@@P8Application@Engine@@EAAXAEAVEvent@4@@ZPEAV34@AEBU?$_Ph@$00@2@@std@@@std@@YA_NAEBV?$_Binder@U_Unforced@std@@P8Application@Engine@@EAAXAEAVEvent@4@@ZPEAV34@AEBU?$_Ph@$00@2@@0@@Z
	??$_Test_callable@V?$_Binder@U_Unforced@std@@P8Application@Engine@@EAA_NAEAVWindowCloseEvent@4@@ZPEAV34@AEBU?$_Ph@$00@2@@std@@@std@@YA_NAEBV?$_Binder@U_Unforced@std@@P8Application@Engine@@EAA_NAEAVWindowCloseEvent@4@@ZPEAV34@AEBU?$_Ph@$00@2@@0@@Z
	??$_Test_callable@V?$_Binder@U_Unforced@std@@P8ImGuiLayer@Engine@@EAA_NAEAVKeyPressedEvent@4@@ZPEAV34@AEBU?$_Ph@$00@2@@std@@@std@@YA_NAEBV?$_Binder@U_Unforced@std@@P8ImGuiLayer@Engine@@EAA_NAEAVKeyPressedEvent@4@@ZPEAV34@AEBU?$_Ph@$00@2@@0@@Z
	??$_Test_callable@V?$_Binder@U_Unforced@std@@P8ImGuiLayer@Engine@@EAA_NAEAVKeyReleasedEvent@4@@ZPEAV34@AEBU?$_Ph@$00@2@@std@@@std@@YA_NAEBV?$_Binder@U_Unforced@std@@P8ImGuiLayer@Engine@@EAA_NAEAVKeyReleasedEvent@4@@ZPEAV34@AEBU?$_Ph@$00@2@@0@@Z
	??$_Test_callable@V?$_Binder@U_Unforced@std@@P8ImGuiLayer@Engine@@EAA_NAEAVKeyTypedEvent@4@@ZPEAV34@AEBU?$_Ph@$00@2@@std@@@std@@YA_NAEBV?$_Binder@U_Unforced@std@@P8ImGuiLayer@Engine@@EAA_NAEAVKeyTypedEvent@4@@ZPEAV34@AEBU?$_Ph@$00@2@@0@@Z
	??$_Test_callable@V?$_Binder@U_Unforced@std@@P8ImGuiLayer@Engine@@EAA_NAEAVMouseButtonPressedEvent@4@@ZPEAV34@AEBU?$_Ph@$00@2@@std@@@std@@YA_NAEBV?$_Binder@U_Unforced@std@@P8ImGuiLayer@Engine@@EAA_NAEAVMouseButtonPressedEvent@4@@ZPEAV34@AEBU?$_Ph@$00@2@@0@@Z
	??$_Test_callable@V?$_Binder@U_Unforced@std@@P8ImGuiLayer@Engine@@EAA_NAEAVMouseButtonReleasedEvent@4@@ZPEAV34@AEBU?$_Ph@$00@2@@std@@@std@@YA_NAEBV?$_Binder@U_Unforced@std@@P8ImGuiLayer@Engine@@EAA_NAEAVMouseButtonReleasedEvent@4@@ZPEAV34@AEBU?$_Ph@$00@2@@0@@Z
	??$_Test_callable@V?$_Binder@U_Unforced@std@@P8ImGuiLayer@Engine@@EAA_NAEAVMouseMovedEvent@4@@ZPEAV34@AEBU?$_Ph@$00@2@@std@@@std@@YA_NAEBV?$_Binder@U_Unforced@std@@P8ImGuiLayer@Engine@@EAA_NAEAVMouseMovedEvent@4@@ZPEAV34@AEBU?$_Ph@$00@2@@0@@Z
	??$_Test_callable@V?$_Binder@U_Unforced@std@@P8ImGuiLayer@Engine@@EAA_NAEAVMouseScrolledEvent@4@@ZPEAV34@AEBU?$_Ph@$00@2@@std@@@std@@YA_NAEBV?$_Binder@U_Unforced@std@@P8ImGuiLayer@Engine@@EAA_NAEAVMouseScrolledEvent@4@@ZPEAV34@AEBU?$_Ph@$00@2@@0@@Z
	??$_Test_callable@V?$_Binder@U_Unforced@std@@P8ImGuiLayer@Engine@@EAA_NAEAVWindowResizeEvent@4@@ZPEAV34@AEBU?$_Ph@$00@2@@std@@@std@@YA_NAEBV?$_Binder@U_Unforced@std@@P8ImGuiLayer@Engine@@EAA_NAEAVWindowResizeEvent@4@@ZPEAV34@AEBU?$_Ph@$00@2@@0@@Z
	??$_To_address@PEAD@std@@YA?A_PAEBQEAD@Z
	??$_To_address@PEAH@std@@YA?A_PAEBQEAH@Z
	??$_To_address@PEAI@std@@YA?A_PAEBQEAI@Z
	??$_To_address@PEAPEAVLayer@Engine@@@std@@YA?A_PAEBQEAPEAVLayer@Engine@@@Z
	??$_To_address@PEBD@std@@YA?A_PAEBQEBD@Z
	??$_To_address@PEBI@std@@YA?A_PAEBQEBI@Z
	??$_Traits_equal@U?$char_traits@D@std@@@std@@YA_NQEBD_K01@Z
	??$_Try_emplace@AEBD$$V@?$_Hash@V?$_Umap_traits@DV?$unique_ptr@Vcustom_flag_formatter@spdlog@@U?$default_delete@Vcustom_flag_formatter@spdlog@@@std@@@std@@V?$_Uhash_compare@DU?$hash@D@std@@U?$equal_to@D@2@@2@V?$allocator@U?$pair@$$CBDV?$unique_ptr@Vcustom_flag_formatter@spdlog@@U?$default_delete@Vcustom_flag_formatter@spdlog@@@std@@@std@@@std@@@2@$0A@@std@@@std@@IEAA?AU?$pair@PEAU?$_List_node@U?$pair@$$CBDV?$unique_ptr@Vcustom_flag_formatter@spdlog@@U?$default_delete@Vcustom_flag_formatter@spdlog@@@std@@@std@@@std@@PEAX@std@@_N@1@AEBD@Z
	??$_Try_emplace@AEBV?$basic_string@DU?$char_traits@D@std@@V?$allocator@D@2@@std@@$$V@?$_Hash@V?$_Umap_traits@V?$basic_string@DU?$char_traits@D@std@@V?$allocator@D@2@@std@@V?$shared_ptr@Vlogger@spdlog@@@2@V?$_Uhash_compare@V?$basic_string@DU?$char_traits@D@std@@V?$allocator@D@2@@std@@U?$hash@V?$basic_string@DU?$char_traits@D@std@@V?$allocator@D@2@@std@@@2@U?$equal_to@V?$basic_string@DU?$char_traits@D@std@@V?$allocator@D@2@@std@@@2@@2@V?$allocator@U?$pair@$$CBV?$basic_string@DU?$char_traits@D@std@@V?$allocator@D@2@@std@@V?$shared_ptr@Vlogger@spdlog@@@2@@std@@@2@$0A@@std@@@std@@IEAA?AU?$pair@PEAU?$_List_node@U?$pair@$$CBV?$basic_string@DU?$char_traits@D@std@@V?$allocator@D@2@@std@@V?$shared_ptr@Vlogger@spdlog@@@2@@std@@PEAX@std@@_N@1@AEBV?$basic_string@DU?$char_traits@D@std@@V?$allocator@D@2@@1@@Z
	??$_Try_emplace@V?$basic_string@DU?$char_traits@D@std@@V?$allocator@D@2@@std@@$$V@?$_Hash@V?$_Umap_traits@V?$basic_string@DU?$char_traits@D@std@@V?$allocator@D@2@@std@@V?$shared_ptr@Vlogger@spdlog@@@2@V?$_Uhash_compare@V?$basic_string@DU?$char_traits@D@std@@V?$allocator@D@2@@std@@U?$hash@V?$basic_string@DU?$char_traits@D@std@@V?$allocator@D@2@@std@@@2@U?$equal_to@V?$basic_string@DU?$char_traits@D@std@@V?$allocator@D@2@@std@@@2@@2@V?$allocator@U?$pair@$$CBV?$basic_string@DU?$char_traits@D@std@@V?$allocator@D@2@@std@@V?$shared_ptr@Vlogger@spdlog@@@2@@std@@@2@$0A@@std@@@std@@IEAA?AU?$pair@PEAU?$_List_node@U?$pair@$$CBV?$basic_string@DU?$char_traits@D@std@@V?$allocator@D@2@@std@@V?$shared_ptr@Vlogger@spdlog@@@2@@std@@PEAX@std@@_N@1@$$QEAV?$basic_string@DU?$char_traits@D@std@@V?$allocator@D@2@@1@@Z
	??$_Tuple_get@$0A@$$QEAV?$basic_string@DU?$char_traits@D@std@@V?$allocator@D@2@@std@@@std@@YA$$QEA_P$$QEAV?$tuple@$$QEAV?$basic_string@DU?$char_traits@D@std@@V?$allocator@D@2@@std@@@0@@Z
	??$_Tuple_get@$0A@AEBD@std@@YA$$QEA_P$$QEAV?$tuple@AEBD@0@@Z
	??$_Tuple_get@$0A@AEBV?$basic_string@DU?$char_traits@D@std@@V?$allocator@D@2@@std@@@std@@YA$$QEA_P$$QEAV?$tuple@AEBV?$basic_string@DU?$char_traits@D@std@@V?$allocator@D@2@@std@@@0@@Z
	??$_Unfancy@$$CBD@std@@YAPEBDPEBD@Z
	??$_Unfancy@D@std@@YAPEADPEAD@Z
	??$_Unfancy@PEAVLayer@Engine@@@std@@YAPEAPEAVLayer@Engine@@PEAPEAV12@@Z
	??$_Unfancy@U_Container_proxy@std@@@std@@YAPEAU_Container_proxy@0@PEAU10@@Z
	??$_Unfancy@V?$shared_ptr@Vsink@sinks@spdlog@@@std@@@std@@YAPEAV?$shared_ptr@Vsink@sinks@spdlog@@@0@PEAV10@@Z
	??$_Unfancy@V?$unique_ptr@Vflag_formatter@details@spdlog@@U?$default_delete@Vflag_formatter@details@spdlog@@@std@@@std@@@std@@YAPEAV?$unique_ptr@Vflag_formatter@details@spdlog@@U?$default_delete@Vflag_formatter@details@spdlog@@@std@@@0@PEAV10@@Z
	??$_Unfancy@Vlog_msg_buffer@details@spdlog@@@std@@YAPEAVlog_msg_buffer@details@spdlog@@PEAV123@@Z
	??$_Uninitialized_copy@PEAPEAVLayer@Engine@@PEAPEAV12@V?$allocator@PEAVLayer@Engine@@@std@@@std@@YAPEAPEAVLayer@Engine@@PEAPEAV12@00AEAV?$allocator@PEAVLayer@Engine@@@0@@Z
	??$_Uninitialized_copy@PEAV?$shared_ptr@Vsink@sinks@spdlog@@@std@@PEAV12@V?$allocator@V?$shared_ptr@Vsink@sinks@spdlog@@@std@@@2@@std@@YAPEAV?$shared_ptr@Vsink@sinks@spdlog@@@0@PEAV10@00AEAV?$allocator@V?$shared_ptr@Vsink@sinks@spdlog@@@std@@@0@@Z
	??$_Uninitialized_copy@PEBV?$shared_ptr@Vsink@sinks@spdlog@@@std@@PEBV12@V?$allocator@V?$shared_ptr@Vsink@sinks@spdlog@@@std@@@2@@std@@YAPEAV?$shared_ptr@Vsink@sinks@spdlog@@@0@PEBV10@0PEAV10@AEAV?$allocator@V?$shared_ptr@Vsink@sinks@spdlog@@@std@@@0@@Z
	??$_Uninitialized_copy_n@PEAPEAVLayer@Engine@@V?$allocator@PEAVLayer@Engine@@@std@@@std@@YAPEAPEAVLayer@Engine@@PEAPEAV12@_K0AEAV?$allocator@PEAVLayer@Engine@@@0@@Z
	??$_Uninitialized_copy_n@PEAVlog_msg_buffer@details@spdlog@@V?$allocator@Vlog_msg_buffer@details@spdlog@@@std@@@std@@YAPEAVlog_msg_buffer@details@spdlog@@PEAV123@_K0AEAV?$allocator@Vlog_msg_buffer@details@spdlog@@@0@@Z
	??$_Uninitialized_copy_unchecked@PEADPEAD@std@@YAPEADPEADQEAD0@Z
	??$_Uninitialized_copy_unchecked@PEAHPEAH@std@@YAPEAHPEAHQEAH0@Z
	??$_Uninitialized_copy_unchecked@PEAIPEAI@std@@YAPEAIPEAIQEAI0@Z
	??$_Uninitialized_move@PEAPEAVLayer@Engine@@V?$allocator@PEAVLayer@Engine@@@std@@@std@@YAPEAPEAVLayer@Engine@@QEAPEAV12@0PEAPEAV12@AEAV?$allocator@PEAVLayer@Engine@@@0@@Z
	??$_Uninitialized_move@PEAV?$unique_ptr@Vflag_formatter@details@spdlog@@U?$default_delete@Vflag_formatter@details@spdlog@@@std@@@std@@V?$allocator@V?$unique_ptr@Vflag_formatter@details@spdlog@@U?$default_delete@Vflag_formatter@details@spdlog@@@std@@@std@@@2@@std@@YAPEAV?$unique_ptr@Vflag_formatter@details@spdlog@@U?$default_delete@Vflag_formatter@details@spdlog@@@std@@@0@QEAV10@0PEAV10@AEAV?$allocator@V?$unique_ptr@Vflag_formatter@details@spdlog@@U?$default_delete@Vflag_formatter@details@spdlog@@@std@@@std@@@0@@Z
	??$_Uninitialized_value_construct_n@V?$allocator@Vlog_msg_buffer@details@spdlog@@@std@@@std@@YAPEAVlog_msg_buffer@details@spdlog@@PEAV123@_KAEAV?$allocator@Vlog_msg_buffer@details@spdlog@@@0@@Z
	??$_Verify_range@D@std@@YAXQEBD0@Z
	??$_Verify_range@H@std@@YAXQEBH0@Z
	??$_Verify_range@I@std@@YAXQEBI0@Z
	??$_Verify_range@PEBD$0A@@std@@YAXAEBV?$reverse_iterator@PEBD@0@0@Z
	??$_Verify_range@V?$_List_unchecked_iterator@V?$_List_val@U?$_List_simple_types@U?$pair@$$CBDV?$unique_ptr@Vcustom_flag_formatter@spdlog@@U?$default_delete@Vcustom_flag_formatter@spdlog@@@std@@@std@@@std@@@std@@@std@@@std@@@std@@YAXQEBV?$_List_unchecked_iterator@V?$_List_val@U?$_List_simple_types@U?$pair@$$CBDV?$unique_ptr@Vcustom_flag_formatter@spdlog@@U?$default_delete@Vcustom_flag_formatter@spdlog@@@std@@@std@@@std@@@std@@@std@@@0@0@Z
	??$_Verify_range@V?$_List_unchecked_iterator@V?$_List_val@U?$_List_simple_types@U?$pair@$$CBV?$basic_string@DU?$char_traits@D@std@@V?$allocator@D@2@@std@@V?$shared_ptr@Vlogger@spdlog@@@2@@std@@@std@@@std@@@std@@@std@@YAXQEBV?$_List_unchecked_iterator@V?$_List_val@U?$_List_simple_types@U?$pair@$$CBV?$basic_string@DU?$char_traits@D@std@@V?$allocator@D@2@@std@@V?$shared_ptr@Vlogger@spdlog@@@2@@std@@@std@@@std@@@0@0@Z
	??$_Verify_range@V?$_List_unchecked_iterator@V?$_List_val@U?$_List_simple_types@U?$pair@$$CBV?$basic_string@DU?$char_traits@D@std@@V?$allocator@D@2@@std@@W4level_enum@level@spdlog@@@std@@@std@@@std@@@std@@@std@@YAXQEBV?$_List_unchecked_iterator@V?$_List_val@U?$_List_simple_types@U?$pair@$$CBV?$basic_string@DU?$char_traits@D@std@@V?$allocator@D@2@@std@@W4level_enum@level@spdlog@@@std@@@std@@@std@@@0@0@Z
	??$_Verify_range@V?$shared_ptr@Vsink@sinks@spdlog@@@std@@@std@@YAXQEBV?$shared_ptr@Vsink@sinks@spdlog@@@0@0@Z
	??$__std_find_trivial@PEAVLayer@Engine@@PEAV12@@@YAPEAPEAVLayer@Engine@@PEAPEAV01@0QEAV01@@Z
	??$__std_find_trivial@PEAVLayer@Engine@@_K@@YAPEAPEAVLayer@Engine@@PEAPEAV01@0_K@Z
	??$addressof@$$CBV?$_Binder@U_Unforced@std@@P8Application@Engine@@EAAXAEAVEvent@4@@ZPEAV34@AEBU?$_Ph@$00@2@@std@@@std@@YAPEBV?$_Binder@U_Unforced@std@@P8Application@Engine@@EAAXAEAVEvent@4@@ZPEAV34@AEBU?$_Ph@$00@2@@0@AEBV10@@Z
	??$addressof@$$CBV?$_Binder@U_Unforced@std@@P8Application@Engine@@EAA_NAEAVWindowCloseEvent@4@@ZPEAV34@AEBU?$_Ph@$00@2@@std@@@std@@YAPEBV?$_Binder@U_Unforced@std@@P8Application@Engine@@EAA_NAEAVWindowCloseEvent@4@@ZPEAV34@AEBU?$_Ph@$00@2@@0@AEBV10@@Z
	??$addressof@$$CBV?$_Binder@U_Unforced@std@@P8ImGuiLayer@Engine@@EAA_NAEAVKeyPressedEvent@4@@ZPEAV34@AEBU?$_Ph@$00@2@@std@@@std@@YAPEBV?$_Binder@U_Unforced@std@@P8ImGuiLayer@Engine@@EAA_NAEAVKeyPressedEvent@4@@ZPEAV34@AEBU?$_Ph@$00@2@@0@AEBV10@@Z
	??$addressof@$$CBV?$_Binder@U_Unforced@std@@P8ImGuiLayer@Engine@@EAA_NAEAVKeyReleasedEvent@4@@ZPEAV34@AEBU?$_Ph@$00@2@@std@@@std@@YAPEBV?$_Binder@U_Unforced@std@@P8ImGuiLayer@Engine@@EAA_NAEAVKeyReleasedEvent@4@@ZPEAV34@AEBU?$_Ph@$00@2@@0@AEBV10@@Z
	??$addressof@$$CBV?$_Binder@U_Unforced@std@@P8ImGuiLayer@Engine@@EAA_NAEAVKeyTypedEvent@4@@ZPEAV34@AEBU?$_Ph@$00@2@@std@@@std@@YAPEBV?$_Binder@U_Unforced@std@@P8ImGuiLayer@Engine@@EAA_NAEAVKeyTypedEvent@4@@ZPEAV34@AEBU?$_Ph@$00@2@@0@AEBV10@@Z
	??$addressof@$$CBV?$_Binder@U_Unforced@std@@P8ImGuiLayer@Engine@@EAA_NAEAVMouseButtonPressedEvent@4@@ZPEAV34@AEBU?$_Ph@$00@2@@std@@@std@@YAPEBV?$_Binder@U_Unforced@std@@P8ImGuiLayer@Engine@@EAA_NAEAVMouseButtonPressedEvent@4@@ZPEAV34@AEBU?$_Ph@$00@2@@0@AEBV10@@Z
	??$addressof@$$CBV?$_Binder@U_Unforced@std@@P8ImGuiLayer@Engine@@EAA_NAEAVMouseButtonReleasedEvent@4@@ZPEAV34@AEBU?$_Ph@$00@2@@std@@@std@@YAPEBV?$_Binder@U_Unforced@std@@P8ImGuiLayer@Engine@@EAA_NAEAVMouseButtonReleasedEvent@4@@ZPEAV34@AEBU?$_Ph@$00@2@@0@AEBV10@@Z
	??$addressof@$$CBV?$_Binder@U_Unforced@std@@P8ImGuiLayer@Engine@@EAA_NAEAVMouseMovedEvent@4@@ZPEAV34@AEBU?$_Ph@$00@2@@std@@@std@@YAPEBV?$_Binder@U_Unforced@std@@P8ImGuiLayer@Engine@@EAA_NAEAVMouseMovedEvent@4@@ZPEAV34@AEBU?$_Ph@$00@2@@0@AEBV10@@Z
	??$addressof@$$CBV?$_Binder@U_Unforced@std@@P8ImGuiLayer@Engine@@EAA_NAEAVMouseScrolledEvent@4@@ZPEAV34@AEBU?$_Ph@$00@2@@std@@@std@@YAPEBV?$_Binder@U_Unforced@std@@P8ImGuiLayer@Engine@@EAA_NAEAVMouseScrolledEvent@4@@ZPEAV34@AEBU?$_Ph@$00@2@@0@AEBV10@@Z
	??$addressof@$$CBV?$_Binder@U_Unforced@std@@P8ImGuiLayer@Engine@@EAA_NAEAVWindowResizeEvent@4@@ZPEAV34@AEBU?$_Ph@$00@2@@std@@@std@@YAPEBV?$_Binder@U_Unforced@std@@P8ImGuiLayer@Engine@@EAA_NAEAVWindowResizeEvent@4@@ZPEAV34@AEBU?$_Ph@$00@2@@0@AEBV10@@Z
	??$addressof@$$CBV?$_List_val@U?$_List_simple_types@U?$pair@$$CBDV?$unique_ptr@Vcustom_flag_formatter@spdlog@@U?$default_delete@Vcustom_flag_formatter@spdlog@@@std@@@std@@@std@@@std@@@std@@@std@@YAPEBV?$_List_val@U?$_List_simple_types@U?$pair@$$CBDV?$unique_ptr@Vcustom_flag_formatter@spdlog@@U?$default_delete@Vcustom_flag_formatter@spdlog@@@std@@@std@@@std@@@std@@@0@AEBV10@@Z
	??$addressof@$$CBV?$_List_val@U?$_List_simple_types@U?$pair@$$CBV?$basic_string@DU?$char_traits@D@std@@V?$allocator@D@2@@std@@V?$shared_ptr@Vlogger@spdlog@@@2@@std@@@std@@@std@@@std@@YAPEBV?$_List_val@U?$_List_simple_types@U?$pair@$$CBV?$basic_string@DU?$char_traits@D@std@@V?$allocator@D@2@@std@@V?$shared_ptr@Vlogger@spdlog@@@2@@std@@@std@@@0@AEBV10@@Z
	??$addressof@$$CBV?$_List_val@U?$_List_simple_types@U?$pair@$$CBV?$basic_string@DU?$char_traits@D@std@@V?$allocator@D@2@@std@@W4level_enum@level@spdlog@@@std@@@std@@@std@@@std@@YAPEBV?$_List_val@U?$_List_simple_types@U?$pair@$$CBV?$basic_string@DU?$char_traits@D@std@@V?$allocator@D@2@@std@@W4level_enum@level@spdlog@@@std@@@std@@@0@AEBV10@@Z
	??$addressof@$$CBV?$_String_val@U?$_Simple_types@D@std@@@std@@@std@@YAPEBV?$_String_val@U?$_Simple_types@D@std@@@0@AEBV10@@Z
	??$addressof@$$CBV?$_Tree_val@U?$_Tree_simple_types@U?$pair@$$CBV?$basic_string@DU?$char_traits@D@std@@V?$allocator@D@2@@std@@V12@@std@@@std@@@std@@@std@@YAPEBV?$_Tree_val@U?$_Tree_simple_types@U?$pair@$$CBV?$basic_string@DU?$char_traits@D@std@@V?$allocator@D@2@@std@@V12@@std@@@std@@@0@AEBV10@@Z
	??$addressof@$$CBV?$basic_string@DU?$char_traits@D@std@@V?$allocator@D@2@@std@@@std@@YAPEBV?$basic_string@DU?$char_traits@D@std@@V?$allocator@D@2@@0@AEBV10@@Z
	??$addressof@$$CBV?$vector@PEAVLayer@Engine@@V?$allocator@PEAVLayer@Engine@@@std@@@std@@@std@@YAPEBV?$vector@PEAVLayer@Engine@@V?$allocator@PEAVLayer@Engine@@@std@@@0@AEBV10@@Z
	??$addressof@$$CBV?$vector@Vlog_msg_buffer@details@spdlog@@V?$allocator@Vlog_msg_buffer@details@spdlog@@@std@@@std@@@std@@YAPEBV?$vector@Vlog_msg_buffer@details@spdlog@@V?$allocator@Vlog_msg_buffer@details@spdlog@@@std@@@0@AEBV10@@Z
	??$addressof@D@std@@YAPEADAEAD@Z
	??$addressof@H@std@@YAPEAHAEAH@Z
	??$addressof@I@std@@YAPEAIAEAI@Z
	??$addressof@PEAD@std@@YAPEAPEADAEAPEAD@Z
	??$addressof@PEAU?$_List_node@U?$pair@$$CBDV?$unique_ptr@Vcustom_flag_formatter@spdlog@@U?$default_delete@Vcustom_flag_formatter@spdlog@@@std@@@std@@@std@@PEAX@std@@@std@@YAPEAPEAU?$_List_node@U?$pair@$$CBDV?$unique_ptr@Vcustom_flag_formatter@spdlog@@U?$default_delete@Vcustom_flag_formatter@spdlog@@@std@@@std@@@std@@PEAX@0@AEAPEAU10@@Z
	??$addressof@PEAU?$_List_node@U?$pair@$$CBV?$basic_string@DU?$char_traits@D@std@@V?$allocator@D@2@@std@@V?$shared_ptr@Vlogger@spdlog@@@2@@std@@PEAX@std@@@std@@YAPEAPEAU?$_List_node@U?$pair@$$CBV?$basic_string@DU?$char_traits@D@std@@V?$allocator@D@2@@std@@V?$shared_ptr@Vlogger@spdlog@@@2@@std@@PEAX@0@AEAPEAU10@@Z
	??$addressof@PEAU?$_List_node@U?$pair@$$CBV?$basic_string@DU?$char_traits@D@std@@V?$allocator@D@2@@std@@W4level_enum@level@spdlog@@@std@@PEAX@std@@@std@@YAPEAPEAU?$_List_node@U?$pair@$$CBV?$basic_string@DU?$char_traits@D@std@@V?$allocator@D@2@@std@@W4level_enum@level@spdlog@@@std@@PEAX@0@AEAPEAU10@@Z
	??$addressof@PEAU?$_Tree_node@U?$pair@$$CBV?$basic_string@DU?$char_traits@D@std@@V?$allocator@D@2@@std@@V12@@std@@PEAX@std@@@std@@YAPEAPEAU?$_Tree_node@U?$pair@$$CBV?$basic_string@DU?$char_traits@D@std@@V?$allocator@D@2@@std@@V12@@std@@PEAX@0@AEAPEAU10@@Z
	??$addressof@PEAVLayer@Engine@@@std@@YAPEAPEAVLayer@Engine@@AEAPEAV12@@Z
	??$addressof@U?$pair@$$CBDV?$unique_ptr@Vcustom_flag_formatter@spdlog@@U?$default_delete@Vcustom_flag_formatter@spdlog@@@std@@@std@@@std@@@std@@YAPEAU?$pair@$$CBDV?$unique_ptr@Vcustom_flag_formatter@spdlog@@U?$default_delete@Vcustom_flag_formatter@spdlog@@@std@@@std@@@0@AEAU10@@Z
	??$addressof@U?$pair@$$CBV?$basic_string@DU?$char_traits@D@std@@V?$allocator@D@2@@std@@V12@@std@@@std@@YAPEAU?$pair@$$CBV?$basic_string@DU?$char_traits@D@std@@V?$allocator@D@2@@std@@V12@@0@AEAU10@@Z
	??$addressof@U?$pair@$$CBV?$basic_string@DU?$char_traits@D@std@@V?$allocator@D@2@@std@@V?$shared_ptr@Vlogger@spdlog@@@2@@std@@@std@@YAPEAU?$pair@$$CBV?$basic_string@DU?$char_traits@D@std@@V?$allocator@D@2@@std@@V?$shared_ptr@Vlogger@spdlog@@@2@@0@AEAU10@@Z
	??$addressof@U?$pair@$$CBV?$basic_string@DU?$char_traits@D@std@@V?$allocator@D@2@@std@@W4level_enum@level@spdlog@@@std@@@std@@YAPEAU?$pair@$$CBV?$basic_string@DU?$char_traits@D@std@@V?$allocator@D@2@@std@@W4level_enum@level@spdlog@@@0@AEAU10@@Z
	??$addressof@U_Container_base12@std@@@std@@YAPEAU_Container_base12@0@AEAU10@@Z
	??$addressof@U_Container_proxy@std@@@std@@YAPEAU_Container_proxy@0@AEAU10@@Z
	??$addressof@V?$_List_unchecked_iterator@V?$_List_val@U?$_List_simple_types@U?$pair@$$CBDV?$unique_ptr@Vcustom_flag_formatter@spdlog@@U?$default_delete@Vcustom_flag_formatter@spdlog@@@std@@@std@@@std@@@std@@@std@@@std@@@std@@YAPEAV?$_List_unchecked_iterator@V?$_List_val@U?$_List_simple_types@U?$pair@$$CBDV?$unique_ptr@Vcustom_flag_formatter@spdlog@@U?$default_delete@Vcustom_flag_formatter@spdlog@@@std@@@std@@@std@@@std@@@std@@@0@AEAV10@@Z
	??$addressof@V?$_List_unchecked_iterator@V?$_List_val@U?$_List_simple_types@U?$pair@$$CBV?$basic_string@DU?$char_traits@D@std@@V?$allocator@D@2@@std@@V?$shared_ptr@Vlogger@spdlog@@@2@@std@@@std@@@std@@@std@@@std@@YAPEAV?$_List_unchecked_iterator@V?$_List_val@U?$_List_simple_types@U?$pair@$$CBV?$basic_string@DU?$char_traits@D@std@@V?$allocator@D@2@@std@@V?$shared_ptr@Vlogger@spdlog@@@2@@std@@@std@@@std@@@0@AEAV10@@Z
	??$addressof@V?$_List_unchecked_iterator@V?$_List_val@U?$_List_simple_types@U?$pair@$$CBV?$basic_string@DU?$char_traits@D@std@@V?$allocator@D@2@@std@@W4level_enum@level@spdlog@@@std@@@std@@@std@@@std@@@std@@YAPEAV?$_List_unchecked_iterator@V?$_List_val@U?$_List_simple_types@U?$pair@$$CBV?$basic_string@DU?$char_traits@D@std@@V?$allocator@D@2@@std@@W4level_enum@level@spdlog@@@std@@@std@@@std@@@0@AEAV10@@Z
	??$addressof@V?$_List_val@U?$_List_simple_types@U?$pair@$$CBDV?$unique_ptr@Vcustom_flag_formatter@spdlog@@U?$default_delete@Vcustom_flag_formatter@spdlog@@@std@@@std@@@std@@@std@@@std@@@std@@YAPEAV?$_List_val@U?$_List_simple_types@U?$pair@$$CBDV?$unique_ptr@Vcustom_flag_formatter@spdlog@@U?$default_delete@Vcustom_flag_formatter@spdlog@@@std@@@std@@@std@@@std@@@0@AEAV10@@Z
	??$addressof@V?$_List_val@U?$_List_simple_types@U?$pair@$$CBV?$basic_string@DU?$char_traits@D@std@@V?$allocator@D@2@@std@@V?$shared_ptr@Vlogger@spdlog@@@2@@std@@@std@@@std@@@std@@YAPEAV?$_List_val@U?$_List_simple_types@U?$pair@$$CBV?$basic_string@DU?$char_traits@D@std@@V?$allocator@D@2@@std@@V?$shared_ptr@Vlogger@spdlog@@@2@@std@@@std@@@0@AEAV10@@Z
	??$addressof@V?$_List_val@U?$_List_simple_types@U?$pair@$$CBV?$basic_string@DU?$char_traits@D@std@@V?$allocator@D@2@@std@@W4level_enum@level@spdlog@@@std@@@std@@@std@@@std@@YAPEAV?$_List_val@U?$_List_simple_types@U?$pair@$$CBV?$basic_string@DU?$char_traits@D@std@@V?$allocator@D@2@@std@@W4level_enum@level@spdlog@@@std@@@std@@@0@AEAV10@@Z
	??$addressof@V?$_String_val@U?$_Simple_types@D@std@@@std@@@std@@YAPEAV?$_String_val@U?$_Simple_types@D@std@@@0@AEAV10@@Z
	??$addressof@V?$_Tree_val@U?$_Tree_simple_types@U?$pair@$$CBV?$basic_string@DU?$char_traits@D@std@@V?$allocator@D@2@@std@@V12@@std@@@std@@@std@@@std@@YAPEAV?$_Tree_val@U?$_Tree_simple_types@U?$pair@$$CBV?$basic_string@DU?$char_traits@D@std@@V?$allocator@D@2@@std@@V12@@std@@@std@@@0@AEAV10@@Z
	??$addressof@V?$_Vector_val@U?$_Simple_types@PEAVLayer@Engine@@@std@@@std@@@std@@YAPEAV?$_Vector_val@U?$_Simple_types@PEAVLayer@Engine@@@std@@@0@AEAV10@@Z
	??$addressof@V?$_Vector_val@U?$_Simple_types@V?$shared_ptr@Vsink@sinks@spdlog@@@std@@@std@@@std@@@std@@YAPEAV?$_Vector_val@U?$_Simple_types@V?$shared_ptr@Vsink@sinks@spdlog@@@std@@@std@@@0@AEAV10@@Z
	??$addressof@V?$basic_memory_buffer@D$0PK@V?$allocator@D@std@@@v9@fmt@@@std@@YAPEAV?$basic_memory_buffer@D$0PK@V?$allocator@D@std@@@v9@fmt@@AEAV123@@Z
	??$addressof@V?$basic_string@DU?$char_traits@D@std@@V?$allocator@D@2@@std@@@std@@YAPEAV?$basic_string@DU?$char_traits@D@std@@V?$allocator@D@2@@0@AEAV10@@Z
	??$addressof@V?$basic_stringbuf@DU?$char_traits@D@std@@V?$allocator@D@2@@std@@@std@@YAPEAV?$basic_stringbuf@DU?$char_traits@D@std@@V?$allocator@D@2@@0@AEAV10@@Z
	??$addressof@V?$buffer@D@detail@v9@fmt@@@std@@YAPEAV?$buffer@D@detail@v9@fmt@@AEAV1234@@Z
	??$addressof@V?$function@$$A6AXAEBV?$basic_string@DU?$char_traits@D@std@@V?$allocator@D@2@@std@@@Z@std@@@std@@YAPEAV?$function@$$A6AXAEBV?$basic_string@DU?$char_traits@D@std@@V?$allocator@D@2@@std@@@Z@0@AEAV10@@Z
	??$addressof@V?$unique_ptr@Vflag_formatter@details@spdlog@@U?$default_delete@Vflag_formatter@details@spdlog@@@std@@@std@@@std@@YAPEAV?$unique_ptr@Vflag_formatter@details@spdlog@@U?$default_delete@Vflag_formatter@details@spdlog@@@std@@@0@AEAV10@@Z
	??$addressof@V?$vector@Vlog_msg_buffer@details@spdlog@@V?$allocator@Vlog_msg_buffer@details@spdlog@@@std@@@std@@@std@@YAPEAV?$vector@Vlog_msg_buffer@details@spdlog@@V?$allocator@Vlog_msg_buffer@details@spdlog@@@std@@@0@AEAV10@@Z
	??$addressof@V?$wincolor_stdout_sink@Uconsole_mutex@details@spdlog@@@sinks@spdlog@@@std@@YAPEAV?$wincolor_stdout_sink@Uconsole_mutex@details@spdlog@@@sinks@spdlog@@AEAV123@@Z
	??$addressof@Vlogger@spdlog@@@std@@YAPEAVlogger@spdlog@@AEAV12@@Z
	??$advance@V?$_Vector_iterator@V?$_Vector_val@U?$_Simple_types@V?$shared_ptr@Vsink@sinks@spdlog@@@std@@@std@@@std@@@std@@_J@std@@YAXAEAV?$_Vector_iterator@V?$_Vector_val@U?$_Simple_types@V?$shared_ptr@Vsink@sinks@spdlog@@@std@@@std@@@std@@@0@_J@Z
	??$append@D@?$buffer@D@detail@v9@fmt@@QEAAXPEBD0@Z
	??$append_int@H@fmt_helper@details@spdlog@@YAXHAEAV?$basic_memory_buffer@D$0PK@V?$allocator@D@std@@@v9@fmt@@@Z
	??$append_int@I@fmt_helper@details@spdlog@@YAXIAEAV?$basic_memory_buffer@D$0PK@V?$allocator@D@std@@@v9@fmt@@@Z
	??$append_int@_J@fmt_helper@details@spdlog@@YAX_JAEAV?$basic_memory_buffer@D$0PK@V?$allocator@D@std@@@v9@fmt@@@Z
	??$append_int@_K@fmt_helper@details@spdlog@@YAX_KAEAV?$basic_memory_buffer@D$0PK@V?$allocator@D@std@@@v9@fmt@@@Z
	??$apply@Vappender@v9@fmt@@D@?$digit_grouping@D@detail@v9@fmt@@QEBA?AVappender@23@V423@V?$basic_string_view@D@23@@Z
	??$apply@Vappender@v9@fmt@@D@?$fallback_digit_grouping@D@detail@v9@fmt@@QEBA?AVappender@23@V423@V?$basic_string_view@D@23@@Z
	??$assign@M$0A@@?$basic_fp@Vuint128_fallback@detail@v9@fmt@@@detail@v9@fmt@@QEAA_NM@Z
	??$assign@N$0A@@?$basic_fp@Vuint128_fallback@detail@v9@fmt@@@detail@v9@fmt@@QEAA_NN@Z
	??$assign@N$0A@@?$basic_fp@_K@detail@v9@fmt@@QEAA_NN@Z
	??$assign@Vuint128_fallback@detail@v9@fmt@@$0A@@bigint@detail@v9@fmt@@AEAAXVuint128_fallback@123@@Z
	??$assign@_K$0A@@bigint@detail@v9@fmt@@AEAAX_K@Z
	??$back_inserter@V?$basic_memory_buffer@D$0PK@V?$allocator@D@std@@@v9@fmt@@@std@@YA?AV?$back_insert_iterator@V?$basic_memory_buffer@D$0PK@V?$allocator@D@std@@@v9@fmt@@@0@AEAV?$basic_memory_buffer@D$0PK@V?$allocator@D@std@@@v9@fmt@@@Z
	??$back_inserter@V?$buffer@D@detail@v9@fmt@@@std@@YA?AV?$back_insert_iterator@V?$buffer@D@detail@v9@fmt@@@0@AEAV?$buffer@D@detail@v9@fmt@@@Z
	??$base_iterator@V?$back_insert_iterator@V?$buffer@D@detail@v9@fmt@@@std@@@detail@v9@fmt@@YA?AV?$back_insert_iterator@V?$buffer@D@detail@v9@fmt@@@std@@V34@0@Z
	??$base_iterator@Vappender@v9@fmt@@@detail@v9@fmt@@YA?AVappender@12@V312@0@Z
	??$begin@$$CBD$02@std@@YAPEBDAEAY02$$CBD@Z
	??$bind@P8Application@Engine@@EAAXAEAVEvent@2@@ZPEAV12@AEBU?$_Ph@$00@std@@@std@@YA?AV?$_Binder@U_Unforced@std@@P8Application@Engine@@EAAXAEAVEvent@4@@ZPEAV34@AEBU?$_Ph@$00@2@@0@$$QEAP8Application@Engine@@EAAXAEAVEvent@3@@Z$$QEAPEAV23@AEBU?$_Ph@$00@0@@Z
	??$bind@P8Application@Engine@@EAA_NAEAVWindowCloseEvent@2@@ZPEAV12@AEBU?$_Ph@$00@std@@@std@@YA?AV?$_Binder@U_Unforced@std@@P8Application@Engine@@EAA_NAEAVWindowCloseEvent@4@@ZPEAV34@AEBU?$_Ph@$00@2@@0@$$QEAP8Application@Engine@@EAA_NAEAVWindowCloseEvent@3@@Z$$QEAPEAV23@AEBU?$_Ph@$00@0@@Z
	??$bind@P8ImGuiLayer@Engine@@EAA_NAEAVKeyPressedEvent@2@@ZPEAV12@AEBU?$_Ph@$00@std@@@std@@YA?AV?$_Binder@U_Unforced@std@@P8ImGuiLayer@Engine@@EAA_NAEAVKeyPressedEvent@4@@ZPEAV34@AEBU?$_Ph@$00@2@@0@$$QEAP8ImGuiLayer@Engine@@EAA_NAEAVKeyPressedEvent@3@@Z$$QEAPEAV23@AEBU?$_Ph@$00@0@@Z
	??$bind@P8ImGuiLayer@Engine@@EAA_NAEAVKeyReleasedEvent@2@@ZPEAV12@AEBU?$_Ph@$00@std@@@std@@YA?AV?$_Binder@U_Unforced@std@@P8ImGuiLayer@Engine@@EAA_NAEAVKeyReleasedEvent@4@@ZPEAV34@AEBU?$_Ph@$00@2@@0@$$QEAP8ImGuiLayer@Engine@@EAA_NAEAVKeyReleasedEvent@3@@Z$$QEAPEAV23@AEBU?$_Ph@$00@0@@Z
	??$bind@P8ImGuiLayer@Engine@@EAA_NAEAVKeyTypedEvent@2@@ZPEAV12@AEBU?$_Ph@$00@std@@@std@@YA?AV?$_Binder@U_Unforced@std@@P8ImGuiLayer@Engine@@EAA_NAEAVKeyTypedEvent@4@@ZPEAV34@AEBU?$_Ph@$00@2@@0@$$QEAP8ImGuiLayer@Engine@@EAA_NAEAVKeyTypedEvent@3@@Z$$QEAPEAV23@AEBU?$_Ph@$00@0@@Z
	??$bind@P8ImGuiLayer@Engine@@EAA_NAEAVMouseButtonPressedEvent@2@@ZPEAV12@AEBU?$_Ph@$00@std@@@std@@YA?AV?$_Binder@U_Unforced@std@@P8ImGuiLayer@Engine@@EAA_NAEAVMouseButtonPressedEvent@4@@ZPEAV34@AEBU?$_Ph@$00@2@@0@$$QEAP8ImGuiLayer@Engine@@EAA_NAEAVMouseButtonPressedEvent@3@@Z$$QEAPEAV23@AEBU?$_Ph@$00@0@@Z
	??$bind@P8ImGuiLayer@Engine@@EAA_NAEAVMouseButtonReleasedEvent@2@@ZPEAV12@AEBU?$_Ph@$00@std@@@std@@YA?AV?$_Binder@U_Unforced@std@@P8ImGuiLayer@Engine@@EAA_NAEAVMouseButtonReleasedEvent@4@@ZPEAV34@AEBU?$_Ph@$00@2@@0@$$QEAP8ImGuiLayer@Engine@@EAA_NAEAVMouseButtonReleasedEvent@3@@Z$$QEAPEAV23@AEBU?$_Ph@$00@0@@Z
	??$bind@P8ImGuiLayer@Engine@@EAA_NAEAVMouseMovedEvent@2@@ZPEAV12@AEBU?$_Ph@$00@std@@@std@@YA?AV?$_Binder@U_Unforced@std@@P8ImGuiLayer@Engine@@EAA_NAEAVMouseMovedEvent@4@@ZPEAV34@AEBU?$_Ph@$00@2@@0@$$QEAP8ImGuiLayer@Engine@@EAA_NAEAVMouseMovedEvent@3@@Z$$QEAPEAV23@AEBU?$_Ph@$00@0@@Z
	??$bind@P8ImGuiLayer@Engine@@EAA_NAEAVMouseScrolledEvent@2@@ZPEAV12@AEBU?$_Ph@$00@std@@@std@@YA?AV?$_Binder@U_Unforced@std@@P8ImGuiLayer@Engine@@EAA_NAEAVMouseScrolledEvent@4@@ZPEAV34@AEBU?$_Ph@$00@2@@0@$$QEAP8ImGuiLayer@Engine@@EAA_NAEAVMouseScrolledEvent@3@@Z$$QEAPEAV23@AEBU?$_Ph@$00@0@@Z
	??$bind@P8ImGuiLayer@Engine@@EAA_NAEAVWindowResizeEvent@2@@ZPEAV12@AEBU?$_Ph@$00@std@@@std@@YA?AV?$_Binder@U_Unforced@std@@P8ImGuiLayer@Engine@@EAA_NAEAVWindowResizeEvent@4@@ZPEAV34@AEBU?$_Ph@$00@2@@0@$$QEAP8ImGuiLayer@Engine@@EAA_NAEAVWindowResizeEvent@3@@Z$$QEAPEAV23@AEBU?$_Ph@$00@0@@Z
	??$bit_cast@IM$0A@@detail@v9@fmt@@YAIAEBM@Z
	??$bit_cast@_KN$0A@@detail@v9@fmt@@YA_KAEBN@Z
	??$bit_cast@_KO$0A@@detail@v9@fmt@@YA_KAEBO@Z
	??$bit_cast@_KPEBD$0A@@detail@v9@fmt@@YA_KAEBQEBD@Z
	??$bit_cast@_KPEBX$0A@@detail@v9@fmt@@YA_KAEBQEBX@Z
	??$check_char_specs@DUerror_handler@detail@v9@fmt@@@detail@v9@fmt@@YA_NAEBU?$basic_format_specs@D@12@$$QEAUerror_handler@012@@Z
	??$check_cstring_type_spec@Uerror_handler@detail@v9@fmt@@@detail@v9@fmt@@YA_NW4presentation_type@12@$$QEAUerror_handler@012@@Z
	??$check_divisibility_and_divide_by_pow10@$00@dragonbox@detail@v9@fmt@@YA_NAEAI@Z
	??$check_divisibility_and_divide_by_pow10@$01@dragonbox@detail@v9@fmt@@YA_NAEAI@Z
	??$check_format_string@AEAHAEAPEBD$$BY0BG@D$0A@@detail@v9@fmt@@YAXAEAY0BG@$$CBD@Z
	??$check_format_string@AEAHUFMT_COMPILE_STRING@?1???R<lambda_e67b02bdbac6039e8e2880dbb6e3e3aa>@@QEBA@XZ@$0A@@detail@v9@fmt@@YAXUFMT_COMPILE_STRING@?1???R<lambda_e67b02bdbac6039e8e2880dbb6e3e3aa>@@QEBA@XZ@@Z
	??$check_format_string@AEAV?$basic_string_view@D@v9@fmt@@AEAY02$$CBDUFMT_COMPILE_STRING@?1???R<lambda_8858bbb77d2a42a7b2e251b7917f7d3f>@@QEBA@XZ@$0A@@detail@v9@fmt@@YAXUFMT_COMPILE_STRING@?1???R<lambda_8858bbb77d2a42a7b2e251b7917f7d3f>@@QEBA@XZ@@Z
	??$check_format_string@AEAY06$$CBDAEAHUFMT_COMPILE_STRING@?1???R<lambda_ea8c7b7436323a1b4bf929d68ad400b6>@@QEBA@XZ@$0A@@detail@v9@fmt@@YAXUFMT_COMPILE_STRING@?1???R<lambda_ea8c7b7436323a1b4bf929d68ad400b6>@@QEBA@XZ@@Z
	??$check_format_string@AEBV?$basic_string@DU?$char_traits@D@std@@V?$allocator@D@2@@std@@AEBIAEBI$$BY0BP@D$0A@@detail@v9@fmt@@YAXAEAY0BP@$$CBD@Z
	??$check_format_string@PEBDAEAPEBDAEAHUFMT_COMPILE_STRING@?1???R<lambda_212d00fcbee2b91dfe80444fa9e75194>@@QEBA@XZ@$0A@@detail@v9@fmt@@YAXUFMT_COMPILE_STRING@?1???R<lambda_212d00fcbee2b91dfe80444fa9e75194>@@QEBA@XZ@@Z
	??$check_format_string@PEBDAEAPEBDAEAHUFMT_COMPILE_STRING@?1???R<lambda_34dd3ed776973c3fb6c81e3f2a5b93d6>@@QEBA@XZ@$0A@@detail@v9@fmt@@YAXUFMT_COMPILE_STRING@?1???R<lambda_34dd3ed776973c3fb6c81e3f2a5b93d6>@@QEBA@XZ@@Z
	??$check_format_string@PEBDAEBQEBDAEBHUFMT_COMPILE_STRING@?1???R<lambda_7046b8cb1365fe954f34e9bd737c2efb>@@QEBA@XZ@$0A@@detail@v9@fmt@@YAXUFMT_COMPILE_STRING@?1???R<lambda_7046b8cb1365fe954f34e9bd737c2efb>@@QEBA@XZ@@Z
	??$check_format_string@PEBDPEBDHUFMT_COMPILE_STRING@?1???R<lambda_a4ff98230a81385c276afb92fba0d4d2>@@QEBA@XZ@$0A@@detail@v9@fmt@@YAXUFMT_COMPILE_STRING@?1???R<lambda_a4ff98230a81385c276afb92fba0d4d2>@@QEBA@XZ@@Z
	??$check_int_type_spec@AEAUerror_handler@detail@v9@fmt@@@detail@v9@fmt@@YAXW4presentation_type@12@AEAUerror_handler@012@@Z
	??$check_pointer_type_spec@Uerror_handler@detail@v9@fmt@@@detail@v9@fmt@@YAXW4presentation_type@12@$$QEAUerror_handler@012@@Z
	??$check_string_type_spec@Uerror_handler@detail@v9@fmt@@@detail@v9@fmt@@YAXW4presentation_type@12@$$QEAUerror_handler@012@@Z
	??$code_point_length@D@detail@v9@fmt@@YAHPEBD@Z
	??$compile_string_to_view@D$04@detail_exported@v9@fmt@@YA?AV?$basic_string_view@D@12@AEAY04$$CBD@Z
	??$compile_string_to_view@D$05@detail_exported@v9@fmt@@YA?AV?$basic_string_view@D@12@AEAY05$$CBD@Z
	??$compile_string_to_view@D$0M@@detail_exported@v9@fmt@@YA?AV?$basic_string_view@D@12@AEAY0M@$$CBD@Z
	??$conditional_static_cast@HK$0A@@details@spdlog@@YAHK@Z
	??$const_check@U?$is_same@MM@std@@@detail@v9@fmt@@YA?AU?$is_same@MM@std@@U34@@Z
	??$const_check@U?$is_same@NM@std@@@detail@v9@fmt@@YA?AU?$is_same@NM@std@@U34@@Z
	??$const_check@U?$is_same@OM@std@@@detail@v9@fmt@@YA?AU?$is_same@OM@std@@U34@@Z
	??$const_check@_N@detail@v9@fmt@@YA_N_N@Z
	??$construct@PEAVLayer@Engine@@AEAPEAV12@@?$_Default_allocator_traits@V?$allocator@PEAVLayer@Engine@@@std@@@std@@SAXAEAV?$allocator@PEAVLayer@Engine@@@1@QEAPEAVLayer@Engine@@AEAPEAV34@@Z
	??$construct@PEAVLayer@Engine@@PEAV12@@?$_Default_allocator_traits@V?$allocator@PEAVLayer@Engine@@@std@@@std@@SAXAEAV?$allocator@PEAVLayer@Engine@@@1@QEAPEAVLayer@Engine@@$$QEAPEAV34@@Z
	??$construct@U?$pair@$$CBDV?$unique_ptr@Vcustom_flag_formatter@spdlog@@U?$default_delete@Vcustom_flag_formatter@spdlog@@@std@@@std@@@std@@AEBUpiecewise_construct_t@2@V?$tuple@AEBD@2@V?$tuple@$$V@2@@?$_Default_allocator_traits@V?$allocator@U?$_List_node@U?$pair@$$CBDV?$unique_ptr@Vcustom_flag_formatter@spdlog@@U?$default_delete@Vcustom_flag_formatter@spdlog@@@std@@@std@@@std@@PEAX@std@@@std@@@std@@SAXAEAV?$allocator@U?$_List_node@U?$pair@$$CBDV?$unique_ptr@Vcustom_flag_formatter@spdlog@@U?$default_delete@Vcustom_flag_formatter@spdlog@@@std@@@std@@@std@@PEAX@std@@@1@QEAU?$pair@$$CBDV?$unique_ptr@Vcustom_flag_formatter@spdlog@@U?$default_delete@Vcustom_flag_formatter@spdlog@@@std@@@std@@@1@AEBUpiecewise_construct_t@1@$$QEAV?$tuple@AEBD@1@$$QEAV?$tuple@$$V@1@@Z
	??$construct@U?$pair@$$CBV?$basic_string@DU?$char_traits@D@std@@V?$allocator@D@2@@std@@V?$shared_ptr@Vlogger@spdlog@@@2@@std@@AEBUpiecewise_construct_t@2@V?$tuple@$$QEAV?$basic_string@DU?$char_traits@D@std@@V?$allocator@D@2@@std@@@2@V?$tuple@$$V@2@@?$_Default_allocator_traits@V?$allocator@U?$_List_node@U?$pair@$$CBV?$basic_string@DU?$char_traits@D@std@@V?$allocator@D@2@@std@@V?$shared_ptr@Vlogger@spdlog@@@2@@std@@PEAX@std@@@std@@@std@@SAXAEAV?$allocator@U?$_List_node@U?$pair@$$CBV?$basic_string@DU?$char_traits@D@std@@V?$allocator@D@2@@std@@V?$shared_ptr@Vlogger@spdlog@@@2@@std@@PEAX@std@@@1@QEAU?$pair@$$CBV?$basic_string@DU?$char_traits@D@std@@V?$allocator@D@2@@std@@V?$shared_ptr@Vlogger@spdlog@@@2@@1@AEBUpiecewise_construct_t@1@$$QEAV?$tuple@$$QEAV?$basic_string@DU?$char_traits@D@std@@V?$allocator@D@2@@std@@@1@$$QEAV?$tuple@$$V@1@@Z
	??$construct@U?$pair@$$CBV?$basic_string@DU?$char_traits@D@std@@V?$allocator@D@2@@std@@V?$shared_ptr@Vlogger@spdlog@@@2@@std@@AEBUpiecewise_construct_t@2@V?$tuple@AEBV?$basic_string@DU?$char_traits@D@std@@V?$allocator@D@2@@std@@@2@V?$tuple@$$V@2@@?$_Default_allocator_traits@V?$allocator@U?$_List_node@U?$pair@$$CBV?$basic_string@DU?$char_traits@D@std@@V?$allocator@D@2@@std@@V?$shared_ptr@Vlogger@spdlog@@@2@@std@@PEAX@std@@@std@@@std@@SAXAEAV?$allocator@U?$_List_node@U?$pair@$$CBV?$basic_string@DU?$char_traits@D@std@@V?$allocator@D@2@@std@@V?$shared_ptr@Vlogger@spdlog@@@2@@std@@PEAX@std@@@1@QEAU?$pair@$$CBV?$basic_string@DU?$char_traits@D@std@@V?$allocator@D@2@@std@@V?$shared_ptr@Vlogger@spdlog@@@2@@1@AEBUpiecewise_construct_t@1@$$QEAV?$tuple@AEBV?$basic_string@DU?$char_traits@D@std@@V?$allocator@D@2@@std@@@1@$$QEAV?$tuple@$$V@1@@Z
	??$construct@V?$shared_ptr@Vsink@sinks@spdlog@@@std@@AEAV12@@?$_Default_allocator_traits@V?$allocator@V?$shared_ptr@Vsink@sinks@spdlog@@@std@@@std@@@std@@SAXAEAV?$allocator@V?$shared_ptr@Vsink@sinks@spdlog@@@std@@@1@QEAV?$shared_ptr@Vsink@sinks@spdlog@@@1@AEAV31@@Z
	??$construct@V?$shared_ptr@Vsink@sinks@spdlog@@@std@@AEBV12@@?$_Default_allocator_traits@V?$allocator@V?$shared_ptr@Vsink@sinks@spdlog@@@std@@@std@@@std@@SAXAEAV?$allocator@V?$shared_ptr@Vsink@sinks@spdlog@@@std@@@1@QEAV?$shared_ptr@Vsink@sinks@spdlog@@@1@AEBV31@@Z
	??$construct@V?$unique_ptr@Vflag_formatter@details@spdlog@@U?$default_delete@Vflag_formatter@details@spdlog@@@std@@@std@@V12@@?$_Default_allocator_traits@V?$allocator@V?$unique_ptr@Vflag_formatter@details@spdlog@@U?$default_delete@Vflag_formatter@details@spdlog@@@std@@@std@@@std@@@std@@SAXAEAV?$allocator@V?$unique_ptr@Vflag_formatter@details@spdlog@@U?$default_delete@Vflag_formatter@details@spdlog@@@std@@@std@@@1@QEAV?$unique_ptr@Vflag_formatter@details@spdlog@@U?$default_delete@Vflag_formatter@details@spdlog@@@std@@@1@$$QEAV31@@Z
	??$construct@Vlog_msg_buffer@details@spdlog@@$$V@?$_Default_allocator_traits@V?$allocator@Vlog_msg_buffer@details@spdlog@@@std@@@std@@SAXAEAV?$allocator@Vlog_msg_buffer@details@spdlog@@@1@QEAVlog_msg_buffer@details@spdlog@@@Z
	??$construct@Vlog_msg_buffer@details@spdlog@@AEAV123@@?$_Default_allocator_traits@V?$allocator@Vlog_msg_buffer@details@spdlog@@@std@@@std@@SAXAEAV?$allocator@Vlog_msg_buffer@details@spdlog@@@1@QEAVlog_msg_buffer@details@spdlog@@AEAV345@@Z
	??$convert_float@M@detail@v9@fmt@@YANM@Z
	??$convert_float@N@detail@v9@fmt@@YANN@Z
	??$convert_float@O@detail@v9@fmt@@YANO@Z
	??$convert_for_visit@W4int128_opt@detail@v9@fmt@@@detail@v9@fmt@@YA?AUmonostate@12@W4int128_opt@012@@Z
	??$convert_for_visit@W4uint128_opt@detail@v9@fmt@@@detail@v9@fmt@@YA?AUmonostate@12@W4uint128_opt@012@@Z
	??$copy2@D@detail@v9@fmt@@YAXPEADPEBD@Z
	??$copy@PEBIV?$checked_array_iterator@PEAI@stdext@@@std@@YA?AV?$checked_array_iterator@PEAI@stdext@@PEBI0V12@@Z
	??$copy_str@D$$CBDD$0A@@detail@v9@fmt@@YAPEADPEBD0PEAD@Z
	??$copy_str@DPEAD@detail@v9@fmt@@YA?AVappender@12@PEAD0V312@@Z
	??$copy_str@DPEADV?$checked_array_iterator@PEAD@stdext@@@detail@v9@fmt@@YA?AV?$checked_array_iterator@PEAD@stdext@@PEAD0V34@@Z
	??$copy_str@DPEADVcounting_iterator@detail@v9@fmt@@@detail@v9@fmt@@YA?AVcounting_iterator@012@PEAD0V3012@@Z
	??$copy_str@DPEBD@detail@v9@fmt@@YA?AVappender@12@PEBD0V312@@Z
	??$copy_str@DPEBDPEAD@detail@v9@fmt@@YAPEADPEBD0PEAD@Z
	??$copy_str@DPEBDV?$back_insert_iterator@V?$buffer@D@detail@v9@fmt@@@std@@@detail@v9@fmt@@YA?AV?$back_insert_iterator@V?$buffer@D@detail@v9@fmt@@@std@@PEBD0V34@@Z
	??$copy_str@DPEBDVcounting_iterator@detail@v9@fmt@@@detail@v9@fmt@@YA?AVcounting_iterator@012@PEBD0V3012@@Z
	??$copy_str@IPEAIV?$checked_array_iterator@PEAI@stdext@@@detail@v9@fmt@@YA?AV?$checked_array_iterator@PEAI@stdext@@PEAI0V34@@Z
	??$copy_str_noinline@DPEADVappender@v9@fmt@@@detail@v9@fmt@@YA?AVappender@12@PEAD0V312@@Z
	??$copy_str_noinline@DPEBDV?$back_insert_iterator@V?$buffer@D@detail@v9@fmt@@@std@@@detail@v9@fmt@@YA?AV?$back_insert_iterator@V?$buffer@D@detail@v9@fmt@@@std@@PEBD0V34@@Z
	??$copy_str_noinline@DPEBDVappender@v9@fmt@@@detail@v9@fmt@@YA?AVappender@12@PEBD0V312@@Z
	??$count_digits@$00I@detail@v9@fmt@@YAHI@Z
	??$count_digits@$00_K@detail@v9@fmt@@YAH_K@Z
	??$count_digits@$02I@detail@v9@fmt@@YAHI@Z
	??$count_digits@$02_K@detail@v9@fmt@@YAH_K@Z
	??$count_digits@$03I@detail@v9@fmt@@YAHI@Z
	??$count_digits@$03_K@detail@v9@fmt@@YAH_K@Z
	??$count_digits@H@fmt_helper@details@spdlog@@YAIH@Z
	??$count_digits@H@null_scoped_padder@details@spdlog@@SAIH@Z
	??$count_digits@H@scoped_padder@details@spdlog@@SAIH@Z
	??$count_digits@I@fmt_helper@details@spdlog@@YAII@Z
	??$count_digits@I@null_scoped_padder@details@spdlog@@SAII@Z
	??$count_digits@I@scoped_padder@details@spdlog@@SAII@Z
	??$count_digits@_K@fmt_helper@details@spdlog@@YAI_K@Z
	??$count_digits@_K@null_scoped_padder@details@spdlog@@SAI_K@Z
	??$count_digits@_K@scoped_padder@details@spdlog@@SAI_K@Z
	??$count_digits_fallback@I@detail@v9@fmt@@YAHI@Z
	??$count_digits_fallback@_K@detail@v9@fmt@@YAH_K@Z
	??$create@V?$wincolor_stdout_sink@Uconsole_mutex@details@spdlog@@@sinks@spdlog@@AEAW4color_mode@3@@synchronous_factory@spdlog@@SA?AV?$shared_ptr@Vlogger@spdlog@@@std@@V?$basic_string@DU?$char_traits@D@std@@V?$allocator@D@2@@3@AEAW4color_mode@1@@Z
	??$decimal_point@D@detail@v9@fmt@@YADVlocale_ref@012@@Z
	??$decimal_point_impl@D@detail@v9@fmt@@YADVlocale_ref@012@@Z
	??$destroy@PEAVLayer@Engine@@@?$_Default_allocator_traits@V?$allocator@PEAVLayer@Engine@@@std@@@std@@SAXAEAV?$allocator@PEAVLayer@Engine@@@1@QEAPEAVLayer@Engine@@@Z
	??$destroy@U?$pair@$$CBDV?$unique_ptr@Vcustom_flag_formatter@spdlog@@U?$default_delete@Vcustom_flag_formatter@spdlog@@@std@@@std@@@std@@@?$_Default_allocator_traits@V?$allocator@U?$_List_node@U?$pair@$$CBDV?$unique_ptr@Vcustom_flag_formatter@spdlog@@U?$default_delete@Vcustom_flag_formatter@spdlog@@@std@@@std@@@std@@PEAX@std@@@std@@@std@@SAXAEAV?$allocator@U?$_List_node@U?$pair@$$CBDV?$unique_ptr@Vcustom_flag_formatter@spdlog@@U?$default_delete@Vcustom_flag_formatter@spdlog@@@std@@@std@@@std@@PEAX@std@@@1@QEAU?$pair@$$CBDV?$unique_ptr@Vcustom_flag_formatter@spdlog@@U?$default_delete@Vcustom_flag_formatter@spdlog@@@std@@@std@@@1@@Z
	??$destroy@U?$pair@$$CBV?$basic_string@DU?$char_traits@D@std@@V?$allocator@D@2@@std@@V12@@std@@@?$_Default_allocator_traits@V?$allocator@U?$_Tree_node@U?$pair@$$CBV?$basic_string@DU?$char_traits@D@std@@V?$allocator@D@2@@std@@V12@@std@@PEAX@std@@@std@@@std@@SAXAEAV?$allocator@U?$_Tree_node@U?$pair@$$CBV?$basic_string@DU?$char_traits@D@std@@V?$allocator@D@2@@std@@V12@@std@@PEAX@std@@@1@QEAU?$pair@$$CBV?$basic_string@DU?$char_traits@D@std@@V?$allocator@D@2@@std@@V12@@1@@Z
	??$destroy@U?$pair@$$CBV?$basic_string@DU?$char_traits@D@std@@V?$allocator@D@2@@std@@V?$shared_ptr@Vlogger@spdlog@@@2@@std@@@?$_Default_allocator_traits@V?$allocator@U?$_List_node@U?$pair@$$CBV?$basic_string@DU?$char_traits@D@std@@V?$allocator@D@2@@std@@V?$shared_ptr@Vlogger@spdlog@@@2@@std@@PEAX@std@@@std@@@std@@SAXAEAV?$allocator@U?$_List_node@U?$pair@$$CBV?$basic_string@DU?$char_traits@D@std@@V?$allocator@D@2@@std@@V?$shared_ptr@Vlogger@spdlog@@@2@@std@@PEAX@std@@@1@QEAU?$pair@$$CBV?$basic_string@DU?$char_traits@D@std@@V?$allocator@D@2@@std@@V?$shared_ptr@Vlogger@spdlog@@@2@@1@@Z
	??$destroy@U?$pair@$$CBV?$basic_string@DU?$char_traits@D@std@@V?$allocator@D@2@@std@@W4level_enum@level@spdlog@@@std@@@?$_Default_allocator_traits@V?$allocator@U?$_List_node@U?$pair@$$CBV?$basic_string@DU?$char_traits@D@std@@V?$allocator@D@2@@std@@W4level_enum@level@spdlog@@@std@@PEAX@std@@@std@@@std@@SAXAEAV?$allocator@U?$_List_node@U?$pair@$$CBV?$basic_string@DU?$char_traits@D@std@@V?$allocator@D@2@@std@@W4level_enum@level@spdlog@@@std@@PEAX@std@@@1@QEAU?$pair@$$CBV?$basic_string@DU?$char_traits@D@std@@V?$allocator@D@2@@std@@W4level_enum@level@spdlog@@@1@@Z
	??$destroy@V?$shared_ptr@Vsink@sinks@spdlog@@@std@@@?$_Default_allocator_traits@V?$allocator@V?$shared_ptr@Vsink@sinks@spdlog@@@std@@@std@@@std@@SAXAEAV?$allocator@V?$shared_ptr@Vsink@sinks@spdlog@@@std@@@1@QEAV?$shared_ptr@Vsink@sinks@spdlog@@@1@@Z
	??$destroy@V?$unique_ptr@Vflag_formatter@details@spdlog@@U?$default_delete@Vflag_formatter@details@spdlog@@@std@@@std@@@?$_Default_allocator_traits@V?$allocator@V?$unique_ptr@Vflag_formatter@details@spdlog@@U?$default_delete@Vflag_formatter@details@spdlog@@@std@@@std@@@std@@@std@@SAXAEAV?$allocator@V?$unique_ptr@Vflag_formatter@details@spdlog@@U?$default_delete@Vflag_formatter@details@spdlog@@@std@@@std@@@1@QEAV?$unique_ptr@Vflag_formatter@details@spdlog@@U?$default_delete@Vflag_formatter@details@spdlog@@@std@@@1@@Z
	??$destroy@Vlog_msg_buffer@details@spdlog@@@?$_Default_allocator_traits@V?$allocator@Vlog_msg_buffer@details@spdlog@@@std@@@std@@SAXAEAV?$allocator@Vlog_msg_buffer@details@spdlog@@@1@QEAVlog_msg_buffer@details@spdlog@@@Z
	??$distance@PEBV?$shared_ptr@Vsink@sinks@spdlog@@@std@@@std@@YA_JPEBV?$shared_ptr@Vsink@sinks@spdlog@@@0@0@Z
	??$do_parse_arg_id@DAEAUid_adapter@?1???$parse_replacement_field@DAEAUformat_handler@?1???$vformat_to@D@detail@v9@fmt@@YAXAEAV?$buffer@D@234@V?$basic_string_view@D@34@V?$basic_format_args@V?$basic_format_context@Vappender@v9@fmt@@D@v9@fmt@@@34@Vlocale_ref@234@@Z@@detail@v9@fmt@@YAPEBDPEBD0AEAUformat_handler@?1???$vformat_to@D@234@YAXAEAV?$buffer@D@234@V?$basic_string_view@D@34@V?$basic_format_args@V?$basic_format_context@Vappender@v9@fmt@@D@v9@fmt@@@34@Vlocale_ref@234@@Z@@Z@@detail@v9@fmt@@YAPEBDPEBD0AEAUid_adapter@?1???$parse_replacement_field@DAEAUformat_handler@?1???$vformat_to@D@detail@v9@fmt@@YAXAEAV?$buffer@D@234@V?$basic_string_view@D@34@V?$basic_format_args@V?$basic_format_context@Vappender@v9@fmt@@D@v9@fmt@@@34@Vlocale_ref@234@@Z@@012@YAPEBD00AEAUformat_handler@?1???$vformat_to@D@012@YAXAEAV?$buffer@D@012@V?$basic_string_view@D@12@V?$basic_format_args@V?$basic_format_context@Vappender@v9@fmt@@D@v9@fmt@@@12@Vlocale_ref@012@@Z@@Z@@Z
	??$do_parse_arg_id@DAEAUprecision_adapter@?1???$parse_precision@DAEAV?$specs_checker@V?$specs_handler@D@detail@v9@fmt@@@detail@v9@fmt@@@detail@v9@fmt@@YAPEBDPEBD0AEAV?$specs_checker@V?$specs_handler@D@detail@v9@fmt@@@234@@Z@@detail@v9@fmt@@YAPEBDPEBD0AEAUprecision_adapter@?1???$parse_precision@DAEAV?$specs_checker@V?$specs_handler@D@detail@v9@fmt@@@detail@v9@fmt@@@012@YAPEBD00AEAV?$specs_checker@V?$specs_handler@D@detail@v9@fmt@@@012@@Z@@Z
	??$do_parse_arg_id@DAEAUwidth_adapter@?1???$parse_width@DAEAV?$specs_checker@V?$specs_handler@D@detail@v9@fmt@@@detail@v9@fmt@@@detail@v9@fmt@@YAPEBDPEBD0AEAV?$specs_checker@V?$specs_handler@D@detail@v9@fmt@@@234@@Z@@detail@v9@fmt@@YAPEBDPEBD0AEAUwidth_adapter@?1???$parse_width@DAEAV?$specs_checker@V?$specs_handler@D@detail@v9@fmt@@@detail@v9@fmt@@@012@YAPEBD00AEAV?$specs_checker@V?$specs_handler@D@detail@v9@fmt@@@012@@Z@@Z
	??$do_throw@Vformat_error@v9@fmt@@@detail@v9@fmt@@YAXAEBVformat_error@12@@Z
	??$do_write_float@Vappender@v9@fmt@@U?$decimal_fp@M@dragonbox@detail@23@DV?$digit_grouping@D@623@@detail@v9@fmt@@YA?AVappender@12@V312@AEBU?$decimal_fp@M@dragonbox@012@AEBU?$basic_format_specs@D@12@Ufloat_specs@012@Vlocale_ref@012@@Z
	??$do_write_float@Vappender@v9@fmt@@U?$decimal_fp@M@dragonbox@detail@23@DV?$fallback_digit_grouping@D@623@@detail@v9@fmt@@YA?AVappender@12@V312@AEBU?$decimal_fp@M@dragonbox@012@AEBU?$basic_format_specs@D@12@Ufloat_specs@012@Vlocale_ref@012@@Z
	??$do_write_float@Vappender@v9@fmt@@U?$decimal_fp@N@dragonbox@detail@23@DV?$digit_grouping@D@623@@detail@v9@fmt@@YA?AVappender@12@V312@AEBU?$decimal_fp@N@dragonbox@012@AEBU?$basic_format_specs@D@12@Ufloat_specs@012@Vlocale_ref@012@@Z
	??$do_write_float@Vappender@v9@fmt@@U?$decimal_fp@N@dragonbox@detail@23@DV?$fallback_digit_grouping@D@623@@detail@v9@fmt@@YA?AVappender@12@V312@AEBU?$decimal_fp@N@dragonbox@012@AEBU?$basic_format_specs@D@12@Ufloat_specs@012@Vlocale_ref@012@@Z
	??$do_write_float@Vappender@v9@fmt@@Ubig_decimal_fp@detail@23@DV?$digit_grouping@D@523@@detail@v9@fmt@@YA?AVappender@12@V312@AEBUbig_decimal_fp@012@AEBU?$basic_format_specs@D@12@Ufloat_specs@012@Vlocale_ref@012@@Z
	??$do_write_float@Vappender@v9@fmt@@Ubig_decimal_fp@detail@23@DV?$fallback_digit_grouping@D@523@@detail@v9@fmt@@YA?AVappender@12@V312@AEBUbig_decimal_fp@012@AEBU?$basic_format_specs@D@12@Ufloat_specs@012@Vlocale_ref@012@@Z
	??$duration_cast@V?$duration@_JU?$ratio@$00$00@std@@@chrono@std@@_JU?$ratio@$00$0JIJGIA@@3@$0A@@chrono@std@@YA?AV?$duration@_JU?$ratio@$00$00@std@@@01@AEBV?$duration@_JU?$ratio@$00$0JIJGIA@@std@@@01@@Z
	??$duration_cast@V?$duration@_JU?$ratio@$00$0DLJKMKAA@@std@@@chrono@std@@_JU?$ratio@$00$00@3@$0A@@chrono@std@@YA?AV?$duration@_JU?$ratio@$00$0DLJKMKAA@@std@@@01@AEBV?$duration@_JU?$ratio@$00$00@std@@@01@@Z
	??$duration_cast@V?$duration@_JU?$ratio@$00$0DLJKMKAA@@std@@@chrono@std@@_JU?$ratio@$00$0JIJGIA@@3@$0A@@chrono@std@@YA?AV?$duration@_JU?$ratio@$00$0DLJKMKAA@@std@@@01@AEBV?$duration@_JU?$ratio@$00$0JIJGIA@@std@@@01@@Z
	??$duration_cast@V?$duration@_JU?$ratio@$00$0DOI@@std@@@chrono@std@@_JU?$ratio@$00$00@3@$0A@@chrono@std@@YA?AV?$duration@_JU?$ratio@$00$0DOI@@std@@@01@AEBV?$duration@_JU?$ratio@$00$00@std@@@01@@Z
	??$duration_cast@V?$duration@_JU?$ratio@$00$0DOI@@std@@@chrono@std@@_JU?$ratio@$00$0JIJGIA@@3@$0A@@chrono@std@@YA?AV?$duration@_JU?$ratio@$00$0DOI@@std@@@01@AEBV?$duration@_JU?$ratio@$00$0JIJGIA@@std@@@01@@Z
	??$duration_cast@V?$duration@_JU?$ratio@$00$0JIJGIA@@std@@@chrono@std@@_JU?$ratio@$00$00@3@$0A@@chrono@std@@YA?AV?$duration@_JU?$ratio@$00$0JIJGIA@@std@@@01@AEBV?$duration@_JU?$ratio@$00$00@std@@@01@@Z
	??$duration_cast@V?$duration@_JU?$ratio@$00$0PECEA@@std@@@chrono@std@@_JU?$ratio@$00$00@3@$0A@@chrono@std@@YA?AV?$duration@_JU?$ratio@$00$0PECEA@@std@@@01@AEBV?$duration@_JU?$ratio@$00$00@std@@@01@@Z
	??$duration_cast@V?$duration@_JU?$ratio@$00$0PECEA@@std@@@chrono@std@@_JU?$ratio@$00$0JIJGIA@@3@$0A@@chrono@std@@YA?AV?$duration@_JU?$ratio@$00$0PECEA@@std@@@01@AEBV?$duration@_JU?$ratio@$00$0JIJGIA@@std@@@01@@Z
	??$emplace@AEAPEAVLayer@Engine@@@?$vector@PEAVLayer@Engine@@V?$allocator@PEAVLayer@Engine@@@std@@@std@@QEAA?AV?$_Vector_iterator@V?$_Vector_val@U?$_Simple_types@PEAVLayer@Engine@@@std@@@std@@@1@V?$_Vector_const_iterator@V?$_Vector_val@U?$_Simple_types@PEAVLayer@Engine@@@std@@@std@@@1@AEAPEAVLayer@Engine@@@Z
	??$emplace_back@AEAPEAVLayer@Engine@@@?$vector@PEAVLayer@Engine@@V?$allocator@PEAVLayer@Engine@@@std@@@std@@QEAA?A_TAEAPEAVLayer@Engine@@@Z
	??$end@$$CBD$02@std@@YAPEBDAEAY02$$CBD@Z
	??$error@AEAHAEAPEBD@logger@spdlog@@QEAAXV?$basic_format_string@DAEAHAEAPEBD@v9@fmt@@AEAHAEAPEBD@Z
	??$exchange@PEAU?$_List_node@U?$pair@$$CBDV?$unique_ptr@Vcustom_flag_formatter@spdlog@@U?$default_delete@Vcustom_flag_formatter@spdlog@@@std@@@std@@@std@@PEAX@std@@$$T@std@@YAPEAU?$_List_node@U?$pair@$$CBDV?$unique_ptr@Vcustom_flag_formatter@spdlog@@U?$default_delete@Vcustom_flag_formatter@spdlog@@@std@@@std@@@std@@PEAX@0@AEAPEAU10@$$QEA$$T@Z
	??$exchange@PEAU?$_List_node@U?$pair@$$CBV?$basic_string@DU?$char_traits@D@std@@V?$allocator@D@2@@std@@V?$shared_ptr@Vlogger@spdlog@@@2@@std@@PEAX@std@@$$T@std@@YAPEAU?$_List_node@U?$pair@$$CBV?$basic_string@DU?$char_traits@D@std@@V?$allocator@D@2@@std@@V?$shared_ptr@Vlogger@spdlog@@@2@@std@@PEAX@0@AEAPEAU10@$$QEA$$T@Z
	??$exchange@PEAU?$_Tree_node@U?$pair@$$CBV?$basic_string@DU?$char_traits@D@std@@V?$allocator@D@2@@std@@V12@@std@@PEAX@std@@AEAPEAU12@@std@@YAPEAU?$_Tree_node@U?$pair@$$CBV?$basic_string@DU?$char_traits@D@std@@V?$allocator@D@2@@std@@V12@@std@@PEAX@0@AEAPEAU10@0@Z
	??$exchange@PEAU_Container_proxy@std@@$$T@std@@YAPEAU_Container_proxy@0@AEAPEAU10@$$QEA$$T@Z
	??$exchange@PEAU_Iterator_base12@std@@$$T@std@@YAPEAU_Iterator_base12@0@AEAPEAU10@$$QEA$$T@Z
	??$exchange@PEAV?$A_formatter@Unull_scoped_padder@details@spdlog@@@details@spdlog@@$$T@std@@YAPEAV?$A_formatter@Unull_scoped_padder@details@spdlog@@@details@spdlog@@AEAPEAV123@$$QEA$$T@Z
	??$exchange@PEAV?$A_formatter@Vscoped_padder@details@spdlog@@@details@spdlog@@$$T@std@@YAPEAV?$A_formatter@Vscoped_padder@details@spdlog@@@details@spdlog@@AEAPEAV123@$$QEA$$T@Z
	??$exchange@PEAV?$B_formatter@Unull_scoped_padder@details@spdlog@@@details@spdlog@@$$T@std@@YAPEAV?$B_formatter@Unull_scoped_padder@details@spdlog@@@details@spdlog@@AEAPEAV123@$$QEA$$T@Z
	??$exchange@PEAV?$B_formatter@Vscoped_padder@details@spdlog@@@details@spdlog@@$$T@std@@YAPEAV?$B_formatter@Vscoped_padder@details@spdlog@@@details@spdlog@@AEAPEAV123@$$QEA$$T@Z
	??$exchange@PEAV?$C_formatter@Unull_scoped_padder@details@spdlog@@@details@spdlog@@$$T@std@@YAPEAV?$C_formatter@Unull_scoped_padder@details@spdlog@@@details@spdlog@@AEAPEAV123@$$QEA$$T@Z
	??$exchange@PEAV?$C_formatter@Vscoped_padder@details@spdlog@@@details@spdlog@@$$T@std@@YAPEAV?$C_formatter@Vscoped_padder@details@spdlog@@@details@spdlog@@AEAPEAV123@$$QEA$$T@Z
	??$exchange@PEAV?$D_formatter@Unull_scoped_padder@details@spdlog@@@details@spdlog@@$$T@std@@YAPEAV?$D_formatter@Unull_scoped_padder@details@spdlog@@@details@spdlog@@AEAPEAV123@$$QEA$$T@Z
	??$exchange@PEAV?$D_formatter@Vscoped_padder@details@spdlog@@@details@spdlog@@$$T@std@@YAPEAV?$D_formatter@Vscoped_padder@details@spdlog@@@details@spdlog@@AEAPEAV123@$$QEA$$T@Z
	??$exchange@PEAV?$E_formatter@Unull_scoped_padder@details@spdlog@@@details@spdlog@@$$T@std@@YAPEAV?$E_formatter@Unull_scoped_padder@details@spdlog@@@details@spdlog@@AEAPEAV123@$$QEA$$T@Z
	??$exchange@PEAV?$E_formatter@Vscoped_padder@details@spdlog@@@details@spdlog@@$$T@std@@YAPEAV?$E_formatter@Vscoped_padder@details@spdlog@@@details@spdlog@@AEAPEAV123@$$QEA$$T@Z
	??$exchange@PEAV?$F_formatter@Unull_scoped_padder@details@spdlog@@@details@spdlog@@$$T@std@@YAPEAV?$F_formatter@Unull_scoped_padder@details@spdlog@@@details@spdlog@@AEAPEAV123@$$QEA$$T@Z
	??$exchange@PEAV?$F_formatter@Vscoped_padder@details@spdlog@@@details@spdlog@@$$T@std@@YAPEAV?$F_formatter@Vscoped_padder@details@spdlog@@@details@spdlog@@AEAPEAV123@$$QEA$$T@Z
	??$exchange@PEAV?$H_formatter@Unull_scoped_padder@details@spdlog@@@details@spdlog@@$$T@std@@YAPEAV?$H_formatter@Unull_scoped_padder@details@spdlog@@@details@spdlog@@AEAPEAV123@$$QEA$$T@Z
	??$exchange@PEAV?$H_formatter@Vscoped_padder@details@spdlog@@@details@spdlog@@$$T@std@@YAPEAV?$H_formatter@Vscoped_padder@details@spdlog@@@details@spdlog@@AEAPEAV123@$$QEA$$T@Z
	??$exchange@PEAV?$I_formatter@Unull_scoped_padder@details@spdlog@@@details@spdlog@@$$T@std@@YAPEAV?$I_formatter@Unull_scoped_padder@details@spdlog@@@details@spdlog@@AEAPEAV123@$$QEA$$T@Z
	??$exchange@PEAV?$I_formatter@Vscoped_padder@details@spdlog@@@details@spdlog@@$$T@std@@YAPEAV?$I_formatter@Vscoped_padder@details@spdlog@@@details@spdlog@@AEAPEAV123@$$QEA$$T@Z
	??$exchange@PEAV?$M_formatter@Unull_scoped_padder@details@spdlog@@@details@spdlog@@$$T@std@@YAPEAV?$M_formatter@Unull_scoped_padder@details@spdlog@@@details@spdlog@@AEAPEAV123@$$QEA$$T@Z
	??$exchange@PEAV?$M_formatter@Vscoped_padder@details@spdlog@@@details@spdlog@@$$T@std@@YAPEAV?$M_formatter@Vscoped_padder@details@spdlog@@@details@spdlog@@AEAPEAV123@$$QEA$$T@Z
	??$exchange@PEAV?$R_formatter@Unull_scoped_padder@details@spdlog@@@details@spdlog@@$$T@std@@YAPEAV?$R_formatter@Unull_scoped_padder@details@spdlog@@@details@spdlog@@AEAPEAV123@$$QEA$$T@Z
	??$exchange@PEAV?$R_formatter@Vscoped_padder@details@spdlog@@@details@spdlog@@$$T@std@@YAPEAV?$R_formatter@Vscoped_padder@details@spdlog@@@details@spdlog@@AEAPEAV123@$$QEA$$T@Z
	??$exchange@PEAV?$S_formatter@Unull_scoped_padder@details@spdlog@@@details@spdlog@@$$T@std@@YAPEAV?$S_formatter@Unull_scoped_padder@details@spdlog@@@details@spdlog@@AEAPEAV123@$$QEA$$T@Z
	??$exchange@PEAV?$S_formatter@Vscoped_padder@details@spdlog@@@details@spdlog@@$$T@std@@YAPEAV?$S_formatter@Vscoped_padder@details@spdlog@@@details@spdlog@@AEAPEAV123@$$QEA$$T@Z
	??$exchange@PEAV?$T_formatter@Unull_scoped_padder@details@spdlog@@@details@spdlog@@$$T@std@@YAPEAV?$T_formatter@Unull_scoped_padder@details@spdlog@@@details@spdlog@@AEAPEAV123@$$QEA$$T@Z
	??$exchange@PEAV?$T_formatter@Vscoped_padder@details@spdlog@@@details@spdlog@@$$T@std@@YAPEAV?$T_formatter@Vscoped_padder@details@spdlog@@@details@spdlog@@AEAPEAV123@$$QEA$$T@Z
	??$exchange@PEAV?$Y_formatter@Unull_scoped_padder@details@spdlog@@@details@spdlog@@$$T@std@@YAPEAV?$Y_formatter@Unull_scoped_padder@details@spdlog@@@details@spdlog@@AEAPEAV123@$$QEA$$T@Z
	??$exchange@PEAV?$Y_formatter@Vscoped_padder@details@spdlog@@@details@spdlog@@$$T@std@@YAPEAV?$Y_formatter@Vscoped_padder@details@spdlog@@@details@spdlog@@AEAPEAV123@$$QEA$$T@Z
	??$exchange@PEAV?$a_formatter@Unull_scoped_padder@details@spdlog@@@details@spdlog@@$$T@std@@YAPEAV?$a_formatter@Unull_scoped_padder@details@spdlog@@@details@spdlog@@AEAPEAV123@$$QEA$$T@Z
	??$exchange@PEAV?$a_formatter@Vscoped_padder@details@spdlog@@@details@spdlog@@$$T@std@@YAPEAV?$a_formatter@Vscoped_padder@details@spdlog@@@details@spdlog@@AEAPEAV123@$$QEA$$T@Z
	??$exchange@PEAV?$b_formatter@Unull_scoped_padder@details@spdlog@@@details@spdlog@@$$T@std@@YAPEAV?$b_formatter@Unull_scoped_padder@details@spdlog@@@details@spdlog@@AEAPEAV123@$$QEA$$T@Z
	??$exchange@PEAV?$b_formatter@Vscoped_padder@details@spdlog@@@details@spdlog@@$$T@std@@YAPEAV?$b_formatter@Vscoped_padder@details@spdlog@@@details@spdlog@@AEAPEAV123@$$QEA$$T@Z
	??$exchange@PEAV?$c_formatter@Unull_scoped_padder@details@spdlog@@@details@spdlog@@$$T@std@@YAPEAV?$c_formatter@Unull_scoped_padder@details@spdlog@@@details@spdlog@@AEAPEAV123@$$QEA$$T@Z
	??$exchange@PEAV?$c_formatter@Vscoped_padder@details@spdlog@@@details@spdlog@@$$T@std@@YAPEAV?$c_formatter@Vscoped_padder@details@spdlog@@@details@spdlog@@AEAPEAV123@$$QEA$$T@Z
	??$exchange@PEAV?$d_formatter@Unull_scoped_padder@details@spdlog@@@details@spdlog@@$$T@std@@YAPEAV?$d_formatter@Unull_scoped_padder@details@spdlog@@@details@spdlog@@AEAPEAV123@$$QEA$$T@Z
	??$exchange@PEAV?$d_formatter@Vscoped_padder@details@spdlog@@@details@spdlog@@$$T@std@@YAPEAV?$d_formatter@Vscoped_padder@details@spdlog@@@details@spdlog@@AEAPEAV123@$$QEA$$T@Z
	??$exchange@PEAV?$e_formatter@Unull_scoped_padder@details@spdlog@@@details@spdlog@@$$T@std@@YAPEAV?$e_formatter@Unull_scoped_padder@details@spdlog@@@details@spdlog@@AEAPEAV123@$$QEA$$T@Z
	??$exchange@PEAV?$e_formatter@Vscoped_padder@details@spdlog@@@details@spdlog@@$$T@std@@YAPEAV?$e_formatter@Vscoped_padder@details@spdlog@@@details@spdlog@@AEAPEAV123@$$QEA$$T@Z
	??$exchange@PEAV?$elapsed_formatter@Unull_scoped_padder@details@spdlog@@V?$duration@_JU?$ratio@$00$00@std@@@chrono@std@@@details@spdlog@@$$T@std@@YAPEAV?$elapsed_formatter@Unull_scoped_padder@details@spdlog@@V?$duration@_JU?$ratio@$00$00@std@@@chrono@std@@@details@spdlog@@AEAPEAV123@$$QEA$$T@Z
	??$exchange@PEAV?$elapsed_formatter@Unull_scoped_padder@details@spdlog@@V?$duration@_JU?$ratio@$00$0DLJKMKAA@@std@@@chrono@std@@@details@spdlog@@$$T@std@@YAPEAV?$elapsed_formatter@Unull_scoped_padder@details@spdlog@@V?$duration@_JU?$ratio@$00$0DLJKMKAA@@std@@@chrono@std@@@details@spdlog@@AEAPEAV123@$$QEA$$T@Z
	??$exchange@PEAV?$elapsed_formatter@Unull_scoped_padder@details@spdlog@@V?$duration@_JU?$ratio@$00$0DOI@@std@@@chrono@std@@@details@spdlog@@$$T@std@@YAPEAV?$elapsed_formatter@Unull_scoped_padder@details@spdlog@@V?$duration@_JU?$ratio@$00$0DOI@@std@@@chrono@std@@@details@spdlog@@AEAPEAV123@$$QEA$$T@Z
	??$exchange@PEAV?$elapsed_formatter@Unull_scoped_padder@details@spdlog@@V?$duration@_JU?$ratio@$00$0PECEA@@std@@@chrono@std@@@details@spdlog@@$$T@std@@YAPEAV?$elapsed_formatter@Unull_scoped_padder@details@spdlog@@V?$duration@_JU?$ratio@$00$0PECEA@@std@@@chrono@std@@@details@spdlog@@AEAPEAV123@$$QEA$$T@Z
	??$exchange@PEAV?$elapsed_formatter@Vscoped_padder@details@spdlog@@V?$duration@_JU?$ratio@$00$00@std@@@chrono@std@@@details@spdlog@@$$T@std@@YAPEAV?$elapsed_formatter@Vscoped_padder@details@spdlog@@V?$duration@_JU?$ratio@$00$00@std@@@chrono@std@@@details@spdlog@@AEAPEAV123@$$QEA$$T@Z
	??$exchange@PEAV?$elapsed_formatter@Vscoped_padder@details@spdlog@@V?$duration@_JU?$ratio@$00$0DLJKMKAA@@std@@@chrono@std@@@details@spdlog@@$$T@std@@YAPEAV?$elapsed_formatter@Vscoped_padder@details@spdlog@@V?$duration@_JU?$ratio@$00$0DLJKMKAA@@std@@@chrono@std@@@details@spdlog@@AEAPEAV123@$$QEA$$T@Z
	??$exchange@PEAV?$elapsed_formatter@Vscoped_padder@details@spdlog@@V?$duration@_JU?$ratio@$00$0DOI@@std@@@chrono@std@@@details@spdlog@@$$T@std@@YAPEAV?$elapsed_formatter@Vscoped_padder@details@spdlog@@V?$duration@_JU?$ratio@$00$0DOI@@std@@@chrono@std@@@details@spdlog@@AEAPEAV123@$$QEA$$T@Z
	??$exchange@PEAV?$elapsed_formatter@Vscoped_padder@details@spdlog@@V?$duration@_JU?$ratio@$00$0PECEA@@std@@@chrono@std@@@details@spdlog@@$$T@std@@YAPEAV?$elapsed_formatter@Vscoped_padder@details@spdlog@@V?$duration@_JU?$ratio@$00$0PECEA@@std@@@chrono@std@@@details@spdlog@@AEAPEAV123@$$QEA$$T@Z
	??$exchange@PEAV?$f_formatter@Unull_scoped_padder@details@spdlog@@@details@spdlog@@$$T@std@@YAPEAV?$f_formatter@Unull_scoped_padder@details@spdlog@@@details@spdlog@@AEAPEAV123@$$QEA$$T@Z
	??$exchange@PEAV?$f_formatter@Vscoped_padder@details@spdlog@@@details@spdlog@@$$T@std@@YAPEAV?$f_formatter@Vscoped_padder@details@spdlog@@@details@spdlog@@AEAPEAV123@$$QEA$$T@Z
	??$exchange@PEAV?$level_formatter@Unull_scoped_padder@details@spdlog@@@details@spdlog@@$$T@std@@YAPEAV?$level_formatter@Unull_scoped_padder@details@spdlog@@@details@spdlog@@AEAPEAV123@$$QEA$$T@Z
	??$exchange@PEAV?$level_formatter@Vscoped_padder@details@spdlog@@@details@spdlog@@$$T@std@@YAPEAV?$level_formatter@Vscoped_padder@details@spdlog@@@details@spdlog@@AEAPEAV123@$$QEA$$T@Z
	??$exchange@PEAV?$m_formatter@Unull_scoped_padder@details@spdlog@@@details@spdlog@@$$T@std@@YAPEAV?$m_formatter@Unull_scoped_padder@details@spdlog@@@details@spdlog@@AEAPEAV123@$$QEA$$T@Z
	??$exchange@PEAV?$m_formatter@Vscoped_padder@details@spdlog@@@details@spdlog@@$$T@std@@YAPEAV?$m_formatter@Vscoped_padder@details@spdlog@@@details@spdlog@@AEAPEAV123@$$QEA$$T@Z
	??$exchange@PEAV?$mdc_formatter@Unull_scoped_padder@details@spdlog@@@details@spdlog@@$$T@std@@YAPEAV?$mdc_formatter@Unull_scoped_padder@details@spdlog@@@details@spdlog@@AEAPEAV123@$$QEA$$T@Z
	??$exchange@PEAV?$mdc_formatter@Vscoped_padder@details@spdlog@@@details@spdlog@@$$T@std@@YAPEAV?$mdc_formatter@Vscoped_padder@details@spdlog@@@details@spdlog@@AEAPEAV123@$$QEA$$T@Z
	??$exchange@PEAV?$name_formatter@Unull_scoped_padder@details@spdlog@@@details@spdlog@@$$T@std@@YAPEAV?$name_formatter@Unull_scoped_padder@details@spdlog@@@details@spdlog@@AEAPEAV123@$$QEA$$T@Z
	??$exchange@PEAV?$name_formatter@Vscoped_padder@details@spdlog@@@details@spdlog@@$$T@std@@YAPEAV?$name_formatter@Vscoped_padder@details@spdlog@@@details@spdlog@@AEAPEAV123@$$QEA$$T@Z
	??$exchange@PEAV?$p_formatter@Unull_scoped_padder@details@spdlog@@@details@spdlog@@$$T@std@@YAPEAV?$p_formatter@Unull_scoped_padder@details@spdlog@@@details@spdlog@@AEAPEAV123@$$QEA$$T@Z
	??$exchange@PEAV?$p_formatter@Vscoped_padder@details@spdlog@@@details@spdlog@@$$T@std@@YAPEAV?$p_formatter@Vscoped_padder@details@spdlog@@@details@spdlog@@AEAPEAV123@$$QEA$$T@Z
	??$exchange@PEAV?$pid_formatter@Unull_scoped_padder@details@spdlog@@@details@spdlog@@$$T@std@@YAPEAV?$pid_formatter@Unull_scoped_padder@details@spdlog@@@details@spdlog@@AEAPEAV123@$$QEA$$T@Z
	??$exchange@PEAV?$pid_formatter@Vscoped_padder@details@spdlog@@@details@spdlog@@$$T@std@@YAPEAV?$pid_formatter@Vscoped_padder@details@spdlog@@@details@spdlog@@AEAPEAV123@$$QEA$$T@Z
	??$exchange@PEAV?$r_formatter@Unull_scoped_padder@details@spdlog@@@details@spdlog@@$$T@std@@YAPEAV?$r_formatter@Unull_scoped_padder@details@spdlog@@@details@spdlog@@AEAPEAV123@$$QEA$$T@Z
	??$exchange@PEAV?$r_formatter@Vscoped_padder@details@spdlog@@@details@spdlog@@$$T@std@@YAPEAV?$r_formatter@Vscoped_padder@details@spdlog@@@details@spdlog@@AEAPEAV123@$$QEA$$T@Z
	??$exchange@PEAV?$short_filename_formatter@Unull_scoped_padder@details@spdlog@@@details@spdlog@@$$T@std@@YAPEAV?$short_filename_formatter@Unull_scoped_padder@details@spdlog@@@details@spdlog@@AEAPEAV123@$$QEA$$T@Z
	??$exchange@PEAV?$short_filename_formatter@Vscoped_padder@details@spdlog@@@details@spdlog@@$$T@std@@YAPEAV?$short_filename_formatter@Vscoped_padder@details@spdlog@@@details@spdlog@@AEAPEAV123@$$QEA$$T@Z
	??$exchange@PEAV?$short_level_formatter@Unull_scoped_padder@details@spdlog@@@details@spdlog@@$$T@std@@YAPEAV?$short_level_formatter@Unull_scoped_padder@details@spdlog@@@details@spdlog@@AEAPEAV123@$$QEA$$T@Z
	??$exchange@PEAV?$short_level_formatter@Vscoped_padder@details@spdlog@@@details@spdlog@@$$T@std@@YAPEAV?$short_level_formatter@Vscoped_padder@details@spdlog@@@details@spdlog@@AEAPEAV123@$$QEA$$T@Z
	??$exchange@PEAV?$source_filename_formatter@Unull_scoped_padder@details@spdlog@@@details@spdlog@@$$T@std@@YAPEAV?$source_filename_formatter@Unull_scoped_padder@details@spdlog@@@details@spdlog@@AEAPEAV123@$$QEA$$T@Z
	??$exchange@PEAV?$source_filename_formatter@Vscoped_padder@details@spdlog@@@details@spdlog@@$$T@std@@YAPEAV?$source_filename_formatter@Vscoped_padder@details@spdlog@@@details@spdlog@@AEAPEAV123@$$QEA$$T@Z
	??$exchange@PEAV?$source_funcname_formatter@Unull_scoped_padder@details@spdlog@@@details@spdlog@@$$T@std@@YAPEAV?$source_funcname_formatter@Unull_scoped_padder@details@spdlog@@@details@spdlog@@AEAPEAV123@$$QEA$$T@Z
	??$exchange@PEAV?$source_funcname_formatter@Vscoped_padder@details@spdlog@@@details@spdlog@@$$T@std@@YAPEAV?$source_funcname_formatter@Vscoped_padder@details@spdlog@@@details@spdlog@@AEAPEAV123@$$QEA$$T@Z
	??$exchange@PEAV?$source_linenum_formatter@Unull_scoped_padder@details@spdlog@@@details@spdlog@@$$T@std@@YAPEAV?$source_linenum_formatter@Unull_scoped_padder@details@spdlog@@@details@spdlog@@AEAPEAV123@$$QEA$$T@Z
	??$exchange@PEAV?$source_linenum_formatter@Vscoped_padder@details@spdlog@@@details@spdlog@@$$T@std@@YAPEAV?$source_linenum_formatter@Vscoped_padder@details@spdlog@@@details@spdlog@@AEAPEAV123@$$QEA$$T@Z
	??$exchange@PEAV?$source_location_formatter@Unull_scoped_padder@details@spdlog@@@details@spdlog@@$$T@std@@YAPEAV?$source_location_formatter@Unull_scoped_padder@details@spdlog@@@details@spdlog@@AEAPEAV123@$$QEA$$T@Z
	??$exchange@PEAV?$source_location_formatter@Vscoped_padder@details@spdlog@@@details@spdlog@@$$T@std@@YAPEAV?$source_location_formatter@Vscoped_padder@details@spdlog@@@details@spdlog@@AEAPEAV123@$$QEA$$T@Z
	??$exchange@PEAV?$t_formatter@Unull_scoped_padder@details@spdlog@@@details@spdlog@@$$T@std@@YAPEAV?$t_formatter@Unull_scoped_padder@details@spdlog@@@details@spdlog@@AEAPEAV123@$$QEA$$T@Z
	??$exchange@PEAV?$t_formatter@Vscoped_padder@details@spdlog@@@details@spdlog@@$$T@std@@YAPEAV?$t_formatter@Vscoped_padder@details@spdlog@@@details@spdlog@@AEAPEAV123@$$QEA$$T@Z
	??$exchange@PEAV?$v_formatter@Unull_scoped_padder@details@spdlog@@@details@spdlog@@$$T@std@@YAPEAV?$v_formatter@Unull_scoped_padder@details@spdlog@@@details@spdlog@@AEAPEAV123@$$QEA$$T@Z
	??$exchange@PEAV?$v_formatter@Vscoped_padder@details@spdlog@@@details@spdlog@@$$T@std@@YAPEAV?$v_formatter@Vscoped_padder@details@spdlog@@@details@spdlog@@AEAPEAV123@$$QEA$$T@Z
	??$exchange@PEAV?$z_formatter@Unull_scoped_padder@details@spdlog@@@details@spdlog@@$$T@std@@YAPEAV?$z_formatter@Unull_scoped_padder@details@spdlog@@@details@spdlog@@AEAPEAV123@$$QEA$$T@Z
	??$exchange@PEAV?$z_formatter@Vscoped_padder@details@spdlog@@@details@spdlog@@$$T@std@@YAPEAV?$z_formatter@Vscoped_padder@details@spdlog@@@details@spdlog@@AEAPEAV123@$$QEA$$T@Z
	??$exchange@PEAVWindow@Engine@@$$T@std@@YAPEAVWindow@Engine@@AEAPEAV12@$$QEA$$T@Z
	??$exchange@PEAVWindow@Engine@@AEAPEAV12@@std@@YAPEAVWindow@Engine@@AEAPEAV12@0@Z
	??$exchange@PEAV_Facet_base@std@@$$T@std@@YAPEAV_Facet_base@0@AEAPEAV10@$$QEA$$T@Z
	??$exchange@PEAVaggregate_formatter@details@spdlog@@$$T@std@@YAPEAVaggregate_formatter@details@spdlog@@AEAPEAV123@$$QEA$$T@Z
	??$exchange@PEAVaggregate_formatter@details@spdlog@@AEAPEAV123@@std@@YAPEAVaggregate_formatter@details@spdlog@@AEAPEAV123@0@Z
	??$exchange@PEAVch_formatter@details@spdlog@@$$T@std@@YAPEAVch_formatter@details@spdlog@@AEAPEAV123@$$QEA$$T@Z
	??$exchange@PEAVcolor_start_formatter@details@spdlog@@$$T@std@@YAPEAVcolor_start_formatter@details@spdlog@@AEAPEAV123@$$QEA$$T@Z
	??$exchange@PEAVcolor_stop_formatter@details@spdlog@@$$T@std@@YAPEAVcolor_stop_formatter@details@spdlog@@AEAPEAV123@$$QEA$$T@Z
	??$exchange@PEAVcustom_flag_formatter@spdlog@@$$T@std@@YAPEAVcustom_flag_formatter@spdlog@@AEAPEAV12@$$QEA$$T@Z
	??$exchange@PEAVcustom_flag_formatter@spdlog@@AEAPEAV12@@std@@YAPEAVcustom_flag_formatter@spdlog@@AEAPEAV12@0@Z
	??$exchange@PEAVflag_formatter@details@spdlog@@$$T@std@@YAPEAVflag_formatter@details@spdlog@@AEAPEAV123@$$QEA$$T@Z
	??$exchange@PEAVformatter@spdlog@@$$T@std@@YAPEAVformatter@spdlog@@AEAPEAV12@$$QEA$$T@Z
	??$exchange@PEAVformatter@spdlog@@AEAPEAV12@@std@@YAPEAVformatter@spdlog@@AEAPEAV12@0@Z
	??$exchange@PEAVfull_formatter@details@spdlog@@$$T@std@@YAPEAVfull_formatter@details@spdlog@@AEAPEAV123@$$QEA$$T@Z
	??$exchange@PEAVpattern_formatter@spdlog@@$$T@std@@YAPEAVpattern_formatter@spdlog@@AEAPEAV12@$$QEA$$T@Z
	??$exchange@_KAEB_K@std@@YA_KAEA_KAEB_K@Z
	??$exchange@_K_K@std@@YA_KAEA_K$$QEA_K@Z
	??$exponent_bias@M@detail@v9@fmt@@YAHXZ
	??$exponent_bias@N@detail@v9@fmt@@YAHXZ
	??$exponent_mask@M@detail@v9@fmt@@YAIXZ
	??$exponent_mask@N@detail@v9@fmt@@YA_KXZ
	??$fill@PEAV?$_List_unchecked_iterator@V?$_List_val@U?$_List_simple_types@U?$pair@$$CBDV?$unique_ptr@Vcustom_flag_formatter@spdlog@@U?$default_delete@Vcustom_flag_formatter@spdlog@@@std@@@std@@@std@@@std@@@std@@@std@@V12@@std@@YAXQEAV?$_List_unchecked_iterator@V?$_List_val@U?$_List_simple_types@U?$pair@$$CBDV?$unique_ptr@Vcustom_flag_formatter@spdlog@@U?$default_delete@Vcustom_flag_formatter@spdlog@@@std@@@std@@@std@@@std@@@std@@@0@0AEBV10@@Z
	??$fill@PEAV?$_List_unchecked_iterator@V?$_List_val@U?$_List_simple_types@U?$pair@$$CBV?$basic_string@DU?$char_traits@D@std@@V?$allocator@D@2@@std@@V?$shared_ptr@Vlogger@spdlog@@@2@@std@@@std@@@std@@@std@@V12@@std@@YAXQEAV?$_List_unchecked_iterator@V?$_List_val@U?$_List_simple_types@U?$pair@$$CBV?$basic_string@DU?$char_traits@D@std@@V?$allocator@D@2@@std@@V?$shared_ptr@Vlogger@spdlog@@@2@@std@@@std@@@std@@@0@0AEBV10@@Z
	??$fill@PEAV?$_List_unchecked_iterator@V?$_List_val@U?$_List_simple_types@U?$pair@$$CBV?$basic_string@DU?$char_traits@D@std@@V?$allocator@D@2@@std@@W4level_enum@level@spdlog@@@std@@@std@@@std@@@std@@V12@@std@@YAXQEAV?$_List_unchecked_iterator@V?$_List_val@U?$_List_simple_types@U?$pair@$$CBV?$basic_string@DU?$char_traits@D@std@@V?$allocator@D@2@@std@@W4level_enum@level@spdlog@@@std@@@std@@@std@@@0@0AEBV10@@Z
	??$fill@Vappender@v9@fmt@@D@detail@v9@fmt@@YA?AVappender@12@V312@_KAEBU?$fill_t@D@012@@Z
	??$fill_n@DH@detail@v9@fmt@@YAPEADPEADHD@Z
	??$fill_n@D_K@detail@v9@fmt@@YAPEADPEAD_KD@Z
	??$fill_n@PEADHD@detail@v9@fmt@@YAPEADPEADHAEBD@Z
	??$fill_n@PEAD_KD@detail@v9@fmt@@YAPEADPEAD_KAEBD@Z
	??$fill_n@PEAH_KH@detail@v9@fmt@@YAPEAHPEAH_KAEBH@Z
	??$fill_n@PEAI_KI@detail@v9@fmt@@YAPEAIPEAI_KAEBI@Z
	??$fill_n@Vappender@v9@fmt@@HD@detail@v9@fmt@@YA?AVappender@12@V312@HAEBD@Z
	??$fill_n@Vappender@v9@fmt@@_KD@detail@v9@fmt@@YA?AVappender@12@V312@_KAEBD@Z
	??$find@$0A@DPEBD@detail@v9@fmt@@YA_NPEBD0DAEAPEBD@Z
	??$find@V?$_Vector_iterator@V?$_Vector_val@U?$_Simple_types@PEAVLayer@Engine@@@std@@@std@@@std@@PEAVLayer@Engine@@@std@@YA?AV?$_Vector_iterator@V?$_Vector_val@U?$_Simple_types@PEAVLayer@Engine@@@std@@@std@@@0@V10@V10@AEBQEAVLayer@Engine@@@Z
	??$find@X@?$_Hash@V?$_Umap_traits@DV?$unique_ptr@Vcustom_flag_formatter@spdlog@@U?$default_delete@Vcustom_flag_formatter@spdlog@@@std@@@std@@V?$_Uhash_compare@DU?$hash@D@std@@U?$equal_to@D@2@@2@V?$allocator@U?$pair@$$CBDV?$unique_ptr@Vcustom_flag_formatter@spdlog@@U?$default_delete@Vcustom_flag_formatter@spdlog@@@std@@@std@@@std@@@2@$0A@@std@@@std@@QEAA?AV?$_List_iterator@V?$_List_val@U?$_List_simple_types@U?$pair@$$CBDV?$unique_ptr@Vcustom_flag_formatter@spdlog@@U?$default_delete@Vcustom_flag_formatter@spdlog@@@std@@@std@@@std@@@std@@@std@@@1@AEBD@Z
	??$find@X@?$_Hash@V?$_Umap_traits@V?$basic_string@DU?$char_traits@D@std@@V?$allocator@D@2@@std@@V?$shared_ptr@Vlogger@spdlog@@@2@V?$_Uhash_compare@V?$basic_string@DU?$char_traits@D@std@@V?$allocator@D@2@@std@@U?$hash@V?$basic_string@DU?$char_traits@D@std@@V?$allocator@D@2@@std@@@2@U?$equal_to@V?$basic_string@DU?$char_traits@D@std@@V?$allocator@D@2@@std@@@2@@2@V?$allocator@U?$pair@$$CBV?$basic_string@DU?$char_traits@D@std@@V?$allocator@D@2@@std@@V?$shared_ptr@Vlogger@spdlog@@@2@@std@@@2@$0A@@std@@@std@@QEAA?AV?$_List_iterator@V?$_List_val@U?$_List_simple_types@U?$pair@$$CBV?$basic_string@DU?$char_traits@D@std@@V?$allocator@D@2@@std@@V?$shared_ptr@Vlogger@spdlog@@@2@@std@@@std@@@std@@@1@AEBV?$basic_string@DU?$char_traits@D@std@@V?$allocator@D@2@@1@@Z
	??$find@X@?$_Hash@V?$_Umap_traits@V?$basic_string@DU?$char_traits@D@std@@V?$allocator@D@2@@std@@W4level_enum@level@spdlog@@V?$_Uhash_compare@V?$basic_string@DU?$char_traits@D@std@@V?$allocator@D@2@@std@@U?$hash@V?$basic_string@DU?$char_traits@D@std@@V?$allocator@D@2@@std@@@2@U?$equal_to@V?$basic_string@DU?$char_traits@D@std@@V?$allocator@D@2@@std@@@2@@2@V?$allocator@U?$pair@$$CBV?$basic_string@DU?$char_traits@D@std@@V?$allocator@D@2@@std@@W4level_enum@level@spdlog@@@std@@@2@$0A@@std@@@std@@QEAA?AV?$_List_iterator@V?$_List_val@U?$_List_simple_types@U?$pair@$$CBV?$basic_string@DU?$char_traits@D@std@@V?$allocator@D@2@@std@@W4level_enum@level@spdlog@@@std@@@std@@@std@@@1@AEBV?$basic_string@DU?$char_traits@D@std@@V?$allocator@D@2@@1@@Z
	??$find_escape@D@detail@v9@fmt@@YA?AU?$find_escape_result@D@012@PEBD0@Z
	??$find_first_of@V?$reverse_iterator@PEBD@std@@PEBD@std@@YA?AV?$reverse_iterator@PEBD@0@V10@0QEBD1@Z
	??$find_first_of@V?$reverse_iterator@PEBD@std@@PEBDU?$equal_to@X@2@@std@@YA?AV?$reverse_iterator@PEBD@0@V10@V10@QEBD2U?$equal_to@X@0@@Z
	??$for_each_codepoint@Ucount_code_points@?1??compute_width@detail@v9@fmt@@YA_KV?$basic_string_view@D@45@@Z@@detail@v9@fmt@@YAXV?$basic_string_view@D@12@Ucount_code_points@?1??compute_width@012@YA_K0@Z@@Z
	??$for_each_codepoint@V<lambda_2ab702ab9354ffdbceadec90b046d720>@@@detail@v9@fmt@@YAXV?$basic_string_view@D@12@V<lambda_2ab702ab9354ffdbceadec90b046d720>@@@Z
	??$format@PEBDAEAPEBDAEAH@v9@fmt@@YA?AV?$basic_string@DU?$char_traits@D@std@@V?$allocator@D@2@@std@@V?$basic_format_string@DPEBDAEAPEBDAEAH@01@$$QEAPEBDAEAPEBDAEAH@Z
	??$format@PEBDAEBQEBDAEBH@v9@fmt@@YA?AV?$basic_string@DU?$char_traits@D@std@@V?$allocator@D@2@@std@@V?$basic_format_string@DPEBDAEBQEBDAEBH@01@$$QEAPEBDAEBQEBDAEBH@Z
	??$format@PEBDPEBDH@v9@fmt@@YA?AV?$basic_string@DU?$char_traits@D@std@@V?$allocator@D@2@@std@@V?$basic_format_string@DPEBDPEBDH@01@$$QEAPEBD1$$QEAH@Z
	??$format_decimal@DI@detail@v9@fmt@@YA?AU?$format_decimal_result@PEAD@012@PEADIH@Z
	??$format_decimal@DIVappender@v9@fmt@@$0A@@detail@v9@fmt@@YA?AU?$format_decimal_result@Vappender@v9@fmt@@@012@Vappender@12@IH@Z
	??$format_decimal@D_K@detail@v9@fmt@@YA?AU?$format_decimal_result@PEAD@012@PEAD_KH@Z
	??$format_decimal@D_KVappender@v9@fmt@@$0A@@detail@v9@fmt@@YA?AU?$format_decimal_result@Vappender@v9@fmt@@@012@Vappender@12@_KH@Z
	??$format_float@N@detail@v9@fmt@@YAHNHUfloat_specs@012@AEAV?$buffer@D@012@@Z
	??$format_signed@H@format_int@v9@fmt@@AEAAPEADH@Z
	??$format_signed@_J@format_int@v9@fmt@@AEAAPEAD_J@Z
	??$format_to@V?$back_insert_iterator@V?$basic_memory_buffer@D$0PK@V?$allocator@D@std@@@v9@fmt@@@std@@AEAH$0A@@v9@fmt@@YA?AV?$back_insert_iterator@V?$basic_memory_buffer@D$0PK@V?$allocator@D@std@@@v9@fmt@@@std@@V23@V?$basic_format_string@DAEAH@01@AEAH@Z
	??$format_to@Vappender@v9@fmt@@AEAV?$basic_string_view@D@23@AEAY02$$CBD$0A@@v9@fmt@@YA?AVappender@01@V201@V?$basic_format_string@DAEAV?$basic_string_view@D@v9@fmt@@AEAY02$$CBD@01@AEAV?$basic_string_view@D@01@AEAY02$$CBD@Z
	??$format_to@Vappender@v9@fmt@@AEAY06$$CBDAEAH$0A@@v9@fmt@@YA?AVappender@01@V201@V?$basic_format_string@DAEAY06$$CBDAEAH@01@AEAY06$$CBDAEAH@Z
	??$format_uint@$00DI@detail@v9@fmt@@YAPEADPEADIH_N@Z
	??$format_uint@$00DVappender@v9@fmt@@I@detail@v9@fmt@@YA?AVappender@12@V312@IH_N@Z
	??$format_uint@$00DVappender@v9@fmt@@_K@detail@v9@fmt@@YA?AVappender@12@V312@_KH_N@Z
	??$format_uint@$00D_K@detail@v9@fmt@@YAPEADPEAD_KH_N@Z
	??$format_uint@$02DI@detail@v9@fmt@@YAPEADPEADIH_N@Z
	??$format_uint@$02DVappender@v9@fmt@@I@detail@v9@fmt@@YA?AVappender@12@V312@IH_N@Z
	??$format_uint@$02DVappender@v9@fmt@@_K@detail@v9@fmt@@YA?AVappender@12@V312@_KH_N@Z
	??$format_uint@$02D_K@detail@v9@fmt@@YAPEADPEAD_KH_N@Z
	??$format_uint@$03DI@detail@v9@fmt@@YAPEADPEADIH_N@Z
	??$format_uint@$03DVappender@v9@fmt@@I@detail@v9@fmt@@YA?AVappender@12@V312@IH_N@Z
	??$format_uint@$03DVappender@v9@fmt@@_K@detail@v9@fmt@@YA?AVappender@12@V312@_KH_N@Z
	??$format_uint@$03D_K@detail@v9@fmt@@YAPEADPEAD_KH_N@Z
	??$format_unsigned@I@format_int@v9@fmt@@AEAAPEADI@Z
	??$format_unsigned@_K@format_int@v9@fmt@@AEAAPEAD_K@Z
	??$forward@AEAD@std@@YAAEADAEAD@Z
	??$forward@AEAH@std@@YAAEAHAEAH@Z
	??$forward@AEAI@std@@YAAEAIAEAI@Z
	??$forward@AEAPEAD@std@@YAAEAPEADAEAPEAD@Z
	??$forward@AEAPEAI@std@@YAAEAPEAIAEAPEAI@Z
	??$forward@AEAPEAU?$_List_node@U?$pair@$$CBDV?$unique_ptr@Vcustom_flag_formatter@spdlog@@U?$default_delete@Vcustom_flag_formatter@spdlog@@@std@@@std@@@std@@PEAX@std@@@std@@YAAEAPEAU?$_List_node@U?$pair@$$CBDV?$unique_ptr@Vcustom_flag_formatter@spdlog@@U?$default_delete@Vcustom_flag_formatter@spdlog@@@std@@@std@@@std@@PEAX@0@AEAPEAU10@@Z
	??$forward@AEAPEAU?$_List_node@U?$pair@$$CBV?$basic_string@DU?$char_traits@D@std@@V?$allocator@D@2@@std@@V?$shared_ptr@Vlogger@spdlog@@@2@@std@@PEAX@std@@@std@@YAAEAPEAU?$_List_node@U?$pair@$$CBV?$basic_string@DU?$char_traits@D@std@@V?$allocator@D@2@@std@@V?$shared_ptr@Vlogger@spdlog@@@2@@std@@PEAX@0@AEAPEAU10@@Z
	??$forward@AEAPEAU?$_List_node@U?$pair@$$CBV?$basic_string@DU?$char_traits@D@std@@V?$allocator@D@2@@std@@W4level_enum@level@spdlog@@@std@@PEAX@std@@@std@@YAAEAPEAU?$_List_node@U?$pair@$$CBV?$basic_string@DU?$char_traits@D@std@@V?$allocator@D@2@@std@@W4level_enum@level@spdlog@@@std@@PEAX@0@AEAPEAU10@@Z
	??$forward@AEAPEAV?$A_formatter@Unull_scoped_padder@details@spdlog@@@details@spdlog@@@std@@YAAEAPEAV?$A_formatter@Unull_scoped_padder@details@spdlog@@@details@spdlog@@AEAPEAV123@@Z
	??$forward@AEAPEAV?$A_formatter@Vscoped_padder@details@spdlog@@@details@spdlog@@@std@@YAAEAPEAV?$A_formatter@Vscoped_padder@details@spdlog@@@details@spdlog@@AEAPEAV123@@Z
	??$forward@AEAPEAV?$B_formatter@Unull_scoped_padder@details@spdlog@@@details@spdlog@@@std@@YAAEAPEAV?$B_formatter@Unull_scoped_padder@details@spdlog@@@details@spdlog@@AEAPEAV123@@Z
	??$forward@AEAPEAV?$B_formatter@Vscoped_padder@details@spdlog@@@details@spdlog@@@std@@YAAEAPEAV?$B_formatter@Vscoped_padder@details@spdlog@@@details@spdlog@@AEAPEAV123@@Z
	??$forward@AEAPEAV?$C_formatter@Unull_scoped_padder@details@spdlog@@@details@spdlog@@@std@@YAAEAPEAV?$C_formatter@Unull_scoped_padder@details@spdlog@@@details@spdlog@@AEAPEAV123@@Z
	??$forward@AEAPEAV?$C_formatter@Vscoped_padder@details@spdlog@@@details@spdlog@@@std@@YAAEAPEAV?$C_formatter@Vscoped_padder@details@spdlog@@@details@spdlog@@AEAPEAV123@@Z
	??$forward@AEAPEAV?$D_formatter@Unull_scoped_padder@details@spdlog@@@details@spdlog@@@std@@YAAEAPEAV?$D_formatter@Unull_scoped_padder@details@spdlog@@@details@spdlog@@AEAPEAV123@@Z
	??$forward@AEAPEAV?$D_formatter@Vscoped_padder@details@spdlog@@@details@spdlog@@@std@@YAAEAPEAV?$D_formatter@Vscoped_padder@details@spdlog@@@details@spdlog@@AEAPEAV123@@Z
	??$forward@AEAPEAV?$E_formatter@Unull_scoped_padder@details@spdlog@@@details@spdlog@@@std@@YAAEAPEAV?$E_formatter@Unull_scoped_padder@details@spdlog@@@details@spdlog@@AEAPEAV123@@Z
	??$forward@AEAPEAV?$E_formatter@Vscoped_padder@details@spdlog@@@details@spdlog@@@std@@YAAEAPEAV?$E_formatter@Vscoped_padder@details@spdlog@@@details@spdlog@@AEAPEAV123@@Z
	??$forward@AEAPEAV?$F_formatter@Unull_scoped_padder@details@spdlog@@@details@spdlog@@@std@@YAAEAPEAV?$F_formatter@Unull_scoped_padder@details@spdlog@@@details@spdlog@@AEAPEAV123@@Z
	??$forward@AEAPEAV?$F_formatter@Vscoped_padder@details@spdlog@@@details@spdlog@@@std@@YAAEAPEAV?$F_formatter@Vscoped_padder@details@spdlog@@@details@spdlog@@AEAPEAV123@@Z
	??$forward@AEAPEAV?$H_formatter@Unull_scoped_padder@details@spdlog@@@details@spdlog@@@std@@YAAEAPEAV?$H_formatter@Unull_scoped_padder@details@spdlog@@@details@spdlog@@AEAPEAV123@@Z
	??$forward@AEAPEAV?$H_formatter@Vscoped_padder@details@spdlog@@@details@spdlog@@@std@@YAAEAPEAV?$H_formatter@Vscoped_padder@details@spdlog@@@details@spdlog@@AEAPEAV123@@Z
	??$forward@AEAPEAV?$I_formatter@Unull_scoped_padder@details@spdlog@@@details@spdlog@@@std@@YAAEAPEAV?$I_formatter@Unull_scoped_padder@details@spdlog@@@details@spdlog@@AEAPEAV123@@Z
	??$forward@AEAPEAV?$I_formatter@Vscoped_padder@details@spdlog@@@details@spdlog@@@std@@YAAEAPEAV?$I_formatter@Vscoped_padder@details@spdlog@@@details@spdlog@@AEAPEAV123@@Z
	??$forward@AEAPEAV?$M_formatter@Unull_scoped_padder@details@spdlog@@@details@spdlog@@@std@@YAAEAPEAV?$M_formatter@Unull_scoped_padder@details@spdlog@@@details@spdlog@@AEAPEAV123@@Z
	??$forward@AEAPEAV?$M_formatter@Vscoped_padder@details@spdlog@@@details@spdlog@@@std@@YAAEAPEAV?$M_formatter@Vscoped_padder@details@spdlog@@@details@spdlog@@AEAPEAV123@@Z
	??$forward@AEAPEAV?$R_formatter@Unull_scoped_padder@details@spdlog@@@details@spdlog@@@std@@YAAEAPEAV?$R_formatter@Unull_scoped_padder@details@spdlog@@@details@spdlog@@AEAPEAV123@@Z
	??$forward@AEAPEAV?$R_formatter@Vscoped_padder@details@spdlog@@@details@spdlog@@@std@@YAAEAPEAV?$R_formatter@Vscoped_padder@details@spdlog@@@details@spdlog@@AEAPEAV123@@Z
	??$forward@AEAPEAV?$S_formatter@Unull_scoped_padder@details@spdlog@@@details@spdlog@@@std@@YAAEAPEAV?$S_formatter@Unull_scoped_padder@details@spdlog@@@details@spdlog@@AEAPEAV123@@Z
	??$forward@AEAPEAV?$S_formatter@Vscoped_padder@details@spdlog@@@details@spdlog@@@std@@YAAEAPEAV?$S_formatter@Vscoped_padder@details@spdlog@@@details@spdlog@@AEAPEAV123@@Z
	??$forward@AEAPEAV?$T_formatter@Unull_scoped_padder@details@spdlog@@@details@spdlog@@@std@@YAAEAPEAV?$T_formatter@Unull_scoped_padder@details@spdlog@@@details@spdlog@@AEAPEAV123@@Z
	??$forward@AEAPEAV?$T_formatter@Vscoped_padder@details@spdlog@@@details@spdlog@@@std@@YAAEAPEAV?$T_formatter@Vscoped_padder@details@spdlog@@@details@spdlog@@AEAPEAV123@@Z
	??$forward@AEAPEAV?$Y_formatter@Unull_scoped_padder@details@spdlog@@@details@spdlog@@@std@@YAAEAPEAV?$Y_formatter@Unull_scoped_padder@details@spdlog@@@details@spdlog@@AEAPEAV123@@Z
	??$forward@AEAPEAV?$Y_formatter@Vscoped_padder@details@spdlog@@@details@spdlog@@@std@@YAAEAPEAV?$Y_formatter@Vscoped_padder@details@spdlog@@@details@spdlog@@AEAPEAV123@@Z
	??$forward@AEAPEAV?$a_formatter@Unull_scoped_padder@details@spdlog@@@details@spdlog@@@std@@YAAEAPEAV?$a_formatter@Unull_scoped_padder@details@spdlog@@@details@spdlog@@AEAPEAV123@@Z
	??$forward@AEAPEAV?$a_formatter@Vscoped_padder@details@spdlog@@@details@spdlog@@@std@@YAAEAPEAV?$a_formatter@Vscoped_padder@details@spdlog@@@details@spdlog@@AEAPEAV123@@Z
	??$forward@AEAPEAV?$b_formatter@Unull_scoped_padder@details@spdlog@@@details@spdlog@@@std@@YAAEAPEAV?$b_formatter@Unull_scoped_padder@details@spdlog@@@details@spdlog@@AEAPEAV123@@Z
	??$forward@AEAPEAV?$b_formatter@Vscoped_padder@details@spdlog@@@details@spdlog@@@std@@YAAEAPEAV?$b_formatter@Vscoped_padder@details@spdlog@@@details@spdlog@@AEAPEAV123@@Z
	??$forward@AEAPEAV?$c_formatter@Unull_scoped_padder@details@spdlog@@@details@spdlog@@@std@@YAAEAPEAV?$c_formatter@Unull_scoped_padder@details@spdlog@@@details@spdlog@@AEAPEAV123@@Z
	??$forward@AEAPEAV?$c_formatter@Vscoped_padder@details@spdlog@@@details@spdlog@@@std@@YAAEAPEAV?$c_formatter@Vscoped_padder@details@spdlog@@@details@spdlog@@AEAPEAV123@@Z
	??$forward@AEAPEAV?$d_formatter@Unull_scoped_padder@details@spdlog@@@details@spdlog@@@std@@YAAEAPEAV?$d_formatter@Unull_scoped_padder@details@spdlog@@@details@spdlog@@AEAPEAV123@@Z
	??$forward@AEAPEAV?$d_formatter@Vscoped_padder@details@spdlog@@@details@spdlog@@@std@@YAAEAPEAV?$d_formatter@Vscoped_padder@details@spdlog@@@details@spdlog@@AEAPEAV123@@Z
	??$forward@AEAPEAV?$e_formatter@Unull_scoped_padder@details@spdlog@@@details@spdlog@@@std@@YAAEAPEAV?$e_formatter@Unull_scoped_padder@details@spdlog@@@details@spdlog@@AEAPEAV123@@Z
	??$forward@AEAPEAV?$e_formatter@Vscoped_padder@details@spdlog@@@details@spdlog@@@std@@YAAEAPEAV?$e_formatter@Vscoped_padder@details@spdlog@@@details@spdlog@@AEAPEAV123@@Z
	??$forward@AEAPEAV?$elapsed_formatter@Unull_scoped_padder@details@spdlog@@V?$duration@_JU?$ratio@$00$00@std@@@chrono@std@@@details@spdlog@@@std@@YAAEAPEAV?$elapsed_formatter@Unull_scoped_padder@details@spdlog@@V?$duration@_JU?$ratio@$00$00@std@@@chrono@std@@@details@spdlog@@AEAPEAV123@@Z
	??$forward@AEAPEAV?$elapsed_formatter@Unull_scoped_padder@details@spdlog@@V?$duration@_JU?$ratio@$00$0DLJKMKAA@@std@@@chrono@std@@@details@spdlog@@@std@@YAAEAPEAV?$elapsed_formatter@Unull_scoped_padder@details@spdlog@@V?$duration@_JU?$ratio@$00$0DLJKMKAA@@std@@@chrono@std@@@details@spdlog@@AEAPEAV123@@Z
	??$forward@AEAPEAV?$elapsed_formatter@Unull_scoped_padder@details@spdlog@@V?$duration@_JU?$ratio@$00$0DOI@@std@@@chrono@std@@@details@spdlog@@@std@@YAAEAPEAV?$elapsed_formatter@Unull_scoped_padder@details@spdlog@@V?$duration@_JU?$ratio@$00$0DOI@@std@@@chrono@std@@@details@spdlog@@AEAPEAV123@@Z
	??$forward@AEAPEAV?$elapsed_formatter@Unull_scoped_padder@details@spdlog@@V?$duration@_JU?$ratio@$00$0PECEA@@std@@@chrono@std@@@details@spdlog@@@std@@YAAEAPEAV?$elapsed_formatter@Unull_scoped_padder@details@spdlog@@V?$duration@_JU?$ratio@$00$0PECEA@@std@@@chrono@std@@@details@spdlog@@AEAPEAV123@@Z
	??$forward@AEAPEAV?$elapsed_formatter@Vscoped_padder@details@spdlog@@V?$duration@_JU?$ratio@$00$00@std@@@chrono@std@@@details@spdlog@@@std@@YAAEAPEAV?$elapsed_formatter@Vscoped_padder@details@spdlog@@V?$duration@_JU?$ratio@$00$00@std@@@chrono@std@@@details@spdlog@@AEAPEAV123@@Z
	??$forward@AEAPEAV?$elapsed_formatter@Vscoped_padder@details@spdlog@@V?$duration@_JU?$ratio@$00$0DLJKMKAA@@std@@@chrono@std@@@details@spdlog@@@std@@YAAEAPEAV?$elapsed_formatter@Vscoped_padder@details@spdlog@@V?$duration@_JU?$ratio@$00$0DLJKMKAA@@std@@@chrono@std@@@details@spdlog@@AEAPEAV123@@Z
	??$forward@AEAPEAV?$elapsed_formatter@Vscoped_padder@details@spdlog@@V?$duration@_JU?$ratio@$00$0DOI@@std@@@chrono@std@@@details@spdlog@@@std@@YAAEAPEAV?$elapsed_formatter@Vscoped_padder@details@spdlog@@V?$duration@_JU?$ratio@$00$0DOI@@std@@@chrono@std@@@details@spdlog@@AEAPEAV123@@Z
	??$forward@AEAPEAV?$elapsed_formatter@Vscoped_padder@details@spdlog@@V?$duration@_JU?$ratio@$00$0PECEA@@std@@@chrono@std@@@details@spdlog@@@std@@YAAEAPEAV?$elapsed_formatter@Vscoped_padder@details@spdlog@@V?$duration@_JU?$ratio@$00$0PECEA@@std@@@chrono@std@@@details@spdlog@@AEAPEAV123@@Z
	??$forward@AEAPEAV?$f_formatter@Unull_scoped_padder@details@spdlog@@@details@spdlog@@@std@@YAAEAPEAV?$f_formatter@Unull_scoped_padder@details@spdlog@@@details@spdlog@@AEAPEAV123@@Z
	??$forward@AEAPEAV?$f_formatter@Vscoped_padder@details@spdlog@@@details@spdlog@@@std@@YAAEAPEAV?$f_formatter@Vscoped_padder@details@spdlog@@@details@spdlog@@AEAPEAV123@@Z
	??$forward@AEAPEAV?$level_formatter@Unull_scoped_padder@details@spdlog@@@details@spdlog@@@std@@YAAEAPEAV?$level_formatter@Unull_scoped_padder@details@spdlog@@@details@spdlog@@AEAPEAV123@@Z
	??$forward@AEAPEAV?$level_formatter@Vscoped_padder@details@spdlog@@@details@spdlog@@@std@@YAAEAPEAV?$level_formatter@Vscoped_padder@details@spdlog@@@details@spdlog@@AEAPEAV123@@Z
	??$forward@AEAPEAV?$m_formatter@Unull_scoped_padder@details@spdlog@@@details@spdlog@@@std@@YAAEAPEAV?$m_formatter@Unull_scoped_padder@details@spdlog@@@details@spdlog@@AEAPEAV123@@Z
	??$forward@AEAPEAV?$m_formatter@Vscoped_padder@details@spdlog@@@details@spdlog@@@std@@YAAEAPEAV?$m_formatter@Vscoped_padder@details@spdlog@@@details@spdlog@@AEAPEAV123@@Z
	??$forward@AEAPEAV?$mdc_formatter@Unull_scoped_padder@details@spdlog@@@details@spdlog@@@std@@YAAEAPEAV?$mdc_formatter@Unull_scoped_padder@details@spdlog@@@details@spdlog@@AEAPEAV123@@Z
	??$forward@AEAPEAV?$mdc_formatter@Vscoped_padder@details@spdlog@@@details@spdlog@@@std@@YAAEAPEAV?$mdc_formatter@Vscoped_padder@details@spdlog@@@details@spdlog@@AEAPEAV123@@Z
	??$forward@AEAPEAV?$name_formatter@Unull_scoped_padder@details@spdlog@@@details@spdlog@@@std@@YAAEAPEAV?$name_formatter@Unull_scoped_padder@details@spdlog@@@details@spdlog@@AEAPEAV123@@Z
	??$forward@AEAPEAV?$name_formatter@Vscoped_padder@details@spdlog@@@details@spdlog@@@std@@YAAEAPEAV?$name_formatter@Vscoped_padder@details@spdlog@@@details@spdlog@@AEAPEAV123@@Z
	??$forward@AEAPEAV?$p_formatter@Unull_scoped_padder@details@spdlog@@@details@spdlog@@@std@@YAAEAPEAV?$p_formatter@Unull_scoped_padder@details@spdlog@@@details@spdlog@@AEAPEAV123@@Z
	??$forward@AEAPEAV?$p_formatter@Vscoped_padder@details@spdlog@@@details@spdlog@@@std@@YAAEAPEAV?$p_formatter@Vscoped_padder@details@spdlog@@@details@spdlog@@AEAPEAV123@@Z
	??$forward@AEAPEAV?$pid_formatter@Unull_scoped_padder@details@spdlog@@@details@spdlog@@@std@@YAAEAPEAV?$pid_formatter@Unull_scoped_padder@details@spdlog@@@details@spdlog@@AEAPEAV123@@Z
	??$forward@AEAPEAV?$pid_formatter@Vscoped_padder@details@spdlog@@@details@spdlog@@@std@@YAAEAPEAV?$pid_formatter@Vscoped_padder@details@spdlog@@@details@spdlog@@AEAPEAV123@@Z
	??$forward@AEAPEAV?$r_formatter@Unull_scoped_padder@details@spdlog@@@details@spdlog@@@std@@YAAEAPEAV?$r_formatter@Unull_scoped_padder@details@spdlog@@@details@spdlog@@AEAPEAV123@@Z
	??$forward@AEAPEAV?$r_formatter@Vscoped_padder@details@spdlog@@@details@spdlog@@@std@@YAAEAPEAV?$r_formatter@Vscoped_padder@details@spdlog@@@details@spdlog@@AEAPEAV123@@Z
	??$forward@AEAPEAV?$short_filename_formatter@Unull_scoped_padder@details@spdlog@@@details@spdlog@@@std@@YAAEAPEAV?$short_filename_formatter@Unull_scoped_padder@details@spdlog@@@details@spdlog@@AEAPEAV123@@Z
	??$forward@AEAPEAV?$short_filename_formatter@Vscoped_padder@details@spdlog@@@details@spdlog@@@std@@YAAEAPEAV?$short_filename_formatter@Vscoped_padder@details@spdlog@@@details@spdlog@@AEAPEAV123@@Z
	??$forward@AEAPEAV?$short_level_formatter@Unull_scoped_padder@details@spdlog@@@details@spdlog@@@std@@YAAEAPEAV?$short_level_formatter@Unull_scoped_padder@details@spdlog@@@details@spdlog@@AEAPEAV123@@Z
	??$forward@AEAPEAV?$short_level_formatter@Vscoped_padder@details@spdlog@@@details@spdlog@@@std@@YAAEAPEAV?$short_level_formatter@Vscoped_padder@details@spdlog@@@details@spdlog@@AEAPEAV123@@Z
	??$forward@AEAPEAV?$source_filename_formatter@Unull_scoped_padder@details@spdlog@@@details@spdlog@@@std@@YAAEAPEAV?$source_filename_formatter@Unull_scoped_padder@details@spdlog@@@details@spdlog@@AEAPEAV123@@Z
	??$forward@AEAPEAV?$source_filename_formatter@Vscoped_padder@details@spdlog@@@details@spdlog@@@std@@YAAEAPEAV?$source_filename_formatter@Vscoped_padder@details@spdlog@@@details@spdlog@@AEAPEAV123@@Z
	??$forward@AEAPEAV?$source_funcname_formatter@Unull_scoped_padder@details@spdlog@@@details@spdlog@@@std@@YAAEAPEAV?$source_funcname_formatter@Unull_scoped_padder@details@spdlog@@@details@spdlog@@AEAPEAV123@@Z
	??$forward@AEAPEAV?$source_funcname_formatter@Vscoped_padder@details@spdlog@@@details@spdlog@@@std@@YAAEAPEAV?$source_funcname_formatter@Vscoped_padder@details@spdlog@@@details@spdlog@@AEAPEAV123@@Z
	??$forward@AEAPEAV?$source_linenum_formatter@Unull_scoped_padder@details@spdlog@@@details@spdlog@@@std@@YAAEAPEAV?$source_linenum_formatter@Unull_scoped_padder@details@spdlog@@@details@spdlog@@AEAPEAV123@@Z
	??$forward@AEAPEAV?$source_linenum_formatter@Vscoped_padder@details@spdlog@@@details@spdlog@@@std@@YAAEAPEAV?$source_linenum_formatter@Vscoped_padder@details@spdlog@@@details@spdlog@@AEAPEAV123@@Z
	??$forward@AEAPEAV?$source_location_formatter@Unull_scoped_padder@details@spdlog@@@details@spdlog@@@std@@YAAEAPEAV?$source_location_formatter@Unull_scoped_padder@details@spdlog@@@details@spdlog@@AEAPEAV123@@Z
	??$forward@AEAPEAV?$source_location_formatter@Vscoped_padder@details@spdlog@@@details@spdlog@@@std@@YAAEAPEAV?$source_location_formatter@Vscoped_padder@details@spdlog@@@details@spdlog@@AEAPEAV123@@Z
	??$forward@AEAPEAV?$t_formatter@Unull_scoped_padder@details@spdlog@@@details@spdlog@@@std@@YAAEAPEAV?$t_formatter@Unull_scoped_padder@details@spdlog@@@details@spdlog@@AEAPEAV123@@Z
	??$forward@AEAPEAV?$t_formatter@Vscoped_padder@details@spdlog@@@details@spdlog@@@std@@YAAEAPEAV?$t_formatter@Vscoped_padder@details@spdlog@@@details@spdlog@@AEAPEAV123@@Z
	??$forward@AEAPEAV?$v_formatter@Unull_scoped_padder@details@spdlog@@@details@spdlog@@@std@@YAAEAPEAV?$v_formatter@Unull_scoped_padder@details@spdlog@@@details@spdlog@@AEAPEAV123@@Z
	??$forward@AEAPEAV?$v_formatter@Vscoped_padder@details@spdlog@@@details@spdlog@@@std@@YAAEAPEAV?$v_formatter@Vscoped_padder@details@spdlog@@@details@spdlog@@AEAPEAV123@@Z
	??$forward@AEAPEAV?$z_formatter@Unull_scoped_padder@details@spdlog@@@details@spdlog@@@std@@YAAEAPEAV?$z_formatter@Unull_scoped_padder@details@spdlog@@@details@spdlog@@AEAPEAV123@@Z
	??$forward@AEAPEAV?$z_formatter@Vscoped_padder@details@spdlog@@@details@spdlog@@@std@@YAAEAPEAV?$z_formatter@Vscoped_padder@details@spdlog@@@details@spdlog@@AEAPEAV123@@Z
	??$forward@AEAPEAVLayer@Engine@@@std@@YAAEAPEAVLayer@Engine@@AEAPEAV12@@Z
	??$forward@AEAPEAVWindow@Engine@@@std@@YAAEAPEAVWindow@Engine@@AEAPEAV12@@Z
	??$forward@AEAPEAV_Facet_base@std@@@std@@YAAEAPEAV_Facet_base@0@AEAPEAV10@@Z
	??$forward@AEAPEAVaggregate_formatter@details@spdlog@@@std@@YAAEAPEAVaggregate_formatter@details@spdlog@@AEAPEAV123@@Z
	??$forward@AEAPEAVch_formatter@details@spdlog@@@std@@YAAEAPEAVch_formatter@details@spdlog@@AEAPEAV123@@Z
	??$forward@AEAPEAVcolor_start_formatter@details@spdlog@@@std@@YAAEAPEAVcolor_start_formatter@details@spdlog@@AEAPEAV123@@Z
	??$forward@AEAPEAVcolor_stop_formatter@details@spdlog@@@std@@YAAEAPEAVcolor_stop_formatter@details@spdlog@@AEAPEAV123@@Z
	??$forward@AEAPEAVformatter@spdlog@@@std@@YAAEAPEAVformatter@spdlog@@AEAPEAV12@@Z
	??$forward@AEAPEAVfull_formatter@details@spdlog@@@std@@YAAEAPEAVfull_formatter@details@spdlog@@AEAPEAV123@@Z
	??$forward@AEAPEAVpattern_formatter@spdlog@@@std@@YAAEAPEAVpattern_formatter@spdlog@@AEAPEAV12@@Z
	??$forward@AEAPEBD@std@@YAAEAPEBDAEAPEBD@Z
	??$forward@AEAUpadding_info@details@spdlog@@@std@@YAAEAUpadding_info@details@spdlog@@AEAU123@@Z
	??$forward@AEAV?$reverse_iterator@PEBD@std@@@std@@YAAEAV?$reverse_iterator@PEBD@0@AEAV10@@Z
	??$forward@AEAV?$shared_ptr@Vsink@sinks@spdlog@@@std@@@std@@YAAEAV?$shared_ptr@Vsink@sinks@spdlog@@@0@AEAV10@@Z
	??$forward@AEAVEvent@Engine@@@std@@YAAEAVEvent@Engine@@AEAV12@@Z
	??$forward@AEAVKeyPressedEvent@Engine@@@std@@YAAEAVKeyPressedEvent@Engine@@AEAV12@@Z
	??$forward@AEAVKeyReleasedEvent@Engine@@@std@@YAAEAVKeyReleasedEvent@Engine@@AEAV12@@Z
	??$forward@AEAVKeyTypedEvent@Engine@@@std@@YAAEAVKeyTypedEvent@Engine@@AEAV12@@Z
	??$forward@AEAVMouseButtonPressedEvent@Engine@@@std@@YAAEAVMouseButtonPressedEvent@Engine@@AEAV12@@Z
	??$forward@AEAVMouseButtonReleasedEvent@Engine@@@std@@YAAEAVMouseButtonReleasedEvent@Engine@@AEAV12@@Z
	??$forward@AEAVMouseMovedEvent@Engine@@@std@@YAAEAVMouseMovedEvent@Engine@@AEAV12@@Z
	??$forward@AEAVMouseScrolledEvent@Engine@@@std@@YAAEAVMouseScrolledEvent@Engine@@AEAV12@@Z
	??$forward@AEAVWindowCloseEvent@Engine@@@std@@YAAEAVWindowCloseEvent@Engine@@AEAV12@@Z
	??$forward@AEAVWindowResizeEvent@Engine@@@std@@YAAEAVWindowResizeEvent@Engine@@AEAV12@@Z
	??$forward@AEAVlog_msg_buffer@details@spdlog@@@std@@YAAEAVlog_msg_buffer@details@spdlog@@AEAV123@@Z
	??$forward@AEAVlogger@spdlog@@@std@@YAAEAVlogger@spdlog@@AEAV12@@Z
	??$forward@AEAW4color_mode@spdlog@@@std@@YAAEAW4color_mode@spdlog@@AEAW412@@Z
	??$forward@AEBD@std@@YAAEBDAEBD@Z
	??$forward@AEBH@std@@YAAEBHAEBH@Z
	??$forward@AEBI@std@@YAAEBIAEBI@Z
	??$forward@AEBQEAD@std@@YAAEBQEADAEBQEAD@Z
	??$forward@AEBQEAPEAVLayer@Engine@@@std@@YAAEBQEAPEAVLayer@Engine@@AEBQEAPEAV12@@Z
	??$forward@AEBQEAU?$_List_node@U?$pair@$$CBDV?$unique_ptr@Vcustom_flag_formatter@spdlog@@U?$default_delete@Vcustom_flag_formatter@spdlog@@@std@@@std@@@std@@PEAX@std@@@std@@YAAEBQEAU?$_List_node@U?$pair@$$CBDV?$unique_ptr@Vcustom_flag_formatter@spdlog@@U?$default_delete@Vcustom_flag_formatter@spdlog@@@std@@@std@@@std@@PEAX@0@AEBQEAU10@@Z
	??$forward@AEBQEAU?$_List_node@U?$pair@$$CBV?$basic_string@DU?$char_traits@D@std@@V?$allocator@D@2@@std@@V?$shared_ptr@Vlogger@spdlog@@@2@@std@@PEAX@std@@@std@@YAAEBQEAU?$_List_node@U?$pair@$$CBV?$basic_string@DU?$char_traits@D@std@@V?$allocator@D@2@@std@@V?$shared_ptr@Vlogger@spdlog@@@2@@std@@PEAX@0@AEBQEAU10@@Z
	??$forward@AEBQEAU?$_Tree_node@U?$pair@$$CBV?$basic_string@DU?$char_traits@D@std@@V?$allocator@D@2@@std@@V12@@std@@PEAX@std@@@std@@YAAEBQEAU?$_Tree_node@U?$pair@$$CBV?$basic_string@DU?$char_traits@D@std@@V?$allocator@D@2@@std@@V12@@std@@PEAX@0@AEBQEAU10@@Z
	??$forward@AEBQEAV?$shared_ptr@Vsink@sinks@spdlog@@@std@@@std@@YAAEBQEAV?$shared_ptr@Vsink@sinks@spdlog@@@0@AEBQEAV10@@Z
	??$forward@AEBU?$_Ph@$00@std@@@std@@YAAEBU?$_Ph@$00@0@AEBU10@@Z
	??$forward@AEBU?$less@V?$basic_string@DU?$char_traits@D@std@@V?$allocator@D@2@@std@@@std@@@std@@YAAEBU?$less@V?$basic_string@DU?$char_traits@D@std@@V?$allocator@D@2@@std@@@0@AEBU10@@Z
	??$forward@AEBUpiecewise_construct_t@std@@@std@@YAAEBUpiecewise_construct_t@0@AEBU10@@Z
	??$forward@AEBV?$_Binder@U_Unforced@std@@P8Application@Engine@@EAAXAEAVEvent@4@@ZPEAV34@AEBU?$_Ph@$00@2@@std@@@std@@YAAEBV?$_Binder@U_Unforced@std@@P8Application@Engine@@EAAXAEAVEvent@4@@ZPEAV34@AEBU?$_Ph@$00@2@@0@AEBV10@@Z
	??$forward@AEBV?$_Binder@U_Unforced@std@@P8Application@Engine@@EAA_NAEAVWindowCloseEvent@4@@ZPEAV34@AEBU?$_Ph@$00@2@@std@@@std@@YAAEBV?$_Binder@U_Unforced@std@@P8Application@Engine@@EAA_NAEAVWindowCloseEvent@4@@ZPEAV34@AEBU?$_Ph@$00@2@@0@AEBV10@@Z
	??$forward@AEBV?$_Binder@U_Unforced@std@@P8ImGuiLayer@Engine@@EAA_NAEAVKeyPressedEvent@4@@ZPEAV34@AEBU?$_Ph@$00@2@@std@@@std@@YAAEBV?$_Binder@U_Unforced@std@@P8ImGuiLayer@Engine@@EAA_NAEAVKeyPressedEvent@4@@ZPEAV34@AEBU?$_Ph@$00@2@@0@AEBV10@@Z
	??$forward@AEBV?$_Binder@U_Unforced@std@@P8ImGuiLayer@Engine@@EAA_NAEAVKeyReleasedEvent@4@@ZPEAV34@AEBU?$_Ph@$00@2@@std@@@std@@YAAEBV?$_Binder@U_Unforced@std@@P8ImGuiLayer@Engine@@EAA_NAEAVKeyReleasedEvent@4@@ZPEAV34@AEBU?$_Ph@$00@2@@0@AEBV10@@Z
	??$forward@AEBV?$_Binder@U_Unforced@std@@P8ImGuiLayer@Engine@@EAA_NAEAVKeyTypedEvent@4@@ZPEAV34@AEBU?$_Ph@$00@2@@std@@@std@@YAAEBV?$_Binder@U_Unforced@std@@P8ImGuiLayer@Engine@@EAA_NAEAVKeyTypedEvent@4@@ZPEAV34@AEBU?$_Ph@$00@2@@0@AEBV10@@Z
	??$forward@AEBV?$_Binder@U_Unforced@std@@P8ImGuiLayer@Engine@@EAA_NAEAVMouseButtonPressedEvent@4@@ZPEAV34@AEBU?$_Ph@$00@2@@std@@@std@@YAAEBV?$_Binder@U_Unforced@std@@P8ImGuiLayer@Engine@@EAA_NAEAVMouseButtonPressedEvent@4@@ZPEAV34@AEBU?$_Ph@$00@2@@0@AEBV10@@Z
	??$forward@AEBV?$_Binder@U_Unforced@std@@P8ImGuiLayer@Engine@@EAA_NAEAVMouseButtonReleasedEvent@4@@ZPEAV34@AEBU?$_Ph@$00@2@@std@@@std@@YAAEBV?$_Binder@U_Unforced@std@@P8ImGuiLayer@Engine@@EAA_NAEAVMouseButtonReleasedEvent@4@@ZPEAV34@AEBU?$_Ph@$00@2@@0@AEBV10@@Z
	??$forward@AEBV?$_Binder@U_Unforced@std@@P8ImGuiLayer@Engine@@EAA_NAEAVMouseMovedEvent@4@@ZPEAV34@AEBU?$_Ph@$00@2@@std@@@std@@YAAEBV?$_Binder@U_Unforced@std@@P8ImGuiLayer@Engine@@EAA_NAEAVMouseMovedEvent@4@@ZPEAV34@AEBU?$_Ph@$00@2@@0@AEBV10@@Z
	??$forward@AEBV?$_Binder@U_Unforced@std@@P8ImGuiLayer@Engine@@EAA_NAEAVMouseScrolledEvent@4@@ZPEAV34@AEBU?$_Ph@$00@2@@std@@@std@@YAAEBV?$_Binder@U_Unforced@std@@P8ImGuiLayer@Engine@@EAA_NAEAVMouseScrolledEvent@4@@ZPEAV34@AEBU?$_Ph@$00@2@@0@AEBV10@@Z
	??$forward@AEBV?$_Binder@U_Unforced@std@@P8ImGuiLayer@Engine@@EAA_NAEAVWindowResizeEvent@4@@ZPEAV34@AEBU?$_Ph@$00@2@@std@@@std@@YAAEBV?$_Binder@U_Unforced@std@@P8ImGuiLayer@Engine@@EAA_NAEAVWindowResizeEvent@4@@ZPEAV34@AEBU?$_Ph@$00@2@@0@AEBV10@@Z
	??$forward@AEBV?$_List_unchecked_iterator@V?$_List_val@U?$_List_simple_types@U?$pair@$$CBDV?$unique_ptr@Vcustom_flag_formatter@spdlog@@U?$default_delete@Vcustom_flag_formatter@spdlog@@@std@@@std@@@std@@@std@@@std@@@std@@@std@@YAAEBV?$_List_unchecked_iterator@V?$_List_val@U?$_List_simple_types@U?$pair@$$CBDV?$unique_ptr@Vcustom_flag_formatter@spdlog@@U?$default_delete@Vcustom_flag_formatter@spdlog@@@std@@@std@@@std@@@std@@@std@@@0@AEBV10@@Z
	??$forward@AEBV?$_List_unchecked_iterator@V?$_List_val@U?$_List_simple_types@U?$pair@$$CBV?$basic_string@DU?$char_traits@D@std@@V?$allocator@D@2@@std@@V?$shared_ptr@Vlogger@spdlog@@@2@@std@@@std@@@std@@@std@@@std@@YAAEBV?$_List_unchecked_iterator@V?$_List_val@U?$_List_simple_types@U?$pair@$$CBV?$basic_string@DU?$char_traits@D@std@@V?$allocator@D@2@@std@@V?$shared_ptr@Vlogger@spdlog@@@2@@std@@@std@@@std@@@0@AEBV10@@Z
	??$forward@AEBV?$_List_unchecked_iterator@V?$_List_val@U?$_List_simple_types@U?$pair@$$CBV?$basic_string@DU?$char_traits@D@std@@V?$allocator@D@2@@std@@W4level_enum@level@spdlog@@@std@@@std@@@std@@@std@@@std@@YAAEBV?$_List_unchecked_iterator@V?$_List_val@U?$_List_simple_types@U?$pair@$$CBV?$basic_string@DU?$char_traits@D@std@@V?$allocator@D@2@@std@@W4level_enum@level@spdlog@@@std@@@std@@@std@@@0@AEBV10@@Z
	??$forward@AEBV?$allocator@D@std@@@std@@YAAEBV?$allocator@D@0@AEBV10@@Z
	??$forward@AEBV?$allocator@U?$pair@$$CBDV?$unique_ptr@Vcustom_flag_formatter@spdlog@@U?$default_delete@Vcustom_flag_formatter@spdlog@@@std@@@std@@@std@@@std@@@std@@YAAEBV?$allocator@U?$pair@$$CBDV?$unique_ptr@Vcustom_flag_formatter@spdlog@@U?$default_delete@Vcustom_flag_formatter@spdlog@@@std@@@std@@@std@@@0@AEBV10@@Z
	??$forward@AEBV?$allocator@U?$pair@$$CBV?$basic_string@DU?$char_traits@D@std@@V?$allocator@D@2@@std@@V?$shared_ptr@Vlogger@spdlog@@@2@@std@@@std@@@std@@YAAEBV?$allocator@U?$pair@$$CBV?$basic_string@DU?$char_traits@D@std@@V?$allocator@D@2@@std@@V?$shared_ptr@Vlogger@spdlog@@@2@@std@@@0@AEBV10@@Z
	??$forward@AEBV?$allocator@U?$pair@$$CBV?$basic_string@DU?$char_traits@D@std@@V?$allocator@D@2@@std@@W4level_enum@level@spdlog@@@std@@@std@@@std@@YAAEBV?$allocator@U?$pair@$$CBV?$basic_string@DU?$char_traits@D@std@@V?$allocator@D@2@@std@@W4level_enum@level@spdlog@@@std@@@0@AEBV10@@Z
	??$forward@AEBV?$allocator@V?$shared_ptr@Vsink@sinks@spdlog@@@std@@@std@@@std@@YAAEBV?$allocator@V?$shared_ptr@Vsink@sinks@spdlog@@@std@@@0@AEBV10@@Z
	??$forward@AEBV?$allocator@Vlog_msg_buffer@details@spdlog@@@std@@@std@@YAAEBV?$allocator@Vlog_msg_buffer@details@spdlog@@@0@AEBV10@@Z
	??$forward@AEBV?$basic_string@DU?$char_traits@D@std@@V?$allocator@D@2@@std@@@std@@YAAEBV?$basic_string@DU?$char_traits@D@std@@V?$allocator@D@2@@0@AEBV10@@Z
	??$forward@AEBV?$shared_ptr@Vsink@sinks@spdlog@@@std@@@std@@YAAEBV?$shared_ptr@Vsink@sinks@spdlog@@@0@AEBV10@@Z
	??$forward@AEBW4pattern_time_type@spdlog@@@std@@YAAEBW4pattern_time_type@spdlog@@AEBW412@@Z
	??$forward@D@std@@YA$$QEADAEAD@Z
	??$forward@M@std@@YA$$QEAMAEAM@Z
	??$forward@P8Application@Engine@@EAAXAEAVEvent@2@@Z@std@@YA$$QEAP8Application@Engine@@EAAXAEAVEvent@2@@ZAEAP812@EAAX0@Z@Z
	??$forward@P8Application@Engine@@EAA_NAEAVWindowCloseEvent@2@@Z@std@@YA$$QEAP8Application@Engine@@EAA_NAEAVWindowCloseEvent@2@@ZAEAP812@EAA_N0@Z@Z
	??$forward@P8ImGuiLayer@Engine@@EAA_NAEAVKeyPressedEvent@2@@Z@std@@YA$$QEAP8ImGuiLayer@Engine@@EAA_NAEAVKeyPressedEvent@2@@ZAEAP812@EAA_N0@Z@Z
	??$forward@P8ImGuiLayer@Engine@@EAA_NAEAVKeyReleasedEvent@2@@Z@std@@YA$$QEAP8ImGuiLayer@Engine@@EAA_NAEAVKeyReleasedEvent@2@@ZAEAP812@EAA_N0@Z@Z
	??$forward@P8ImGuiLayer@Engine@@EAA_NAEAVKeyTypedEvent@2@@Z@std@@YA$$QEAP8ImGuiLayer@Engine@@EAA_NAEAVKeyTypedEvent@2@@ZAEAP812@EAA_N0@Z@Z
	??$forward@P8ImGuiLayer@Engine@@EAA_NAEAVMouseButtonPressedEvent@2@@Z@std@@YA$$QEAP8ImGuiLayer@Engine@@EAA_NAEAVMouseButtonPressedEvent@2@@ZAEAP812@EAA_N0@Z@Z
	??$forward@P8ImGuiLayer@Engine@@EAA_NAEAVMouseButtonReleasedEvent@2@@Z@std@@YA$$QEAP8ImGuiLayer@Engine@@EAA_NAEAVMouseButtonReleasedEvent@2@@ZAEAP812@EAA_N0@Z@Z
	??$forward@P8ImGuiLayer@Engine@@EAA_NAEAVMouseMovedEvent@2@@Z@std@@YA$$QEAP8ImGuiLayer@Engine@@EAA_NAEAVMouseMovedEvent@2@@ZAEAP812@EAA_N0@Z@Z
	??$forward@P8ImGuiLayer@Engine@@EAA_NAEAVMouseScrolledEvent@2@@Z@std@@YA$$QEAP8ImGuiLayer@Engine@@EAA_NAEAVMouseScrolledEvent@2@@ZAEAP812@EAA_N0@Z@Z
	??$forward@P8ImGuiLayer@Engine@@EAA_NAEAVWindowResizeEvent@2@@Z@std@@YA$$QEAP8ImGuiLayer@Engine@@EAA_NAEAVWindowResizeEvent@2@@ZAEAP812@EAA_N0@Z@Z
	??$forward@PEAD@std@@YA$$QEAPEADAEAPEAD@Z
	??$forward@PEAH@std@@YA$$QEAPEAHAEAPEAH@Z
	??$forward@PEAI@std@@YA$$QEAPEAIAEAPEAI@Z
	??$forward@PEAPEAVLayer@Engine@@@std@@YA$$QEAPEAPEAVLayer@Engine@@AEAPEAPEAV12@@Z
	??$forward@PEAU?$_List_node@U?$pair@$$CBDV?$unique_ptr@Vcustom_flag_formatter@spdlog@@U?$default_delete@Vcustom_flag_formatter@spdlog@@@std@@@std@@@std@@PEAX@std@@@std@@YA$$QEAPEAU?$_List_node@U?$pair@$$CBDV?$unique_ptr@Vcustom_flag_formatter@spdlog@@U?$default_delete@Vcustom_flag_formatter@spdlog@@@std@@@std@@@std@@PEAX@0@AEAPEAU10@@Z
	??$forward@PEAU?$_List_node@U?$pair@$$CBV?$basic_string@DU?$char_traits@D@std@@V?$allocator@D@2@@std@@V?$shared_ptr@Vlogger@spdlog@@@2@@std@@PEAX@std@@@std@@YA$$QEAPEAU?$_List_node@U?$pair@$$CBV?$basic_string@DU?$char_traits@D@std@@V?$allocator@D@2@@std@@V?$shared_ptr@Vlogger@spdlog@@@2@@std@@PEAX@0@AEAPEAU10@@Z
	??$forward@PEAU_Container_base12@std@@@std@@YA$$QEAPEAU_Container_base12@0@AEAPEAU10@@Z
	??$forward@PEAV?$A_formatter@Unull_scoped_padder@details@spdlog@@@details@spdlog@@@std@@YA$$QEAPEAV?$A_formatter@Unull_scoped_padder@details@spdlog@@@details@spdlog@@AEAPEAV123@@Z
	??$forward@PEAV?$A_formatter@Vscoped_padder@details@spdlog@@@details@spdlog@@@std@@YA$$QEAPEAV?$A_formatter@Vscoped_padder@details@spdlog@@@details@spdlog@@AEAPEAV123@@Z
	??$forward@PEAV?$B_formatter@Unull_scoped_padder@details@spdlog@@@details@spdlog@@@std@@YA$$QEAPEAV?$B_formatter@Unull_scoped_padder@details@spdlog@@@details@spdlog@@AEAPEAV123@@Z
	??$forward@PEAV?$B_formatter@Vscoped_padder@details@spdlog@@@details@spdlog@@@std@@YA$$QEAPEAV?$B_formatter@Vscoped_padder@details@spdlog@@@details@spdlog@@AEAPEAV123@@Z
	??$forward@PEAV?$C_formatter@Unull_scoped_padder@details@spdlog@@@details@spdlog@@@std@@YA$$QEAPEAV?$C_formatter@Unull_scoped_padder@details@spdlog@@@details@spdlog@@AEAPEAV123@@Z
	??$forward@PEAV?$C_formatter@Vscoped_padder@details@spdlog@@@details@spdlog@@@std@@YA$$QEAPEAV?$C_formatter@Vscoped_padder@details@spdlog@@@details@spdlog@@AEAPEAV123@@Z
	??$forward@PEAV?$D_formatter@Unull_scoped_padder@details@spdlog@@@details@spdlog@@@std@@YA$$QEAPEAV?$D_formatter@Unull_scoped_padder@details@spdlog@@@details@spdlog@@AEAPEAV123@@Z
	??$forward@PEAV?$D_formatter@Vscoped_padder@details@spdlog@@@details@spdlog@@@std@@YA$$QEAPEAV?$D_formatter@Vscoped_padder@details@spdlog@@@details@spdlog@@AEAPEAV123@@Z
	??$forward@PEAV?$E_formatter@Unull_scoped_padder@details@spdlog@@@details@spdlog@@@std@@YA$$QEAPEAV?$E_formatter@Unull_scoped_padder@details@spdlog@@@details@spdlog@@AEAPEAV123@@Z
	??$forward@PEAV?$E_formatter@Vscoped_padder@details@spdlog@@@details@spdlog@@@std@@YA$$QEAPEAV?$E_formatter@Vscoped_padder@details@spdlog@@@details@spdlog@@AEAPEAV123@@Z
	??$forward@PEAV?$F_formatter@Unull_scoped_padder@details@spdlog@@@details@spdlog@@@std@@YA$$QEAPEAV?$F_formatter@Unull_scoped_padder@details@spdlog@@@details@spdlog@@AEAPEAV123@@Z
	??$forward@PEAV?$F_formatter@Vscoped_padder@details@spdlog@@@details@spdlog@@@std@@YA$$QEAPEAV?$F_formatter@Vscoped_padder@details@spdlog@@@details@spdlog@@AEAPEAV123@@Z
	??$forward@PEAV?$H_formatter@Unull_scoped_padder@details@spdlog@@@details@spdlog@@@std@@YA$$QEAPEAV?$H_formatter@Unull_scoped_padder@details@spdlog@@@details@spdlog@@AEAPEAV123@@Z
	??$forward@PEAV?$H_formatter@Vscoped_padder@details@spdlog@@@details@spdlog@@@std@@YA$$QEAPEAV?$H_formatter@Vscoped_padder@details@spdlog@@@details@spdlog@@AEAPEAV123@@Z
	??$forward@PEAV?$I_formatter@Unull_scoped_padder@details@spdlog@@@details@spdlog@@@std@@YA$$QEAPEAV?$I_formatter@Unull_scoped_padder@details@spdlog@@@details@spdlog@@AEAPEAV123@@Z
	??$forward@PEAV?$I_formatter@Vscoped_padder@details@spdlog@@@details@spdlog@@@std@@YA$$QEAPEAV?$I_formatter@Vscoped_padder@details@spdlog@@@details@spdlog@@AEAPEAV123@@Z
	??$forward@PEAV?$M_formatter@Unull_scoped_padder@details@spdlog@@@details@spdlog@@@std@@YA$$QEAPEAV?$M_formatter@Unull_scoped_padder@details@spdlog@@@details@spdlog@@AEAPEAV123@@Z
	??$forward@PEAV?$M_formatter@Vscoped_padder@details@spdlog@@@details@spdlog@@@std@@YA$$QEAPEAV?$M_formatter@Vscoped_padder@details@spdlog@@@details@spdlog@@AEAPEAV123@@Z
	??$forward@PEAV?$R_formatter@Unull_scoped_padder@details@spdlog@@@details@spdlog@@@std@@YA$$QEAPEAV?$R_formatter@Unull_scoped_padder@details@spdlog@@@details@spdlog@@AEAPEAV123@@Z
	??$forward@PEAV?$R_formatter@Vscoped_padder@details@spdlog@@@details@spdlog@@@std@@YA$$QEAPEAV?$R_formatter@Vscoped_padder@details@spdlog@@@details@spdlog@@AEAPEAV123@@Z
	??$forward@PEAV?$S_formatter@Unull_scoped_padder@details@spdlog@@@details@spdlog@@@std@@YA$$QEAPEAV?$S_formatter@Unull_scoped_padder@details@spdlog@@@details@spdlog@@AEAPEAV123@@Z
	??$forward@PEAV?$S_formatter@Vscoped_padder@details@spdlog@@@details@spdlog@@@std@@YA$$QEAPEAV?$S_formatter@Vscoped_padder@details@spdlog@@@details@spdlog@@AEAPEAV123@@Z
	??$forward@PEAV?$T_formatter@Unull_scoped_padder@details@spdlog@@@details@spdlog@@@std@@YA$$QEAPEAV?$T_formatter@Unull_scoped_padder@details@spdlog@@@details@spdlog@@AEAPEAV123@@Z
	??$forward@PEAV?$T_formatter@Vscoped_padder@details@spdlog@@@details@spdlog@@@std@@YA$$QEAPEAV?$T_formatter@Vscoped_padder@details@spdlog@@@details@spdlog@@AEAPEAV123@@Z
	??$forward@PEAV?$Y_formatter@Unull_scoped_padder@details@spdlog@@@details@spdlog@@@std@@YA$$QEAPEAV?$Y_formatter@Unull_scoped_padder@details@spdlog@@@details@spdlog@@AEAPEAV123@@Z
	??$forward@PEAV?$Y_formatter@Vscoped_padder@details@spdlog@@@details@spdlog@@@std@@YA$$QEAPEAV?$Y_formatter@Vscoped_padder@details@spdlog@@@details@spdlog@@AEAPEAV123@@Z
	??$forward@PEAV?$a_formatter@Unull_scoped_padder@details@spdlog@@@details@spdlog@@@std@@YA$$QEAPEAV?$a_formatter@Unull_scoped_padder@details@spdlog@@@details@spdlog@@AEAPEAV123@@Z
	??$forward@PEAV?$a_formatter@Vscoped_padder@details@spdlog@@@details@spdlog@@@std@@YA$$QEAPEAV?$a_formatter@Vscoped_padder@details@spdlog@@@details@spdlog@@AEAPEAV123@@Z
	??$forward@PEAV?$b_formatter@Unull_scoped_padder@details@spdlog@@@details@spdlog@@@std@@YA$$QEAPEAV?$b_formatter@Unull_scoped_padder@details@spdlog@@@details@spdlog@@AEAPEAV123@@Z
	??$forward@PEAV?$b_formatter@Vscoped_padder@details@spdlog@@@details@spdlog@@@std@@YA$$QEAPEAV?$b_formatter@Vscoped_padder@details@spdlog@@@details@spdlog@@AEAPEAV123@@Z
	??$forward@PEAV?$c_formatter@Unull_scoped_padder@details@spdlog@@@details@spdlog@@@std@@YA$$QEAPEAV?$c_formatter@Unull_scoped_padder@details@spdlog@@@details@spdlog@@AEAPEAV123@@Z
	??$forward@PEAV?$c_formatter@Vscoped_padder@details@spdlog@@@details@spdlog@@@std@@YA$$QEAPEAV?$c_formatter@Vscoped_padder@details@spdlog@@@details@spdlog@@AEAPEAV123@@Z
	??$forward@PEAV?$d_formatter@Unull_scoped_padder@details@spdlog@@@details@spdlog@@@std@@YA$$QEAPEAV?$d_formatter@Unull_scoped_padder@details@spdlog@@@details@spdlog@@AEAPEAV123@@Z
	??$forward@PEAV?$d_formatter@Vscoped_padder@details@spdlog@@@details@spdlog@@@std@@YA$$QEAPEAV?$d_formatter@Vscoped_padder@details@spdlog@@@details@spdlog@@AEAPEAV123@@Z
	??$forward@PEAV?$e_formatter@Unull_scoped_padder@details@spdlog@@@details@spdlog@@@std@@YA$$QEAPEAV?$e_formatter@Unull_scoped_padder@details@spdlog@@@details@spdlog@@AEAPEAV123@@Z
	??$forward@PEAV?$e_formatter@Vscoped_padder@details@spdlog@@@details@spdlog@@@std@@YA$$QEAPEAV?$e_formatter@Vscoped_padder@details@spdlog@@@details@spdlog@@AEAPEAV123@@Z
	??$forward@PEAV?$elapsed_formatter@Unull_scoped_padder@details@spdlog@@V?$duration@_JU?$ratio@$00$00@std@@@chrono@std@@@details@spdlog@@@std@@YA$$QEAPEAV?$elapsed_formatter@Unull_scoped_padder@details@spdlog@@V?$duration@_JU?$ratio@$00$00@std@@@chrono@std@@@details@spdlog@@AEAPEAV123@@Z
	??$forward@PEAV?$elapsed_formatter@Unull_scoped_padder@details@spdlog@@V?$duration@_JU?$ratio@$00$0DLJKMKAA@@std@@@chrono@std@@@details@spdlog@@@std@@YA$$QEAPEAV?$elapsed_formatter@Unull_scoped_padder@details@spdlog@@V?$duration@_JU?$ratio@$00$0DLJKMKAA@@std@@@chrono@std@@@details@spdlog@@AEAPEAV123@@Z
	??$forward@PEAV?$elapsed_formatter@Unull_scoped_padder@details@spdlog@@V?$duration@_JU?$ratio@$00$0DOI@@std@@@chrono@std@@@details@spdlog@@@std@@YA$$QEAPEAV?$elapsed_formatter@Unull_scoped_padder@details@spdlog@@V?$duration@_JU?$ratio@$00$0DOI@@std@@@chrono@std@@@details@spdlog@@AEAPEAV123@@Z
	??$forward@PEAV?$elapsed_formatter@Unull_scoped_padder@details@spdlog@@V?$duration@_JU?$ratio@$00$0PECEA@@std@@@chrono@std@@@details@spdlog@@@std@@YA$$QEAPEAV?$elapsed_formatter@Unull_scoped_padder@details@spdlog@@V?$duration@_JU?$ratio@$00$0PECEA@@std@@@chrono@std@@@details@spdlog@@AEAPEAV123@@Z
	??$forward@PEAV?$elapsed_formatter@Vscoped_padder@details@spdlog@@V?$duration@_JU?$ratio@$00$00@std@@@chrono@std@@@details@spdlog@@@std@@YA$$QEAPEAV?$elapsed_formatter@Vscoped_padder@details@spdlog@@V?$duration@_JU?$ratio@$00$00@std@@@chrono@std@@@details@spdlog@@AEAPEAV123@@Z
	??$forward@PEAV?$elapsed_formatter@Vscoped_padder@details@spdlog@@V?$duration@_JU?$ratio@$00$0DLJKMKAA@@std@@@chrono@std@@@details@spdlog@@@std@@YA$$QEAPEAV?$elapsed_formatter@Vscoped_padder@details@spdlog@@V?$duration@_JU?$ratio@$00$0DLJKMKAA@@std@@@chrono@std@@@details@spdlog@@AEAPEAV123@@Z
	??$forward@PEAV?$elapsed_formatter@Vscoped_padder@details@spdlog@@V?$duration@_JU?$ratio@$00$0DOI@@std@@@chrono@std@@@details@spdlog@@@std@@YA$$QEAPEAV?$elapsed_formatter@Vscoped_padder@details@spdlog@@V?$duration@_JU?$ratio@$00$0DOI@@std@@@chrono@std@@@details@spdlog@@AEAPEAV123@@Z
	??$forward@PEAV?$elapsed_formatter@Vscoped_padder@details@spdlog@@V?$duration@_JU?$ratio@$00$0PECEA@@std@@@chrono@std@@@details@spdlog@@@std@@YA$$QEAPEAV?$elapsed_formatter@Vscoped_padder@details@spdlog@@V?$duration@_JU?$ratio@$00$0PECEA@@std@@@chrono@std@@@details@spdlog@@AEAPEAV123@@Z
	??$forward@PEAV?$f_formatter@Unull_scoped_padder@details@spdlog@@@details@spdlog@@@std@@YA$$QEAPEAV?$f_formatter@Unull_scoped_padder@details@spdlog@@@details@spdlog@@AEAPEAV123@@Z
	??$forward@PEAV?$f_formatter@Vscoped_padder@details@spdlog@@@details@spdlog@@@std@@YA$$QEAPEAV?$f_formatter@Vscoped_padder@details@spdlog@@@details@spdlog@@AEAPEAV123@@Z
	??$forward@PEAV?$level_formatter@Unull_scoped_padder@details@spdlog@@@details@spdlog@@@std@@YA$$QEAPEAV?$level_formatter@Unull_scoped_padder@details@spdlog@@@details@spdlog@@AEAPEAV123@@Z
	??$forward@PEAV?$level_formatter@Vscoped_padder@details@spdlog@@@details@spdlog@@@std@@YA$$QEAPEAV?$level_formatter@Vscoped_padder@details@spdlog@@@details@spdlog@@AEAPEAV123@@Z
	??$forward@PEAV?$m_formatter@Unull_scoped_padder@details@spdlog@@@details@spdlog@@@std@@YA$$QEAPEAV?$m_formatter@Unull_scoped_padder@details@spdlog@@@details@spdlog@@AEAPEAV123@@Z
	??$forward@PEAV?$m_formatter@Vscoped_padder@details@spdlog@@@details@spdlog@@@std@@YA$$QEAPEAV?$m_formatter@Vscoped_padder@details@spdlog@@@details@spdlog@@AEAPEAV123@@Z
	??$forward@PEAV?$mdc_formatter@Unull_scoped_padder@details@spdlog@@@details@spdlog@@@std@@YA$$QEAPEAV?$mdc_formatter@Unull_scoped_padder@details@spdlog@@@details@spdlog@@AEAPEAV123@@Z
	??$forward@PEAV?$mdc_formatter@Vscoped_padder@details@spdlog@@@details@spdlog@@@std@@YA$$QEAPEAV?$mdc_formatter@Vscoped_padder@details@spdlog@@@details@spdlog@@AEAPEAV123@@Z
	??$forward@PEAV?$name_formatter@Unull_scoped_padder@details@spdlog@@@details@spdlog@@@std@@YA$$QEAPEAV?$name_formatter@Unull_scoped_padder@details@spdlog@@@details@spdlog@@AEAPEAV123@@Z
	??$forward@PEAV?$name_formatter@Vscoped_padder@details@spdlog@@@details@spdlog@@@std@@YA$$QEAPEAV?$name_formatter@Vscoped_padder@details@spdlog@@@details@spdlog@@AEAPEAV123@@Z
	??$forward@PEAV?$p_formatter@Unull_scoped_padder@details@spdlog@@@details@spdlog@@@std@@YA$$QEAPEAV?$p_formatter@Unull_scoped_padder@details@spdlog@@@details@spdlog@@AEAPEAV123@@Z
	??$forward@PEAV?$p_formatter@Vscoped_padder@details@spdlog@@@details@spdlog@@@std@@YA$$QEAPEAV?$p_formatter@Vscoped_padder@details@spdlog@@@details@spdlog@@AEAPEAV123@@Z
	??$forward@PEAV?$pid_formatter@Unull_scoped_padder@details@spdlog@@@details@spdlog@@@std@@YA$$QEAPEAV?$pid_formatter@Unull_scoped_padder@details@spdlog@@@details@spdlog@@AEAPEAV123@@Z
	??$forward@PEAV?$pid_formatter@Vscoped_padder@details@spdlog@@@details@spdlog@@@std@@YA$$QEAPEAV?$pid_formatter@Vscoped_padder@details@spdlog@@@details@spdlog@@AEAPEAV123@@Z
	??$forward@PEAV?$r_formatter@Unull_scoped_padder@details@spdlog@@@details@spdlog@@@std@@YA$$QEAPEAV?$r_formatter@Unull_scoped_padder@details@spdlog@@@details@spdlog@@AEAPEAV123@@Z
	??$forward@PEAV?$r_formatter@Vscoped_padder@details@spdlog@@@details@spdlog@@@std@@YA$$QEAPEAV?$r_formatter@Vscoped_padder@details@spdlog@@@details@spdlog@@AEAPEAV123@@Z
	??$forward@PEAV?$short_filename_formatter@Unull_scoped_padder@details@spdlog@@@details@spdlog@@@std@@YA$$QEAPEAV?$short_filename_formatter@Unull_scoped_padder@details@spdlog@@@details@spdlog@@AEAPEAV123@@Z
	??$forward@PEAV?$short_filename_formatter@Vscoped_padder@details@spdlog@@@details@spdlog@@@std@@YA$$QEAPEAV?$short_filename_formatter@Vscoped_padder@details@spdlog@@@details@spdlog@@AEAPEAV123@@Z
	??$forward@PEAV?$short_level_formatter@Unull_scoped_padder@details@spdlog@@@details@spdlog@@@std@@YA$$QEAPEAV?$short_level_formatter@Unull_scoped_padder@details@spdlog@@@details@spdlog@@AEAPEAV123@@Z
	??$forward@PEAV?$short_level_formatter@Vscoped_padder@details@spdlog@@@details@spdlog@@@std@@YA$$QEAPEAV?$short_level_formatter@Vscoped_padder@details@spdlog@@@details@spdlog@@AEAPEAV123@@Z
	??$forward@PEAV?$source_filename_formatter@Unull_scoped_padder@details@spdlog@@@details@spdlog@@@std@@YA$$QEAPEAV?$source_filename_formatter@Unull_scoped_padder@details@spdlog@@@details@spdlog@@AEAPEAV123@@Z
	??$forward@PEAV?$source_filename_formatter@Vscoped_padder@details@spdlog@@@details@spdlog@@@std@@YA$$QEAPEAV?$source_filename_formatter@Vscoped_padder@details@spdlog@@@details@spdlog@@AEAPEAV123@@Z
	??$forward@PEAV?$source_funcname_formatter@Unull_scoped_padder@details@spdlog@@@details@spdlog@@@std@@YA$$QEAPEAV?$source_funcname_formatter@Unull_scoped_padder@details@spdlog@@@details@spdlog@@AEAPEAV123@@Z
	??$forward@PEAV?$source_funcname_formatter@Vscoped_padder@details@spdlog@@@details@spdlog@@@std@@YA$$QEAPEAV?$source_funcname_formatter@Vscoped_padder@details@spdlog@@@details@spdlog@@AEAPEAV123@@Z
	??$forward@PEAV?$source_linenum_formatter@Unull_scoped_padder@details@spdlog@@@details@spdlog@@@std@@YA$$QEAPEAV?$source_linenum_formatter@Unull_scoped_padder@details@spdlog@@@details@spdlog@@AEAPEAV123@@Z
	??$forward@PEAV?$source_linenum_formatter@Vscoped_padder@details@spdlog@@@details@spdlog@@@std@@YA$$QEAPEAV?$source_linenum_formatter@Vscoped_padder@details@spdlog@@@details@spdlog@@AEAPEAV123@@Z
	??$forward@PEAV?$source_location_formatter@Unull_scoped_padder@details@spdlog@@@details@spdlog@@@std@@YA$$QEAPEAV?$source_location_formatter@Unull_scoped_padder@details@spdlog@@@details@spdlog@@AEAPEAV123@@Z
	??$forward@PEAV?$source_location_formatter@Vscoped_padder@details@spdlog@@@details@spdlog@@@std@@YA$$QEAPEAV?$source_location_formatter@Vscoped_padder@details@spdlog@@@details@spdlog@@AEAPEAV123@@Z
	??$forward@PEAV?$t_formatter@Unull_scoped_padder@details@spdlog@@@details@spdlog@@@std@@YA$$QEAPEAV?$t_formatter@Unull_scoped_padder@details@spdlog@@@details@spdlog@@AEAPEAV123@@Z
	??$forward@PEAV?$t_formatter@Vscoped_padder@details@spdlog@@@details@spdlog@@@std@@YA$$QEAPEAV?$t_formatter@Vscoped_padder@details@spdlog@@@details@spdlog@@AEAPEAV123@@Z
	??$forward@PEAV?$v_formatter@Unull_scoped_padder@details@spdlog@@@details@spdlog@@@std@@YA$$QEAPEAV?$v_formatter@Unull_scoped_padder@details@spdlog@@@details@spdlog@@AEAPEAV123@@Z
	??$forward@PEAV?$v_formatter@Vscoped_padder@details@spdlog@@@details@spdlog@@@std@@YA$$QEAPEAV?$v_formatter@Vscoped_padder@details@spdlog@@@details@spdlog@@AEAPEAV123@@Z
	??$forward@PEAV?$z_formatter@Unull_scoped_padder@details@spdlog@@@details@spdlog@@@std@@YA$$QEAPEAV?$z_formatter@Unull_scoped_padder@details@spdlog@@@details@spdlog@@AEAPEAV123@@Z
	??$forward@PEAV?$z_formatter@Vscoped_padder@details@spdlog@@@details@spdlog@@@std@@YA$$QEAPEAV?$z_formatter@Vscoped_padder@details@spdlog@@@details@spdlog@@AEAPEAV123@@Z
	??$forward@PEAVApplication@Engine@@@std@@YA$$QEAPEAVApplication@Engine@@AEAPEAV12@@Z
	??$forward@PEAVImGuiLayer@Engine@@@std@@YA$$QEAPEAVImGuiLayer@Engine@@AEAPEAV12@@Z
	??$forward@PEAVLayer@Engine@@@std@@YA$$QEAPEAVLayer@Engine@@AEAPEAV12@@Z
	??$forward@PEAVaggregate_formatter@details@spdlog@@@std@@YA$$QEAPEAVaggregate_formatter@details@spdlog@@AEAPEAV123@@Z
	??$forward@PEAVch_formatter@details@spdlog@@@std@@YA$$QEAPEAVch_formatter@details@spdlog@@AEAPEAV123@@Z
	??$forward@PEAVcolor_start_formatter@details@spdlog@@@std@@YA$$QEAPEAVcolor_start_formatter@details@spdlog@@AEAPEAV123@@Z
	??$forward@PEAVcolor_stop_formatter@details@spdlog@@@std@@YA$$QEAPEAVcolor_stop_formatter@details@spdlog@@AEAPEAV123@@Z
	??$forward@PEAVcustom_flag_formatter@spdlog@@@std@@YA$$QEAPEAVcustom_flag_formatter@spdlog@@AEAPEAV12@@Z
	??$forward@PEAVflag_formatter@details@spdlog@@@std@@YA$$QEAPEAVflag_formatter@details@spdlog@@AEAPEAV123@@Z
	??$forward@PEAVformatter@spdlog@@@std@@YA$$QEAPEAVformatter@spdlog@@AEAPEAV12@@Z
	??$forward@PEAVfull_formatter@details@spdlog@@@std@@YA$$QEAPEAVfull_formatter@details@spdlog@@AEAPEAV123@@Z
	??$forward@PEAVpattern_formatter@spdlog@@@std@@YA$$QEAPEAVpattern_formatter@spdlog@@AEAPEAV12@@Z
	??$forward@PEBV?$shared_ptr@Vsink@sinks@spdlog@@@std@@@std@@YA$$QEAPEBV?$shared_ptr@Vsink@sinks@spdlog@@@0@AEAPEBV10@@Z
	??$forward@U?$default_delete@V?$A_formatter@Unull_scoped_padder@details@spdlog@@@details@spdlog@@@std@@@std@@YA$$QEAU?$default_delete@V?$A_formatter@Unull_scoped_padder@details@spdlog@@@details@spdlog@@@0@AEAU10@@Z
	??$forward@U?$default_delete@V?$A_formatter@Vscoped_padder@details@spdlog@@@details@spdlog@@@std@@@std@@YA$$QEAU?$default_delete@V?$A_formatter@Vscoped_padder@details@spdlog@@@details@spdlog@@@0@AEAU10@@Z
	??$forward@U?$default_delete@V?$B_formatter@Unull_scoped_padder@details@spdlog@@@details@spdlog@@@std@@@std@@YA$$QEAU?$default_delete@V?$B_formatter@Unull_scoped_padder@details@spdlog@@@details@spdlog@@@0@AEAU10@@Z
	??$forward@U?$default_delete@V?$B_formatter@Vscoped_padder@details@spdlog@@@details@spdlog@@@std@@@std@@YA$$QEAU?$default_delete@V?$B_formatter@Vscoped_padder@details@spdlog@@@details@spdlog@@@0@AEAU10@@Z
	??$forward@U?$default_delete@V?$C_formatter@Unull_scoped_padder@details@spdlog@@@details@spdlog@@@std@@@std@@YA$$QEAU?$default_delete@V?$C_formatter@Unull_scoped_padder@details@spdlog@@@details@spdlog@@@0@AEAU10@@Z
	??$forward@U?$default_delete@V?$C_formatter@Vscoped_padder@details@spdlog@@@details@spdlog@@@std@@@std@@YA$$QEAU?$default_delete@V?$C_formatter@Vscoped_padder@details@spdlog@@@details@spdlog@@@0@AEAU10@@Z
	??$forward@U?$default_delete@V?$D_formatter@Unull_scoped_padder@details@spdlog@@@details@spdlog@@@std@@@std@@YA$$QEAU?$default_delete@V?$D_formatter@Unull_scoped_padder@details@spdlog@@@details@spdlog@@@0@AEAU10@@Z
	??$forward@U?$default_delete@V?$D_formatter@Vscoped_padder@details@spdlog@@@details@spdlog@@@std@@@std@@YA$$QEAU?$default_delete@V?$D_formatter@Vscoped_padder@details@spdlog@@@details@spdlog@@@0@AEAU10@@Z
	??$forward@U?$default_delete@V?$E_formatter@Unull_scoped_padder@details@spdlog@@@details@spdlog@@@std@@@std@@YA$$QEAU?$default_delete@V?$E_formatter@Unull_scoped_padder@details@spdlog@@@details@spdlog@@@0@AEAU10@@Z
	??$forward@U?$default_delete@V?$E_formatter@Vscoped_padder@details@spdlog@@@details@spdlog@@@std@@@std@@YA$$QEAU?$default_delete@V?$E_formatter@Vscoped_padder@details@spdlog@@@details@spdlog@@@0@AEAU10@@Z
	??$forward@U?$default_delete@V?$F_formatter@Unull_scoped_padder@details@spdlog@@@details@spdlog@@@std@@@std@@YA$$QEAU?$default_delete@V?$F_formatter@Unull_scoped_padder@details@spdlog@@@details@spdlog@@@0@AEAU10@@Z
	??$forward@U?$default_delete@V?$F_formatter@Vscoped_padder@details@spdlog@@@details@spdlog@@@std@@@std@@YA$$QEAU?$default_delete@V?$F_formatter@Vscoped_padder@details@spdlog@@@details@spdlog@@@0@AEAU10@@Z
	??$forward@U?$default_delete@V?$H_formatter@Unull_scoped_padder@details@spdlog@@@details@spdlog@@@std@@@std@@YA$$QEAU?$default_delete@V?$H_formatter@Unull_scoped_padder@details@spdlog@@@details@spdlog@@@0@AEAU10@@Z
	??$forward@U?$default_delete@V?$H_formatter@Vscoped_padder@details@spdlog@@@details@spdlog@@@std@@@std@@YA$$QEAU?$default_delete@V?$H_formatter@Vscoped_padder@details@spdlog@@@details@spdlog@@@0@AEAU10@@Z
	??$forward@U?$default_delete@V?$I_formatter@Unull_scoped_padder@details@spdlog@@@details@spdlog@@@std@@@std@@YA$$QEAU?$default_delete@V?$I_formatter@Unull_scoped_padder@details@spdlog@@@details@spdlog@@@0@AEAU10@@Z
	??$forward@U?$default_delete@V?$I_formatter@Vscoped_padder@details@spdlog@@@details@spdlog@@@std@@@std@@YA$$QEAU?$default_delete@V?$I_formatter@Vscoped_padder@details@spdlog@@@details@spdlog@@@0@AEAU10@@Z
	??$forward@U?$default_delete@V?$M_formatter@Unull_scoped_padder@details@spdlog@@@details@spdlog@@@std@@@std@@YA$$QEAU?$default_delete@V?$M_formatter@Unull_scoped_padder@details@spdlog@@@details@spdlog@@@0@AEAU10@@Z
	??$forward@U?$default_delete@V?$M_formatter@Vscoped_padder@details@spdlog@@@details@spdlog@@@std@@@std@@YA$$QEAU?$default_delete@V?$M_formatter@Vscoped_padder@details@spdlog@@@details@spdlog@@@0@AEAU10@@Z
	??$forward@U?$default_delete@V?$R_formatter@Unull_scoped_padder@details@spdlog@@@details@spdlog@@@std@@@std@@YA$$QEAU?$default_delete@V?$R_formatter@Unull_scoped_padder@details@spdlog@@@details@spdlog@@@0@AEAU10@@Z
	??$forward@U?$default_delete@V?$R_formatter@Vscoped_padder@details@spdlog@@@details@spdlog@@@std@@@std@@YA$$QEAU?$default_delete@V?$R_formatter@Vscoped_padder@details@spdlog@@@details@spdlog@@@0@AEAU10@@Z
	??$forward@U?$default_delete@V?$S_formatter@Unull_scoped_padder@details@spdlog@@@details@spdlog@@@std@@@std@@YA$$QEAU?$default_delete@V?$S_formatter@Unull_scoped_padder@details@spdlog@@@details@spdlog@@@0@AEAU10@@Z
	??$forward@U?$default_delete@V?$S_formatter@Vscoped_padder@details@spdlog@@@details@spdlog@@@std@@@std@@YA$$QEAU?$default_delete@V?$S_formatter@Vscoped_padder@details@spdlog@@@details@spdlog@@@0@AEAU10@@Z
	??$forward@U?$default_delete@V?$T_formatter@Unull_scoped_padder@details@spdlog@@@details@spdlog@@@std@@@std@@YA$$QEAU?$default_delete@V?$T_formatter@Unull_scoped_padder@details@spdlog@@@details@spdlog@@@0@AEAU10@@Z
	??$forward@U?$default_delete@V?$T_formatter@Vscoped_padder@details@spdlog@@@details@spdlog@@@std@@@std@@YA$$QEAU?$default_delete@V?$T_formatter@Vscoped_padder@details@spdlog@@@details@spdlog@@@0@AEAU10@@Z
	??$forward@U?$default_delete@V?$Y_formatter@Unull_scoped_padder@details@spdlog@@@details@spdlog@@@std@@@std@@YA$$QEAU?$default_delete@V?$Y_formatter@Unull_scoped_padder@details@spdlog@@@details@spdlog@@@0@AEAU10@@Z
	??$forward@U?$default_delete@V?$Y_formatter@Vscoped_padder@details@spdlog@@@details@spdlog@@@std@@@std@@YA$$QEAU?$default_delete@V?$Y_formatter@Vscoped_padder@details@spdlog@@@details@spdlog@@@0@AEAU10@@Z
	??$forward@U?$default_delete@V?$a_formatter@Unull_scoped_padder@details@spdlog@@@details@spdlog@@@std@@@std@@YA$$QEAU?$default_delete@V?$a_formatter@Unull_scoped_padder@details@spdlog@@@details@spdlog@@@0@AEAU10@@Z
	??$forward@U?$default_delete@V?$a_formatter@Vscoped_padder@details@spdlog@@@details@spdlog@@@std@@@std@@YA$$QEAU?$default_delete@V?$a_formatter@Vscoped_padder@details@spdlog@@@details@spdlog@@@0@AEAU10@@Z
	??$forward@U?$default_delete@V?$b_formatter@Unull_scoped_padder@details@spdlog@@@details@spdlog@@@std@@@std@@YA$$QEAU?$default_delete@V?$b_formatter@Unull_scoped_padder@details@spdlog@@@details@spdlog@@@0@AEAU10@@Z
	??$forward@U?$default_delete@V?$b_formatter@Vscoped_padder@details@spdlog@@@details@spdlog@@@std@@@std@@YA$$QEAU?$default_delete@V?$b_formatter@Vscoped_padder@details@spdlog@@@details@spdlog@@@0@AEAU10@@Z
	??$forward@U?$default_delete@V?$c_formatter@Unull_scoped_padder@details@spdlog@@@details@spdlog@@@std@@@std@@YA$$QEAU?$default_delete@V?$c_formatter@Unull_scoped_padder@details@spdlog@@@details@spdlog@@@0@AEAU10@@Z
	??$forward@U?$default_delete@V?$c_formatter@Vscoped_padder@details@spdlog@@@details@spdlog@@@std@@@std@@YA$$QEAU?$default_delete@V?$c_formatter@Vscoped_padder@details@spdlog@@@details@spdlog@@@0@AEAU10@@Z
	??$forward@U?$default_delete@V?$d_formatter@Unull_scoped_padder@details@spdlog@@@details@spdlog@@@std@@@std@@YA$$QEAU?$default_delete@V?$d_formatter@Unull_scoped_padder@details@spdlog@@@details@spdlog@@@0@AEAU10@@Z
	??$forward@U?$default_delete@V?$d_formatter@Vscoped_padder@details@spdlog@@@details@spdlog@@@std@@@std@@YA$$QEAU?$default_delete@V?$d_formatter@Vscoped_padder@details@spdlog@@@details@spdlog@@@0@AEAU10@@Z
	??$forward@U?$default_delete@V?$e_formatter@Unull_scoped_padder@details@spdlog@@@details@spdlog@@@std@@@std@@YA$$QEAU?$default_delete@V?$e_formatter@Unull_scoped_padder@details@spdlog@@@details@spdlog@@@0@AEAU10@@Z
	??$forward@U?$default_delete@V?$e_formatter@Vscoped_padder@details@spdlog@@@details@spdlog@@@std@@@std@@YA$$QEAU?$default_delete@V?$e_formatter@Vscoped_padder@details@spdlog@@@details@spdlog@@@0@AEAU10@@Z
	??$forward@U?$default_delete@V?$elapsed_formatter@Unull_scoped_padder@details@spdlog@@V?$duration@_JU?$ratio@$00$00@std@@@chrono@std@@@details@spdlog@@@std@@@std@@YA$$QEAU?$default_delete@V?$elapsed_formatter@Unull_scoped_padder@details@spdlog@@V?$duration@_JU?$ratio@$00$00@std@@@chrono@std@@@details@spdlog@@@0@AEAU10@@Z
	??$forward@U?$default_delete@V?$elapsed_formatter@Unull_scoped_padder@details@spdlog@@V?$duration@_JU?$ratio@$00$0DLJKMKAA@@std@@@chrono@std@@@details@spdlog@@@std@@@std@@YA$$QEAU?$default_delete@V?$elapsed_formatter@Unull_scoped_padder@details@spdlog@@V?$duration@_JU?$ratio@$00$0DLJKMKAA@@std@@@chrono@std@@@details@spdlog@@@0@AEAU10@@Z
	??$forward@U?$default_delete@V?$elapsed_formatter@Unull_scoped_padder@details@spdlog@@V?$duration@_JU?$ratio@$00$0DOI@@std@@@chrono@std@@@details@spdlog@@@std@@@std@@YA$$QEAU?$default_delete@V?$elapsed_formatter@Unull_scoped_padder@details@spdlog@@V?$duration@_JU?$ratio@$00$0DOI@@std@@@chrono@std@@@details@spdlog@@@0@AEAU10@@Z
	??$forward@U?$default_delete@V?$elapsed_formatter@Unull_scoped_padder@details@spdlog@@V?$duration@_JU?$ratio@$00$0PECEA@@std@@@chrono@std@@@details@spdlog@@@std@@@std@@YA$$QEAU?$default_delete@V?$elapsed_formatter@Unull_scoped_padder@details@spdlog@@V?$duration@_JU?$ratio@$00$0PECEA@@std@@@chrono@std@@@details@spdlog@@@0@AEAU10@@Z
	??$forward@U?$default_delete@V?$elapsed_formatter@Vscoped_padder@details@spdlog@@V?$duration@_JU?$ratio@$00$00@std@@@chrono@std@@@details@spdlog@@@std@@@std@@YA$$QEAU?$default_delete@V?$elapsed_formatter@Vscoped_padder@details@spdlog@@V?$duration@_JU?$ratio@$00$00@std@@@chrono@std@@@details@spdlog@@@0@AEAU10@@Z
	??$forward@U?$default_delete@V?$elapsed_formatter@Vscoped_padder@details@spdlog@@V?$duration@_JU?$ratio@$00$0DLJKMKAA@@std@@@chrono@std@@@details@spdlog@@@std@@@std@@YA$$QEAU?$default_delete@V?$elapsed_formatter@Vscoped_padder@details@spdlog@@V?$duration@_JU?$ratio@$00$0DLJKMKAA@@std@@@chrono@std@@@details@spdlog@@@0@AEAU10@@Z
	??$forward@U?$default_delete@V?$elapsed_formatter@Vscoped_padder@details@spdlog@@V?$duration@_JU?$ratio@$00$0DOI@@std@@@chrono@std@@@details@spdlog@@@std@@@std@@YA$$QEAU?$default_delete@V?$elapsed_formatter@Vscoped_padder@details@spdlog@@V?$duration@_JU?$ratio@$00$0DOI@@std@@@chrono@std@@@details@spdlog@@@0@AEAU10@@Z
	??$forward@U?$default_delete@V?$elapsed_formatter@Vscoped_padder@details@spdlog@@V?$duration@_JU?$ratio@$00$0PECEA@@std@@@chrono@std@@@details@spdlog@@@std@@@std@@YA$$QEAU?$default_delete@V?$elapsed_formatter@Vscoped_padder@details@spdlog@@V?$duration@_JU?$ratio@$00$0PECEA@@std@@@chrono@std@@@details@spdlog@@@0@AEAU10@@Z
	??$forward@U?$default_delete@V?$f_formatter@Unull_scoped_padder@details@spdlog@@@details@spdlog@@@std@@@std@@YA$$QEAU?$default_delete@V?$f_formatter@Unull_scoped_padder@details@spdlog@@@details@spdlog@@@0@AEAU10@@Z
	??$forward@U?$default_delete@V?$f_formatter@Vscoped_padder@details@spdlog@@@details@spdlog@@@std@@@std@@YA$$QEAU?$default_delete@V?$f_formatter@Vscoped_padder@details@spdlog@@@details@spdlog@@@0@AEAU10@@Z
	??$forward@U?$default_delete@V?$level_formatter@Unull_scoped_padder@details@spdlog@@@details@spdlog@@@std@@@std@@YA$$QEAU?$default_delete@V?$level_formatter@Unull_scoped_padder@details@spdlog@@@details@spdlog@@@0@AEAU10@@Z
	??$forward@U?$default_delete@V?$level_formatter@Vscoped_padder@details@spdlog@@@details@spdlog@@@std@@@std@@YA$$QEAU?$default_delete@V?$level_formatter@Vscoped_padder@details@spdlog@@@details@spdlog@@@0@AEAU10@@Z
	??$forward@U?$default_delete@V?$m_formatter@Unull_scoped_padder@details@spdlog@@@details@spdlog@@@std@@@std@@YA$$QEAU?$default_delete@V?$m_formatter@Unull_scoped_padder@details@spdlog@@@details@spdlog@@@0@AEAU10@@Z
	??$forward@U?$default_delete@V?$m_formatter@Vscoped_padder@details@spdlog@@@details@spdlog@@@std@@@std@@YA$$QEAU?$default_delete@V?$m_formatter@Vscoped_padder@details@spdlog@@@details@spdlog@@@0@AEAU10@@Z
	??$forward@U?$default_delete@V?$mdc_formatter@Unull_scoped_padder@details@spdlog@@@details@spdlog@@@std@@@std@@YA$$QEAU?$default_delete@V?$mdc_formatter@Unull_scoped_padder@details@spdlog@@@details@spdlog@@@0@AEAU10@@Z
	??$forward@U?$default_delete@V?$mdc_formatter@Vscoped_padder@details@spdlog@@@details@spdlog@@@std@@@std@@YA$$QEAU?$default_delete@V?$mdc_formatter@Vscoped_padder@details@spdlog@@@details@spdlog@@@0@AEAU10@@Z
	??$forward@U?$default_delete@V?$name_formatter@Unull_scoped_padder@details@spdlog@@@details@spdlog@@@std@@@std@@YA$$QEAU?$default_delete@V?$name_formatter@Unull_scoped_padder@details@spdlog@@@details@spdlog@@@0@AEAU10@@Z
	??$forward@U?$default_delete@V?$name_formatter@Vscoped_padder@details@spdlog@@@details@spdlog@@@std@@@std@@YA$$QEAU?$default_delete@V?$name_formatter@Vscoped_padder@details@spdlog@@@details@spdlog@@@0@AEAU10@@Z
	??$forward@U?$default_delete@V?$p_formatter@Unull_scoped_padder@details@spdlog@@@details@spdlog@@@std@@@std@@YA$$QEAU?$default_delete@V?$p_formatter@Unull_scoped_padder@details@spdlog@@@details@spdlog@@@0@AEAU10@@Z
	??$forward@U?$default_delete@V?$p_formatter@Vscoped_padder@details@spdlog@@@details@spdlog@@@std@@@std@@YA$$QEAU?$default_delete@V?$p_formatter@Vscoped_padder@details@spdlog@@@details@spdlog@@@0@AEAU10@@Z
	??$forward@U?$default_delete@V?$pid_formatter@Unull_scoped_padder@details@spdlog@@@details@spdlog@@@std@@@std@@YA$$QEAU?$default_delete@V?$pid_formatter@Unull_scoped_padder@details@spdlog@@@details@spdlog@@@0@AEAU10@@Z
	??$forward@U?$default_delete@V?$pid_formatter@Vscoped_padder@details@spdlog@@@details@spdlog@@@std@@@std@@YA$$QEAU?$default_delete@V?$pid_formatter@Vscoped_padder@details@spdlog@@@details@spdlog@@@0@AEAU10@@Z
	??$forward@U?$default_delete@V?$r_formatter@Unull_scoped_padder@details@spdlog@@@details@spdlog@@@std@@@std@@YA$$QEAU?$default_delete@V?$r_formatter@Unull_scoped_padder@details@spdlog@@@details@spdlog@@@0@AEAU10@@Z
	??$forward@U?$default_delete@V?$r_formatter@Vscoped_padder@details@spdlog@@@details@spdlog@@@std@@@std@@YA$$QEAU?$default_delete@V?$r_formatter@Vscoped_padder@details@spdlog@@@details@spdlog@@@0@AEAU10@@Z
	??$forward@U?$default_delete@V?$short_filename_formatter@Unull_scoped_padder@details@spdlog@@@details@spdlog@@@std@@@std@@YA$$QEAU?$default_delete@V?$short_filename_formatter@Unull_scoped_padder@details@spdlog@@@details@spdlog@@@0@AEAU10@@Z
	??$forward@U?$default_delete@V?$short_filename_formatter@Vscoped_padder@details@spdlog@@@details@spdlog@@@std@@@std@@YA$$QEAU?$default_delete@V?$short_filename_formatter@Vscoped_padder@details@spdlog@@@details@spdlog@@@0@AEAU10@@Z
	??$forward@U?$default_delete@V?$short_level_formatter@Unull_scoped_padder@details@spdlog@@@details@spdlog@@@std@@@std@@YA$$QEAU?$default_delete@V?$short_level_formatter@Unull_scoped_padder@details@spdlog@@@details@spdlog@@@0@AEAU10@@Z
	??$forward@U?$default_delete@V?$short_level_formatter@Vscoped_padder@details@spdlog@@@details@spdlog@@@std@@@std@@YA$$QEAU?$default_delete@V?$short_level_formatter@Vscoped_padder@details@spdlog@@@details@spdlog@@@0@AEAU10@@Z
	??$forward@U?$default_delete@V?$source_filename_formatter@Unull_scoped_padder@details@spdlog@@@details@spdlog@@@std@@@std@@YA$$QEAU?$default_delete@V?$source_filename_formatter@Unull_scoped_padder@details@spdlog@@@details@spdlog@@@0@AEAU10@@Z
	??$forward@U?$default_delete@V?$source_filename_formatter@Vscoped_padder@details@spdlog@@@details@spdlog@@@std@@@std@@YA$$QEAU?$default_delete@V?$source_filename_formatter@Vscoped_padder@details@spdlog@@@details@spdlog@@@0@AEAU10@@Z
	??$forward@U?$default_delete@V?$source_funcname_formatter@Unull_scoped_padder@details@spdlog@@@details@spdlog@@@std@@@std@@YA$$QEAU?$default_delete@V?$source_funcname_formatter@Unull_scoped_padder@details@spdlog@@@details@spdlog@@@0@AEAU10@@Z
	??$forward@U?$default_delete@V?$source_funcname_formatter@Vscoped_padder@details@spdlog@@@details@spdlog@@@std@@@std@@YA$$QEAU?$default_delete@V?$source_funcname_formatter@Vscoped_padder@details@spdlog@@@details@spdlog@@@0@AEAU10@@Z
	??$forward@U?$default_delete@V?$source_linenum_formatter@Unull_scoped_padder@details@spdlog@@@details@spdlog@@@std@@@std@@YA$$QEAU?$default_delete@V?$source_linenum_formatter@Unull_scoped_padder@details@spdlog@@@details@spdlog@@@0@AEAU10@@Z
	??$forward@U?$default_delete@V?$source_linenum_formatter@Vscoped_padder@details@spdlog@@@details@spdlog@@@std@@@std@@YA$$QEAU?$default_delete@V?$source_linenum_formatter@Vscoped_padder@details@spdlog@@@details@spdlog@@@0@AEAU10@@Z
	??$forward@U?$default_delete@V?$source_location_formatter@Unull_scoped_padder@details@spdlog@@@details@spdlog@@@std@@@std@@YA$$QEAU?$default_delete@V?$source_location_formatter@Unull_scoped_padder@details@spdlog@@@details@spdlog@@@0@AEAU10@@Z
	??$forward@U?$default_delete@V?$source_location_formatter@Vscoped_padder@details@spdlog@@@details@spdlog@@@std@@@std@@YA$$QEAU?$default_delete@V?$source_location_formatter@Vscoped_padder@details@spdlog@@@details@spdlog@@@0@AEAU10@@Z
	??$forward@U?$default_delete@V?$t_formatter@Unull_scoped_padder@details@spdlog@@@details@spdlog@@@std@@@std@@YA$$QEAU?$default_delete@V?$t_formatter@Unull_scoped_padder@details@spdlog@@@details@spdlog@@@0@AEAU10@@Z
	??$forward@U?$default_delete@V?$t_formatter@Vscoped_padder@details@spdlog@@@details@spdlog@@@std@@@std@@YA$$QEAU?$default_delete@V?$t_formatter@Vscoped_padder@details@spdlog@@@details@spdlog@@@0@AEAU10@@Z
	??$forward@U?$default_delete@V?$v_formatter@Unull_scoped_padder@details@spdlog@@@details@spdlog@@@std@@@std@@YA$$QEAU?$default_delete@V?$v_formatter@Unull_scoped_padder@details@spdlog@@@details@spdlog@@@0@AEAU10@@Z
	??$forward@U?$default_delete@V?$v_formatter@Vscoped_padder@details@spdlog@@@details@spdlog@@@std@@@std@@YA$$QEAU?$default_delete@V?$v_formatter@Vscoped_padder@details@spdlog@@@details@spdlog@@@0@AEAU10@@Z
	??$forward@U?$default_delete@V?$z_formatter@Unull_scoped_padder@details@spdlog@@@details@spdlog@@@std@@@std@@YA$$QEAU?$default_delete@V?$z_formatter@Unull_scoped_padder@details@spdlog@@@details@spdlog@@@0@AEAU10@@Z
	??$forward@U?$default_delete@V?$z_formatter@Vscoped_padder@details@spdlog@@@details@spdlog@@@std@@@std@@YA$$QEAU?$default_delete@V?$z_formatter@Vscoped_padder@details@spdlog@@@details@spdlog@@@0@AEAU10@@Z
	??$forward@U?$default_delete@VWindow@Engine@@@std@@@std@@YA$$QEAU?$default_delete@VWindow@Engine@@@0@AEAU10@@Z
	??$forward@U?$default_delete@Vaggregate_formatter@details@spdlog@@@std@@@std@@YA$$QEAU?$default_delete@Vaggregate_formatter@details@spdlog@@@0@AEAU10@@Z
	??$forward@U?$default_delete@Vch_formatter@details@spdlog@@@std@@@std@@YA$$QEAU?$default_delete@Vch_formatter@details@spdlog@@@0@AEAU10@@Z
	??$forward@U?$default_delete@Vcolor_start_formatter@details@spdlog@@@std@@@std@@YA$$QEAU?$default_delete@Vcolor_start_formatter@details@spdlog@@@0@AEAU10@@Z
	??$forward@U?$default_delete@Vcolor_stop_formatter@details@spdlog@@@std@@@std@@YA$$QEAU?$default_delete@Vcolor_stop_formatter@details@spdlog@@@0@AEAU10@@Z
	??$forward@U?$default_delete@Vcustom_flag_formatter@spdlog@@@std@@@std@@YA$$QEAU?$default_delete@Vcustom_flag_formatter@spdlog@@@0@AEAU10@@Z
	??$forward@U?$default_delete@Vflag_formatter@details@spdlog@@@std@@@std@@YA$$QEAU?$default_delete@Vflag_formatter@details@spdlog@@@0@AEAU10@@Z
	??$forward@U?$default_delete@Vformatter@spdlog@@@std@@@std@@YA$$QEAU?$default_delete@Vformatter@spdlog@@@0@AEAU10@@Z
	??$forward@U?$default_delete@Vfull_formatter@details@spdlog@@@std@@@std@@YA$$QEAU?$default_delete@Vfull_formatter@details@spdlog@@@0@AEAU10@@Z
	??$forward@U?$default_delete@Vpattern_formatter@spdlog@@@std@@@std@@YA$$QEAU?$default_delete@Vpattern_formatter@spdlog@@@0@AEAU10@@Z
	??$forward@U_Zero_then_variadic_args_t@std@@@std@@YA$$QEAU_Zero_then_variadic_args_t@0@AEAU10@@Z
	??$forward@Upadding_info@details@spdlog@@@std@@YA$$QEAUpadding_info@details@spdlog@@AEAU123@@Z
	??$forward@V?$_Binder@U_Unforced@std@@P8Application@Engine@@EAAXAEAVEvent@4@@ZPEAV34@AEBU?$_Ph@$00@2@@std@@@std@@YA$$QEAV?$_Binder@U_Unforced@std@@P8Application@Engine@@EAAXAEAVEvent@4@@ZPEAV34@AEBU?$_Ph@$00@2@@0@AEAV10@@Z
	??$forward@V?$_Binder@U_Unforced@std@@P8Application@Engine@@EAA_NAEAVWindowCloseEvent@4@@ZPEAV34@AEBU?$_Ph@$00@2@@std@@@std@@YA$$QEAV?$_Binder@U_Unforced@std@@P8Application@Engine@@EAA_NAEAVWindowCloseEvent@4@@ZPEAV34@AEBU?$_Ph@$00@2@@0@AEAV10@@Z
	??$forward@V?$_Binder@U_Unforced@std@@P8ImGuiLayer@Engine@@EAA_NAEAVKeyPressedEvent@4@@ZPEAV34@AEBU?$_Ph@$00@2@@std@@@std@@YA$$QEAV?$_Binder@U_Unforced@std@@P8ImGuiLayer@Engine@@EAA_NAEAVKeyPressedEvent@4@@ZPEAV34@AEBU?$_Ph@$00@2@@0@AEAV10@@Z
	??$forward@V?$_Binder@U_Unforced@std@@P8ImGuiLayer@Engine@@EAA_NAEAVKeyReleasedEvent@4@@ZPEAV34@AEBU?$_Ph@$00@2@@std@@@std@@YA$$QEAV?$_Binder@U_Unforced@std@@P8ImGuiLayer@Engine@@EAA_NAEAVKeyReleasedEvent@4@@ZPEAV34@AEBU?$_Ph@$00@2@@0@AEAV10@@Z
	??$forward@V?$_Binder@U_Unforced@std@@P8ImGuiLayer@Engine@@EAA_NAEAVKeyTypedEvent@4@@ZPEAV34@AEBU?$_Ph@$00@2@@std@@@std@@YA$$QEAV?$_Binder@U_Unforced@std@@P8ImGuiLayer@Engine@@EAA_NAEAVKeyTypedEvent@4@@ZPEAV34@AEBU?$_Ph@$00@2@@0@AEAV10@@Z
	??$forward@V?$_Binder@U_Unforced@std@@P8ImGuiLayer@Engine@@EAA_NAEAVMouseButtonPressedEvent@4@@ZPEAV34@AEBU?$_Ph@$00@2@@std@@@std@@YA$$QEAV?$_Binder@U_Unforced@std@@P8ImGuiLayer@Engine@@EAA_NAEAVMouseButtonPressedEvent@4@@ZPEAV34@AEBU?$_Ph@$00@2@@0@AEAV10@@Z
	??$forward@V?$_Binder@U_Unforced@std@@P8ImGuiLayer@Engine@@EAA_NAEAVMouseButtonReleasedEvent@4@@ZPEAV34@AEBU?$_Ph@$00@2@@std@@@std@@YA$$QEAV?$_Binder@U_Unforced@std@@P8ImGuiLayer@Engine@@EAA_NAEAVMouseButtonReleasedEvent@4@@ZPEAV34@AEBU?$_Ph@$00@2@@0@AEAV10@@Z
	??$forward@V?$_Binder@U_Unforced@std@@P8ImGuiLayer@Engine@@EAA_NAEAVMouseMovedEvent@4@@ZPEAV34@AEBU?$_Ph@$00@2@@std@@@std@@YA$$QEAV?$_Binder@U_Unforced@std@@P8ImGuiLayer@Engine@@EAA_NAEAVMouseMovedEvent@4@@ZPEAV34@AEBU?$_Ph@$00@2@@0@AEAV10@@Z
	??$forward@V?$_Binder@U_Unforced@std@@P8ImGuiLayer@Engine@@EAA_NAEAVMouseScrolledEvent@4@@ZPEAV34@AEBU?$_Ph@$00@2@@std@@@std@@YA$$QEAV?$_Binder@U_Unforced@std@@P8ImGuiLayer@Engine@@EAA_NAEAVMouseScrolledEvent@4@@ZPEAV34@AEBU?$_Ph@$00@2@@0@AEAV10@@Z
	??$forward@V?$_Binder@U_Unforced@std@@P8ImGuiLayer@Engine@@EAA_NAEAVWindowResizeEvent@4@@ZPEAV34@AEBU?$_Ph@$00@2@@std@@@std@@YA$$QEAV?$_Binder@U_Unforced@std@@P8ImGuiLayer@Engine@@EAA_NAEAVWindowResizeEvent@4@@ZPEAV34@AEBU?$_Ph@$00@2@@0@AEAV10@@Z
	??$forward@V?$allocator@D@std@@@std@@YA$$QEAV?$allocator@D@0@AEAV10@@Z
	??$forward@V?$allocator@PEAVLayer@Engine@@@std@@@std@@YA$$QEAV?$allocator@PEAVLayer@Engine@@@0@AEAV10@@Z
	??$forward@V?$allocator@U?$_List_node@U?$pair@$$CBDV?$unique_ptr@Vcustom_flag_formatter@spdlog@@U?$default_delete@Vcustom_flag_formatter@spdlog@@@std@@@std@@@std@@PEAX@std@@@std@@@std@@YA$$QEAV?$allocator@U?$_List_node@U?$pair@$$CBDV?$unique_ptr@Vcustom_flag_formatter@spdlog@@U?$default_delete@Vcustom_flag_formatter@spdlog@@@std@@@std@@@std@@PEAX@std@@@0@AEAV10@@Z
	??$forward@V?$allocator@V?$_List_unchecked_iterator@V?$_List_val@U?$_List_simple_types@U?$pair@$$CBDV?$unique_ptr@Vcustom_flag_formatter@spdlog@@U?$default_delete@Vcustom_flag_formatter@spdlog@@@std@@@std@@@std@@@std@@@std@@@std@@@std@@@std@@YA$$QEAV?$allocator@V?$_List_unchecked_iterator@V?$_List_val@U?$_List_simple_types@U?$pair@$$CBDV?$unique_ptr@Vcustom_flag_formatter@spdlog@@U?$default_delete@Vcustom_flag_formatter@spdlog@@@std@@@std@@@std@@@std@@@std@@@std@@@0@AEAV10@@Z
	??$forward@V?$allocator@V?$shared_ptr@Vsink@sinks@spdlog@@@std@@@std@@@std@@YA$$QEAV?$allocator@V?$shared_ptr@Vsink@sinks@spdlog@@@std@@@0@AEAV10@@Z
	??$forward@V?$basic_string@DU?$char_traits@D@std@@V?$allocator@D@2@@std@@@std@@YA$$QEAV?$basic_string@DU?$char_traits@D@std@@V?$allocator@D@2@@0@AEAV10@@Z
	??$forward@V?$shared_ptr@V?$wincolor_stdout_sink@Uconsole_mutex@details@spdlog@@@sinks@spdlog@@@std@@@std@@YA$$QEAV?$shared_ptr@V?$wincolor_stdout_sink@Uconsole_mutex@details@spdlog@@@sinks@spdlog@@@0@AEAV10@@Z
	??$forward@V?$tuple@$$QEAV?$basic_string@DU?$char_traits@D@std@@V?$allocator@D@2@@std@@@std@@@std@@YA$$QEAV?$tuple@$$QEAV?$basic_string@DU?$char_traits@D@std@@V?$allocator@D@2@@std@@@0@AEAV10@@Z
	??$forward@V?$tuple@$$V@std@@@std@@YA$$QEAV?$tuple@$$V@0@AEAV10@@Z
	??$forward@V?$tuple@AEBD@std@@@std@@YA$$QEAV?$tuple@AEBD@0@AEAV10@@Z
	??$forward@V?$tuple@AEBV?$basic_string@DU?$char_traits@D@std@@V?$allocator@D@2@@std@@@std@@@std@@YA$$QEAV?$tuple@AEBV?$basic_string@DU?$char_traits@D@std@@V?$allocator@D@2@@std@@@0@AEAV10@@Z
	??$forward@V?$unique_ptr@Vflag_formatter@details@spdlog@@U?$default_delete@Vflag_formatter@details@spdlog@@@std@@@std@@@std@@YA$$QEAV?$unique_ptr@Vflag_formatter@details@spdlog@@U?$default_delete@Vflag_formatter@details@spdlog@@@std@@@0@AEAV10@@Z
	??$forward@V?$unordered_map@DV?$unique_ptr@Vcustom_flag_formatter@spdlog@@U?$default_delete@Vcustom_flag_formatter@spdlog@@@std@@@std@@U?$hash@D@2@U?$equal_to@D@2@V?$allocator@U?$pair@$$CBDV?$unique_ptr@Vcustom_flag_formatter@spdlog@@U?$default_delete@Vcustom_flag_formatter@spdlog@@@std@@@std@@@std@@@2@@std@@@std@@YA$$QEAV?$unordered_map@DV?$unique_ptr@Vcustom_flag_formatter@spdlog@@U?$default_delete@Vcustom_flag_formatter@spdlog@@@std@@@std@@U?$hash@D@2@U?$equal_to@D@2@V?$allocator@U?$pair@$$CBDV?$unique_ptr@Vcustom_flag_formatter@spdlog@@U?$default_delete@Vcustom_flag_formatter@spdlog@@@std@@@std@@@std@@@2@@0@AEAV10@@Z
	??$forward@_N@std@@YA$$QEA_NAEA_N@Z
	??$forward_as_tuple@$$V@std@@YA?AV?$tuple@$$V@0@XZ
	??$forward_as_tuple@AEAVEvent@Engine@@@std@@YA?AV?$tuple@AEAVEvent@Engine@@@0@AEAVEvent@Engine@@@Z
	??$forward_as_tuple@AEAVKeyPressedEvent@Engine@@@std@@YA?AV?$tuple@AEAVKeyPressedEvent@Engine@@@0@AEAVKeyPressedEvent@Engine@@@Z
	??$forward_as_tuple@AEAVKeyReleasedEvent@Engine@@@std@@YA?AV?$tuple@AEAVKeyReleasedEvent@Engine@@@0@AEAVKeyReleasedEvent@Engine@@@Z
	??$forward_as_tuple@AEAVKeyTypedEvent@Engine@@@std@@YA?AV?$tuple@AEAVKeyTypedEvent@Engine@@@0@AEAVKeyTypedEvent@Engine@@@Z
	??$forward_as_tuple@AEAVMouseButtonPressedEvent@Engine@@@std@@YA?AV?$tuple@AEAVMouseButtonPressedEvent@Engine@@@0@AEAVMouseButtonPressedEvent@Engine@@@Z
	??$forward_as_tuple@AEAVMouseButtonReleasedEvent@Engine@@@std@@YA?AV?$tuple@AEAVMouseButtonReleasedEvent@Engine@@@0@AEAVMouseButtonReleasedEvent@Engine@@@Z
	??$forward_as_tuple@AEAVMouseMovedEvent@Engine@@@std@@YA?AV?$tuple@AEAVMouseMovedEvent@Engine@@@0@AEAVMouseMovedEvent@Engine@@@Z
	??$forward_as_tuple@AEAVMouseScrolledEvent@Engine@@@std@@YA?AV?$tuple@AEAVMouseScrolledEvent@Engine@@@0@AEAVMouseScrolledEvent@Engine@@@Z
	??$forward_as_tuple@AEAVWindowCloseEvent@Engine@@@std@@YA?AV?$tuple@AEAVWindowCloseEvent@Engine@@@0@AEAVWindowCloseEvent@Engine@@@Z
	??$forward_as_tuple@AEAVWindowResizeEvent@Engine@@@std@@YA?AV?$tuple@AEAVWindowResizeEvent@Engine@@@0@AEAVWindowResizeEvent@Engine@@@Z
	??$forward_as_tuple@AEBD@std@@YA?AV?$tuple@AEBD@0@AEBD@Z
	??$forward_as_tuple@AEBV?$basic_string@DU?$char_traits@D@std@@V?$allocator@D@2@@std@@@std@@YA?AV?$tuple@AEBV?$basic_string@DU?$char_traits@D@std@@V?$allocator@D@2@@std@@@0@AEBV?$basic_string@DU?$char_traits@D@std@@V?$allocator@D@2@@0@@Z
	??$forward_as_tuple@V?$basic_string@DU?$char_traits@D@std@@V?$allocator@D@2@@std@@@std@@YA?AV?$tuple@$$QEAV?$basic_string@DU?$char_traits@D@std@@V?$allocator@D@2@@std@@@0@$$QEAV?$basic_string@DU?$char_traits@D@std@@V?$allocator@D@2@@0@@Z
	??$get@$00PEAVApplication@Engine@@U?$_Ph@$00@std@@@std@@YAAEAU?$_Ph@$00@0@AEAV?$tuple@PEAVApplication@Engine@@U?$_Ph@$00@std@@@0@@Z
	??$get@$00PEAVImGuiLayer@Engine@@U?$_Ph@$00@std@@@std@@YAAEAU?$_Ph@$00@0@AEAV?$tuple@PEAVImGuiLayer@Engine@@U?$_Ph@$00@std@@@0@@Z
	??$get@$0A@AEAVEvent@Engine@@@std@@YAAEAVEvent@Engine@@$$QEAV?$tuple@AEAVEvent@Engine@@@0@@Z
	??$get@$0A@AEAVKeyPressedEvent@Engine@@@std@@YAAEAVKeyPressedEvent@Engine@@$$QEAV?$tuple@AEAVKeyPressedEvent@Engine@@@0@@Z
	??$get@$0A@AEAVKeyReleasedEvent@Engine@@@std@@YAAEAVKeyReleasedEvent@Engine@@$$QEAV?$tuple@AEAVKeyReleasedEvent@Engine@@@0@@Z
	??$get@$0A@AEAVKeyTypedEvent@Engine@@@std@@YAAEAVKeyTypedEvent@Engine@@$$QEAV?$tuple@AEAVKeyTypedEvent@Engine@@@0@@Z
	??$get@$0A@AEAVMouseButtonPressedEvent@Engine@@@std@@YAAEAVMouseButtonPressedEvent@Engine@@$$QEAV?$tuple@AEAVMouseButtonPressedEvent@Engine@@@0@@Z
	??$get@$0A@AEAVMouseButtonReleasedEvent@Engine@@@std@@YAAEAVMouseButtonReleasedEvent@Engine@@$$QEAV?$tuple@AEAVMouseButtonReleasedEvent@Engine@@@0@@Z
	??$get@$0A@AEAVMouseMovedEvent@Engine@@@std@@YAAEAVMouseMovedEvent@Engine@@$$QEAV?$tuple@AEAVMouseMovedEvent@Engine@@@0@@Z
	??$get@$0A@AEAVMouseScrolledEvent@Engine@@@std@@YAAEAVMouseScrolledEvent@Engine@@$$QEAV?$tuple@AEAVMouseScrolledEvent@Engine@@@0@@Z
	??$get@$0A@AEAVWindowCloseEvent@Engine@@@std@@YAAEAVWindowCloseEvent@Engine@@$$QEAV?$tuple@AEAVWindowCloseEvent@Engine@@@0@@Z
	??$get@$0A@AEAVWindowResizeEvent@Engine@@@std@@YAAEAVWindowResizeEvent@Engine@@$$QEAV?$tuple@AEAVWindowResizeEvent@Engine@@@0@@Z
	??$get@$0A@PEAVApplication@Engine@@U?$_Ph@$00@std@@@std@@YAAEAPEAVApplication@Engine@@AEAV?$tuple@PEAVApplication@Engine@@U?$_Ph@$00@std@@@0@@Z
	??$get@$0A@PEAVImGuiLayer@Engine@@U?$_Ph@$00@std@@@std@@YAAEAPEAVImGuiLayer@Engine@@AEAV?$tuple@PEAVImGuiLayer@Engine@@U?$_Ph@$00@std@@@0@@Z
	??$get@D@?$basic_format_args@V?$basic_format_context@Vappender@v9@fmt@@D@v9@fmt@@@v9@fmt@@QEBA?AV?$basic_format_arg@V?$basic_format_context@Vappender@v9@fmt@@D@v9@fmt@@@12@V?$basic_string_view@D@12@@Z
	??$get@Vlocale@std@@@locale_ref@detail@v9@fmt@@QEBA?AVlocale@std@@XZ
	??$get_arg@V?$basic_format_context@Vappender@v9@fmt@@D@v9@fmt@@H@detail@v9@fmt@@YA?AV?$basic_format_arg@V?$basic_format_context@Vappender@v9@fmt@@D@v9@fmt@@@12@AEAV?$basic_format_context@Vappender@v9@fmt@@D@12@H@Z
	??$get_arg@V?$basic_format_context@Vappender@v9@fmt@@D@v9@fmt@@V?$basic_string_view@D@23@@detail@v9@fmt@@YA?AV?$basic_format_arg@V?$basic_format_context@Vappender@v9@fmt@@D@v9@fmt@@@12@AEAV?$basic_format_context@Vappender@v9@fmt@@D@12@V?$basic_string_view@D@12@@Z
	??$get_buffer@D@v9@fmt@@YAAEAV?$buffer@D@detail@01@Vappender@01@@Z
	??$get_buffer@DV?$back_insert_iterator@V?$basic_memory_buffer@D$0PK@V?$allocator@D@std@@@v9@fmt@@@std@@@detail@v9@fmt@@YA?AV?$iterator_buffer@V?$back_insert_iterator@V?$basic_memory_buffer@D$0PK@V?$allocator@D@std@@@v9@fmt@@@std@@DUbuffer_traits@detail@v9@fmt@@@012@V?$back_insert_iterator@V?$basic_memory_buffer@D$0PK@V?$allocator@D@std@@@v9@fmt@@@std@@@Z
	??$get_container@V?$basic_memory_buffer@D$0PK@V?$allocator@D@std@@@v9@fmt@@@detail@v9@fmt@@YAAEAV?$basic_memory_buffer@D$0PK@V?$allocator@D@std@@@12@V?$back_insert_iterator@V?$basic_memory_buffer@D$0PK@V?$allocator@D@std@@@v9@fmt@@@std@@@Z
	??$get_container@V?$buffer@D@detail@v9@fmt@@@detail@v9@fmt@@YAAEAV?$buffer@D@012@V?$back_insert_iterator@V?$buffer@D@detail@v9@fmt@@@std@@@Z
	??$get_dynamic_spec@Vprecision_checker@detail@v9@fmt@@V?$basic_format_arg@V?$basic_format_context@Vappender@v9@fmt@@D@v9@fmt@@@34@Uerror_handler@234@@detail@v9@fmt@@YAHV?$basic_format_arg@V?$basic_format_context@Vappender@v9@fmt@@D@v9@fmt@@@12@Uerror_handler@012@@Z
	??$get_dynamic_spec@Vwidth_checker@detail@v9@fmt@@V?$basic_format_arg@V?$basic_format_context@Vappender@v9@fmt@@D@v9@fmt@@@34@Uerror_handler@234@@detail@v9@fmt@@YAHV?$basic_format_arg@V?$basic_format_context@Vappender@v9@fmt@@D@v9@fmt@@@12@Uerror_handler@012@@Z
	??$get_id@D@?$basic_format_args@V?$basic_format_context@Vappender@v9@fmt@@D@v9@fmt@@@v9@fmt@@QEBAHV?$basic_string_view@D@12@@Z
	??$get_iterator@D@detail@v9@fmt@@YA?AVappender@12@AEAV?$buffer@D@012@@Z
	??$get_iterator@V?$iterator_buffer@V?$back_insert_iterator@V?$basic_memory_buffer@D$0PK@V?$allocator@D@std@@@v9@fmt@@@std@@DUbuffer_traits@detail@v9@fmt@@@detail@v9@fmt@@@detail@v9@fmt@@YA?AV?$back_insert_iterator@V?$basic_memory_buffer@D$0PK@V?$allocator@D@std@@@v9@fmt@@@std@@AEAV?$iterator_buffer@V?$back_insert_iterator@V?$basic_memory_buffer@D$0PK@V?$allocator@D@std@@@v9@fmt@@@std@@DUbuffer_traits@detail@v9@fmt@@@012@@Z
	??$get_significand_size@M@detail@v9@fmt@@YAHAEBU?$decimal_fp@M@dragonbox@012@@Z
	??$get_significand_size@N@detail@v9@fmt@@YAHAEBU?$decimal_fp@N@dragonbox@012@@Z
	??$handle_flag_@Unull_scoped_padder@details@spdlog@@@pattern_formatter@spdlog@@AEAAXDUpadding_info@details@1@@Z
	??$handle_flag_@Vscoped_padder@details@spdlog@@@pattern_formatter@spdlog@@AEAAXDUpadding_info@details@1@@Z
	??$has_implicit_bit@M@detail@v9@fmt@@YA_NXZ
	??$has_implicit_bit@N@detail@v9@fmt@@YA_NXZ
	??$ignore_unused@_N@detail@v9@fmt@@YAXAEB_N@Z
	??$info@AEBV?$basic_string@DU?$char_traits@D@std@@V?$allocator@D@2@@std@@AEBIAEBI@logger@spdlog@@QEAAXV?$basic_format_string@DAEBV?$basic_string@DU?$char_traits@D@std@@V?$allocator@D@2@@std@@AEBIAEBI@v9@fmt@@AEBV?$basic_string@DU?$char_traits@D@std@@V?$allocator@D@2@@std@@AEBI2@Z
	??$init_named_args@$$BY06DH@detail@v9@fmt@@YAX$$THHAEAY06$$CBDAEBH@Z
	??$init_named_args@H@detail@v9@fmt@@YAX$$THHAEBH@Z
	??$init_named_args@HPEBD@detail@v9@fmt@@YAX$$THHAEBHAEBQEBD@Z
	??$init_named_args@PEBDPEBDH@detail@v9@fmt@@YAX$$THHAEBQEBD1AEBH@Z
	??$init_named_args@V?$basic_string@DU?$char_traits@D@std@@V?$allocator@D@2@@std@@II@detail@v9@fmt@@YAX$$THHAEBV?$basic_string@DU?$char_traits@D@std@@V?$allocator@D@2@@std@@AEBI2@Z
	??$init_named_args@V?$basic_string_view@D@v9@fmt@@$$BY02D@detail@v9@fmt@@YAX$$THHAEBV?$basic_string_view@D@12@AEAY02$$CBD@Z
	??$invoke@AEAP8Application@Engine@@EAAXAEAVEvent@2@@ZAEAPEAV12@AEAV32@@std@@YAXAEAP8Application@Engine@@EAAXAEAVEvent@2@@ZAEAPEAV12@0@Z
	??$invoke@AEAP8Application@Engine@@EAA_NAEAVWindowCloseEvent@2@@ZAEAPEAV12@AEAV32@@std@@YA_NAEAP8Application@Engine@@EAA_NAEAVWindowCloseEvent@2@@ZAEAPEAV12@0@Z
	??$invoke@AEAP8ImGuiLayer@Engine@@EAA_NAEAVKeyPressedEvent@2@@ZAEAPEAV12@AEAV32@@std@@YA_NAEAP8ImGuiLayer@Engine@@EAA_NAEAVKeyPressedEvent@2@@ZAEAPEAV12@0@Z
	??$invoke@AEAP8ImGuiLayer@Engine@@EAA_NAEAVKeyReleasedEvent@2@@ZAEAPEAV12@AEAV32@@std@@YA_NAEAP8ImGuiLayer@Engine@@EAA_NAEAVKeyReleasedEvent@2@@ZAEAPEAV12@0@Z
	??$invoke@AEAP8ImGuiLayer@Engine@@EAA_NAEAVKeyTypedEvent@2@@ZAEAPEAV12@AEAV32@@std@@YA_NAEAP8ImGuiLayer@Engine@@EAA_NAEAVKeyTypedEvent@2@@ZAEAPEAV12@0@Z
	??$invoke@AEAP8ImGuiLayer@Engine@@EAA_NAEAVMouseButtonPressedEvent@2@@ZAEAPEAV12@AEAV32@@std@@YA_NAEAP8ImGuiLayer@Engine@@EAA_NAEAVMouseButtonPressedEvent@2@@ZAEAPEAV12@0@Z
	??$invoke@AEAP8ImGuiLayer@Engine@@EAA_NAEAVMouseButtonReleasedEvent@2@@ZAEAPEAV12@AEAV32@@std@@YA_NAEAP8ImGuiLayer@Engine@@EAA_NAEAVMouseButtonReleasedEvent@2@@ZAEAPEAV12@0@Z
	??$invoke@AEAP8ImGuiLayer@Engine@@EAA_NAEAVMouseMovedEvent@2@@ZAEAPEAV12@AEAV32@@std@@YA_NAEAP8ImGuiLayer@Engine@@EAA_NAEAVMouseMovedEvent@2@@ZAEAPEAV12@0@Z
	??$invoke@AEAP8ImGuiLayer@Engine@@EAA_NAEAVMouseScrolledEvent@2@@ZAEAPEAV12@AEAV32@@std@@YA_NAEAP8ImGuiLayer@Engine@@EAA_NAEAVMouseScrolledEvent@2@@ZAEAPEAV12@0@Z
	??$invoke@AEAP8ImGuiLayer@Engine@@EAA_NAEAVWindowResizeEvent@2@@ZAEAPEAV12@AEAV32@@std@@YA_NAEAP8ImGuiLayer@Engine@@EAA_NAEAVWindowResizeEvent@2@@ZAEAPEAV12@0@Z
	??$invoke@AEAV?$_Binder@U_Unforced@std@@P8Application@Engine@@EAAXAEAVEvent@4@@ZPEAV34@AEBU?$_Ph@$00@2@@std@@AEAVEvent@Engine@@$$V@std@@YAXAEAV?$_Binder@U_Unforced@std@@P8Application@Engine@@EAAXAEAVEvent@4@@ZPEAV34@AEBU?$_Ph@$00@2@@0@AEAVEvent@Engine@@@Z
	??$invoke@AEAV?$_Binder@U_Unforced@std@@P8Application@Engine@@EAA_NAEAVWindowCloseEvent@4@@ZPEAV34@AEBU?$_Ph@$00@2@@std@@AEAVWindowCloseEvent@Engine@@$$V@std@@YA_NAEAV?$_Binder@U_Unforced@std@@P8Application@Engine@@EAA_NAEAVWindowCloseEvent@4@@ZPEAV34@AEBU?$_Ph@$00@2@@0@AEAVWindowCloseEvent@Engine@@@Z
	??$invoke@AEAV?$_Binder@U_Unforced@std@@P8ImGuiLayer@Engine@@EAA_NAEAVKeyPressedEvent@4@@ZPEAV34@AEBU?$_Ph@$00@2@@std@@AEAVKeyPressedEvent@Engine@@$$V@std@@YA_NAEAV?$_Binder@U_Unforced@std@@P8ImGuiLayer@Engine@@EAA_NAEAVKeyPressedEvent@4@@ZPEAV34@AEBU?$_Ph@$00@2@@0@AEAVKeyPressedEvent@Engine@@@Z
	??$invoke@AEAV?$_Binder@U_Unforced@std@@P8ImGuiLayer@Engine@@EAA_NAEAVKeyReleasedEvent@4@@ZPEAV34@AEBU?$_Ph@$00@2@@std@@AEAVKeyReleasedEvent@Engine@@$$V@std@@YA_NAEAV?$_Binder@U_Unforced@std@@P8ImGuiLayer@Engine@@EAA_NAEAVKeyReleasedEvent@4@@ZPEAV34@AEBU?$_Ph@$00@2@@0@AEAVKeyReleasedEvent@Engine@@@Z
	??$invoke@AEAV?$_Binder@U_Unforced@std@@P8ImGuiLayer@Engine@@EAA_NAEAVKeyTypedEvent@4@@ZPEAV34@AEBU?$_Ph@$00@2@@std@@AEAVKeyTypedEvent@Engine@@$$V@std@@YA_NAEAV?$_Binder@U_Unforced@std@@P8ImGuiLayer@Engine@@EAA_NAEAVKeyTypedEvent@4@@ZPEAV34@AEBU?$_Ph@$00@2@@0@AEAVKeyTypedEvent@Engine@@@Z
	??$invoke@AEAV?$_Binder@U_Unforced@std@@P8ImGuiLayer@Engine@@EAA_NAEAVMouseButtonPressedEvent@4@@ZPEAV34@AEBU?$_Ph@$00@2@@std@@AEAVMouseButtonPressedEvent@Engine@@$$V@std@@YA_NAEAV?$_Binder@U_Unforced@std@@P8ImGuiLayer@Engine@@EAA_NAEAVMouseButtonPressedEvent@4@@ZPEAV34@AEBU?$_Ph@$00@2@@0@AEAVMouseButtonPressedEvent@Engine@@@Z
	??$invoke@AEAV?$_Binder@U_Unforced@std@@P8ImGuiLayer@Engine@@EAA_NAEAVMouseButtonReleasedEvent@4@@ZPEAV34@AEBU?$_Ph@$00@2@@std@@AEAVMouseButtonReleasedEvent@Engine@@$$V@std@@YA_NAEAV?$_Binder@U_Unforced@std@@P8ImGuiLayer@Engine@@EAA_NAEAVMouseButtonReleasedEvent@4@@ZPEAV34@AEBU?$_Ph@$00@2@@0@AEAVMouseButtonReleasedEvent@Engine@@@Z
	??$invoke@AEAV?$_Binder@U_Unforced@std@@P8ImGuiLayer@Engine@@EAA_NAEAVMouseMovedEvent@4@@ZPEAV34@AEBU?$_Ph@$00@2@@std@@AEAVMouseMovedEvent@Engine@@$$V@std@@YA_NAEAV?$_Binder@U_Unforced@std@@P8ImGuiLayer@Engine@@EAA_NAEAVMouseMovedEvent@4@@ZPEAV34@AEBU?$_Ph@$00@2@@0@AEAVMouseMovedEvent@Engine@@@Z
	??$invoke@AEAV?$_Binder@U_Unforced@std@@P8ImGuiLayer@Engine@@EAA_NAEAVMouseScrolledEvent@4@@ZPEAV34@AEBU?$_Ph@$00@2@@std@@AEAVMouseScrolledEvent@Engine@@$$V@std@@YA_NAEAV?$_Binder@U_Unforced@std@@P8ImGuiLayer@Engine@@EAA_NAEAVMouseScrolledEvent@4@@ZPEAV34@AEBU?$_Ph@$00@2@@0@AEAVMouseScrolledEvent@Engine@@@Z
	??$invoke@AEAV?$_Binder@U_Unforced@std@@P8ImGuiLayer@Engine@@EAA_NAEAVWindowResizeEvent@4@@ZPEAV34@AEBU?$_Ph@$00@2@@std@@AEAVWindowResizeEvent@Engine@@$$V@std@@YA_NAEAV?$_Binder@U_Unforced@std@@P8ImGuiLayer@Engine@@EAA_NAEAVWindowResizeEvent@4@@ZPEAV34@AEBU?$_Ph@$00@2@@0@AEAVWindowResizeEvent@Engine@@@Z
	??$is_ascii_letter@D@detail@v9@fmt@@YA_ND@Z
	??$is_left_endpoint_integer_shorter_interval@M@dragonbox@detail@v9@fmt@@YA_NH@Z
	??$is_left_endpoint_integer_shorter_interval@N@dragonbox@detail@v9@fmt@@YA_NH@Z
	??$is_name_start@D@detail@v9@fmt@@YA_ND@Z
	??$is_negative@H$0A@@detail@v9@fmt@@YA_NH@Z
	??$is_negative@I$0A@@detail@v9@fmt@@YA_NI@Z
	??$is_negative@_J$0A@@detail@v9@fmt@@YA_N_J@Z
	??$is_negative@_K$0A@@detail@v9@fmt@@YA_N_K@Z
	??$is_supported_floating_point@M@detail@v9@fmt@@YA_NM@Z
	??$is_supported_floating_point@N@detail@v9@fmt@@YA_NN@Z
	??$is_supported_floating_point@O@detail@v9@fmt@@YA_NO@Z
	??$isfinite@M$0A@@detail@v9@fmt@@YA_NM@Z
	??$isfinite@M@@YA_NM@Z
	??$isfinite@N$0A@@detail@v9@fmt@@YA_NN@Z
	??$isfinite@N@@YA_NN@Z
	??$isfinite@O$0A@@detail@v9@fmt@@YA_NO@Z
	??$isfinite@O@@YA_NO@Z
	??$isnan@M@@YA_NM@Z
	??$isnan@M@detail@v9@fmt@@YA_NM@Z
	??$isnan@N@@YA_NN@Z
	??$isnan@N@detail@v9@fmt@@YA_NN@Z
	??$isnan@O@@YA_NO@Z
	??$isnan@O@detail@v9@fmt@@YA_NO@Z
	??$log@AEAHAEAPEBD@logger@spdlog@@QEAAXUsource_loc@1@W4level_enum@level@1@V?$basic_format_string@DAEAHAEAPEBD@v9@fmt@@AEAHAEAPEBD@Z
	??$log@AEAHAEAPEBD@logger@spdlog@@QEAAXW4level_enum@level@1@V?$basic_format_string@DAEAHAEAPEBD@v9@fmt@@AEAHAEAPEBD@Z
	??$log@AEBV?$basic_string@DU?$char_traits@D@std@@V?$allocator@D@2@@std@@AEBIAEBI@logger@spdlog@@QEAAXUsource_loc@1@W4level_enum@level@1@V?$basic_format_string@DAEBV?$basic_string@DU?$char_traits@D@std@@V?$allocator@D@2@@std@@AEBIAEBI@v9@fmt@@AEBV?$basic_string@DU?$char_traits@D@std@@V?$allocator@D@2@@std@@AEBI4@Z
	??$log@AEBV?$basic_string@DU?$char_traits@D@std@@V?$allocator@D@2@@std@@AEBIAEBI@logger@spdlog@@QEAAXW4level_enum@level@1@V?$basic_format_string@DAEBV?$basic_string@DU?$char_traits@D@std@@V?$allocator@D@2@@std@@AEBIAEBI@v9@fmt@@AEBV?$basic_string@DU?$char_traits@D@std@@V?$allocator@D@2@@std@@AEBI3@Z
	??$log_@AEAHAEAPEBD@logger@spdlog@@IEAAXUsource_loc@1@W4level_enum@level@1@V?$basic_string_view@D@v9@fmt@@AEAHAEAPEBD@Z
	??$log_@AEBV?$basic_string@DU?$char_traits@D@std@@V?$allocator@D@2@@std@@AEBIAEBI@logger@spdlog@@IEAAXUsource_loc@1@W4level_enum@level@1@V?$basic_string_view@D@v9@fmt@@AEBV?$basic_string@DU?$char_traits@D@std@@V?$allocator@D@2@@std@@AEBI4@Z
	??$make_arg@$00V?$basic_format_context@Vappender@v9@fmt@@D@v9@fmt@@$00AEAH$0A@@detail@v9@fmt@@YA?AV?$value@V?$basic_format_context@Vappender@v9@fmt@@D@v9@fmt@@@012@AEAH@Z
	??$make_arg@$00V?$basic_format_context@Vappender@v9@fmt@@D@v9@fmt@@$00AEBH$0A@@detail@v9@fmt@@YA?AV?$value@V?$basic_format_context@Vappender@v9@fmt@@D@v9@fmt@@@012@AEBH@Z
	??$make_arg@$00V?$basic_format_context@Vappender@v9@fmt@@D@v9@fmt@@$01AEBI$0A@@detail@v9@fmt@@YA?AV?$value@V?$basic_format_context@Vappender@v9@fmt@@D@v9@fmt@@@012@AEBI@Z
	??$make_arg@$00V?$basic_format_context@Vappender@v9@fmt@@D@v9@fmt@@$0M@AEAPEBD$0A@@detail@v9@fmt@@YA?AV?$value@V?$basic_format_context@Vappender@v9@fmt@@D@v9@fmt@@@012@AEAPEBD@Z
	??$make_arg@$00V?$basic_format_context@Vappender@v9@fmt@@D@v9@fmt@@$0M@AEAY02$$CBD$0A@@detail@v9@fmt@@YA?AV?$value@V?$basic_format_context@Vappender@v9@fmt@@D@v9@fmt@@@012@AEAY02$$CBD@Z
	??$make_arg@$00V?$basic_format_context@Vappender@v9@fmt@@D@v9@fmt@@$0M@AEAY06$$CBD$0A@@detail@v9@fmt@@YA?AV?$value@V?$basic_format_context@Vappender@v9@fmt@@D@v9@fmt@@@012@AEAY06$$CBD@Z
	??$make_arg@$00V?$basic_format_context@Vappender@v9@fmt@@D@v9@fmt@@$0M@AEBQEBD$0A@@detail@v9@fmt@@YA?AV?$value@V?$basic_format_context@Vappender@v9@fmt@@D@v9@fmt@@@012@AEBQEBD@Z
	??$make_arg@$00V?$basic_format_context@Vappender@v9@fmt@@D@v9@fmt@@$0N@AEAV?$basic_string_view@D@23@$0A@@detail@v9@fmt@@YA?AV?$value@V?$basic_format_context@Vappender@v9@fmt@@D@v9@fmt@@@012@AEAV?$basic_string_view@D@12@@Z
	??$make_arg@$00V?$basic_format_context@Vappender@v9@fmt@@D@v9@fmt@@$0N@AEBV?$basic_string@DU?$char_traits@D@std@@V?$allocator@D@2@@std@@$0A@@detail@v9@fmt@@YA?AV?$value@V?$basic_format_context@Vappender@v9@fmt@@D@v9@fmt@@@012@AEBV?$basic_string@DU?$char_traits@D@std@@V?$allocator@D@2@@std@@@Z
	??$make_checked@D@detail@v9@fmt@@YA?AV?$checked_array_iterator@PEAD@stdext@@PEAD_K@Z
	??$make_checked@H@detail@v9@fmt@@YA?AV?$checked_array_iterator@PEAH@stdext@@PEAH_K@Z
	??$make_checked@I@detail@v9@fmt@@YA?AV?$checked_array_iterator@PEAI@stdext@@PEAI_K@Z
	??$make_format_args@V?$basic_format_context@Vappender@v9@fmt@@D@v9@fmt@@AEAH@v9@fmt@@YA?AV?$format_arg_store@V?$basic_format_context@Vappender@v9@fmt@@D@v9@fmt@@H@01@AEAH@Z
	??$make_format_args@V?$basic_format_context@Vappender@v9@fmt@@D@v9@fmt@@AEAHAEAPEBD@v9@fmt@@YA?AV?$format_arg_store@V?$basic_format_context@Vappender@v9@fmt@@D@v9@fmt@@HPEBD@01@AEAHAEAPEBD@Z
	??$make_format_args@V?$basic_format_context@Vappender@v9@fmt@@D@v9@fmt@@AEAPEBDAEAPEBDAEAH@v9@fmt@@YA?AV?$format_arg_store@V?$basic_format_context@Vappender@v9@fmt@@D@v9@fmt@@PEBDPEBDH@01@AEAPEBD0AEAH@Z
	??$make_format_args@V?$basic_format_context@Vappender@v9@fmt@@D@v9@fmt@@AEAPEBDAEBQEBDAEBH@v9@fmt@@YA?AV?$format_arg_store@V?$basic_format_context@Vappender@v9@fmt@@D@v9@fmt@@PEBDPEBDH@01@AEAPEBDAEBQEBDAEBH@Z
	??$make_format_args@V?$basic_format_context@Vappender@v9@fmt@@D@v9@fmt@@AEAV?$basic_string_view@D@23@AEAY02$$CBD@v9@fmt@@YA?AV?$format_arg_store@V?$basic_format_context@Vappender@v9@fmt@@D@v9@fmt@@V?$basic_string_view@D@23@$$BY02D@01@AEAV?$basic_string_view@D@01@AEAY02$$CBD@Z
	??$make_format_args@V?$basic_format_context@Vappender@v9@fmt@@D@v9@fmt@@AEAY06$$CBDAEAH@v9@fmt@@YA?AV?$format_arg_store@V?$basic_format_context@Vappender@v9@fmt@@D@v9@fmt@@$$BY06DH@01@AEAY06$$CBDAEAH@Z
	??$make_format_args@V?$basic_format_context@Vappender@v9@fmt@@D@v9@fmt@@AEBV?$basic_string@DU?$char_traits@D@std@@V?$allocator@D@2@@std@@AEBIAEBI@v9@fmt@@YA?AV?$format_arg_store@V?$basic_format_context@Vappender@v9@fmt@@D@v9@fmt@@V?$basic_string@DU?$char_traits@D@std@@V?$allocator@D@2@@std@@II@01@AEBV?$basic_string@DU?$char_traits@D@std@@V?$allocator@D@2@@std@@AEBI1@Z
	??$make_shared@V?$wincolor_stdout_sink@Uconsole_mutex@details@spdlog@@@sinks@spdlog@@$$V@std@@YA?AV?$shared_ptr@V?$wincolor_stdout_sink@Uconsole_mutex@details@spdlog@@@sinks@spdlog@@@0@XZ
	??$make_shared@V?$wincolor_stdout_sink@Uconsole_mutex@details@spdlog@@@sinks@spdlog@@AEAW4color_mode@3@@std@@YA?AV?$shared_ptr@V?$wincolor_stdout_sink@Uconsole_mutex@details@spdlog@@@sinks@spdlog@@@0@AEAW4color_mode@spdlog@@@Z
	??$make_shared@Vlogger@spdlog@@AEAPEBDV?$shared_ptr@V?$wincolor_stdout_sink@Uconsole_mutex@details@spdlog@@@sinks@spdlog@@@std@@@std@@YA?AV?$shared_ptr@Vlogger@spdlog@@@0@AEAPEBD$$QEAV?$shared_ptr@V?$wincolor_stdout_sink@Uconsole_mutex@details@spdlog@@@sinks@spdlog@@@0@@Z
	??$make_shared@Vlogger@spdlog@@AEAV12@@std@@YA?AV?$shared_ptr@Vlogger@spdlog@@@0@AEAVlogger@spdlog@@@Z
	??$make_shared@Vlogger@spdlog@@V?$basic_string@DU?$char_traits@D@std@@V?$allocator@D@2@@std@@V?$shared_ptr@V?$wincolor_stdout_sink@Uconsole_mutex@details@spdlog@@@sinks@spdlog@@@4@@std@@YA?AV?$shared_ptr@Vlogger@spdlog@@@0@$$QEAV?$basic_string@DU?$char_traits@D@std@@V?$allocator@D@2@@0@$$QEAV?$shared_ptr@V?$wincolor_stdout_sink@Uconsole_mutex@details@spdlog@@@sinks@spdlog@@@0@@Z
	??$make_unique@V?$A_formatter@Unull_scoped_padder@details@spdlog@@@details@spdlog@@AEAUpadding_info@23@@details@spdlog@@YA?AV?$unique_ptr@V?$A_formatter@Unull_scoped_padder@details@spdlog@@@details@spdlog@@U?$default_delete@V?$A_formatter@Unull_scoped_padder@details@spdlog@@@details@spdlog@@@std@@@std@@AEAUpadding_info@01@@Z
	??$make_unique@V?$A_formatter@Vscoped_padder@details@spdlog@@@details@spdlog@@AEAUpadding_info@23@@details@spdlog@@YA?AV?$unique_ptr@V?$A_formatter@Vscoped_padder@details@spdlog@@@details@spdlog@@U?$default_delete@V?$A_formatter@Vscoped_padder@details@spdlog@@@details@spdlog@@@std@@@std@@AEAUpadding_info@01@@Z
	??$make_unique@V?$B_formatter@Unull_scoped_padder@details@spdlog@@@details@spdlog@@AEAUpadding_info@23@@details@spdlog@@YA?AV?$unique_ptr@V?$B_formatter@Unull_scoped_padder@details@spdlog@@@details@spdlog@@U?$default_delete@V?$B_formatter@Unull_scoped_padder@details@spdlog@@@details@spdlog@@@std@@@std@@AEAUpadding_info@01@@Z
	??$make_unique@V?$B_formatter@Vscoped_padder@details@spdlog@@@details@spdlog@@AEAUpadding_info@23@@details@spdlog@@YA?AV?$unique_ptr@V?$B_formatter@Vscoped_padder@details@spdlog@@@details@spdlog@@U?$default_delete@V?$B_formatter@Vscoped_padder@details@spdlog@@@details@spdlog@@@std@@@std@@AEAUpadding_info@01@@Z
	??$make_unique@V?$C_formatter@Unull_scoped_padder@details@spdlog@@@details@spdlog@@AEAUpadding_info@23@@details@spdlog@@YA?AV?$unique_ptr@V?$C_formatter@Unull_scoped_padder@details@spdlog@@@details@spdlog@@U?$default_delete@V?$C_formatter@Unull_scoped_padder@details@spdlog@@@details@spdlog@@@std@@@std@@AEAUpadding_info@01@@Z
	??$make_unique@V?$C_formatter@Vscoped_padder@details@spdlog@@@details@spdlog@@AEAUpadding_info@23@@details@spdlog@@YA?AV?$unique_ptr@V?$C_formatter@Vscoped_padder@details@spdlog@@@details@spdlog@@U?$default_delete@V?$C_formatter@Vscoped_padder@details@spdlog@@@details@spdlog@@@std@@@std@@AEAUpadding_info@01@@Z
	??$make_unique@V?$D_formatter@Unull_scoped_padder@details@spdlog@@@details@spdlog@@AEAUpadding_info@23@@details@spdlog@@YA?AV?$unique_ptr@V?$D_formatter@Unull_scoped_padder@details@spdlog@@@details@spdlog@@U?$default_delete@V?$D_formatter@Unull_scoped_padder@details@spdlog@@@details@spdlog@@@std@@@std@@AEAUpadding_info@01@@Z
	??$make_unique@V?$D_formatter@Vscoped_padder@details@spdlog@@@details@spdlog@@AEAUpadding_info@23@@details@spdlog@@YA?AV?$unique_ptr@V?$D_formatter@Vscoped_padder@details@spdlog@@@details@spdlog@@U?$default_delete@V?$D_formatter@Vscoped_padder@details@spdlog@@@details@spdlog@@@std@@@std@@AEAUpadding_info@01@@Z
	??$make_unique@V?$E_formatter@Unull_scoped_padder@details@spdlog@@@details@spdlog@@AEAUpadding_info@23@@details@spdlog@@YA?AV?$unique_ptr@V?$E_formatter@Unull_scoped_padder@details@spdlog@@@details@spdlog@@U?$default_delete@V?$E_formatter@Unull_scoped_padder@details@spdlog@@@details@spdlog@@@std@@@std@@AEAUpadding_info@01@@Z
	??$make_unique@V?$E_formatter@Vscoped_padder@details@spdlog@@@details@spdlog@@AEAUpadding_info@23@@details@spdlog@@YA?AV?$unique_ptr@V?$E_formatter@Vscoped_padder@details@spdlog@@@details@spdlog@@U?$default_delete@V?$E_formatter@Vscoped_padder@details@spdlog@@@details@spdlog@@@std@@@std@@AEAUpadding_info@01@@Z
	??$make_unique@V?$F_formatter@Unull_scoped_padder@details@spdlog@@@details@spdlog@@AEAUpadding_info@23@@details@spdlog@@YA?AV?$unique_ptr@V?$F_formatter@Unull_scoped_padder@details@spdlog@@@details@spdlog@@U?$default_delete@V?$F_formatter@Unull_scoped_padder@details@spdlog@@@details@spdlog@@@std@@@std@@AEAUpadding_info@01@@Z
	??$make_unique@V?$F_formatter@Vscoped_padder@details@spdlog@@@details@spdlog@@AEAUpadding_info@23@@details@spdlog@@YA?AV?$unique_ptr@V?$F_formatter@Vscoped_padder@details@spdlog@@@details@spdlog@@U?$default_delete@V?$F_formatter@Vscoped_padder@details@spdlog@@@details@spdlog@@@std@@@std@@AEAUpadding_info@01@@Z
	??$make_unique@V?$H_formatter@Unull_scoped_padder@details@spdlog@@@details@spdlog@@AEAUpadding_info@23@@details@spdlog@@YA?AV?$unique_ptr@V?$H_formatter@Unull_scoped_padder@details@spdlog@@@details@spdlog@@U?$default_delete@V?$H_formatter@Unull_scoped_padder@details@spdlog@@@details@spdlog@@@std@@@std@@AEAUpadding_info@01@@Z
	??$make_unique@V?$H_formatter@Vscoped_padder@details@spdlog@@@details@spdlog@@AEAUpadding_info@23@@details@spdlog@@YA?AV?$unique_ptr@V?$H_formatter@Vscoped_padder@details@spdlog@@@details@spdlog@@U?$default_delete@V?$H_formatter@Vscoped_padder@details@spdlog@@@details@spdlog@@@std@@@std@@AEAUpadding_info@01@@Z
	??$make_unique@V?$I_formatter@Unull_scoped_padder@details@spdlog@@@details@spdlog@@AEAUpadding_info@23@@details@spdlog@@YA?AV?$unique_ptr@V?$I_formatter@Unull_scoped_padder@details@spdlog@@@details@spdlog@@U?$default_delete@V?$I_formatter@Unull_scoped_padder@details@spdlog@@@details@spdlog@@@std@@@std@@AEAUpadding_info@01@@Z
	??$make_unique@V?$I_formatter@Vscoped_padder@details@spdlog@@@details@spdlog@@AEAUpadding_info@23@@details@spdlog@@YA?AV?$unique_ptr@V?$I_formatter@Vscoped_padder@details@spdlog@@@details@spdlog@@U?$default_delete@V?$I_formatter@Vscoped_padder@details@spdlog@@@details@spdlog@@@std@@@std@@AEAUpadding_info@01@@Z
	??$make_unique@V?$M_formatter@Unull_scoped_padder@details@spdlog@@@details@spdlog@@AEAUpadding_info@23@@details@spdlog@@YA?AV?$unique_ptr@V?$M_formatter@Unull_scoped_padder@details@spdlog@@@details@spdlog@@U?$default_delete@V?$M_formatter@Unull_scoped_padder@details@spdlog@@@details@spdlog@@@std@@@std@@AEAUpadding_info@01@@Z
	??$make_unique@V?$M_formatter@Vscoped_padder@details@spdlog@@@details@spdlog@@AEAUpadding_info@23@@details@spdlog@@YA?AV?$unique_ptr@V?$M_formatter@Vscoped_padder@details@spdlog@@@details@spdlog@@U?$default_delete@V?$M_formatter@Vscoped_padder@details@spdlog@@@details@spdlog@@@std@@@std@@AEAUpadding_info@01@@Z
	??$make_unique@V?$R_formatter@Unull_scoped_padder@details@spdlog@@@details@spdlog@@AEAUpadding_info@23@@details@spdlog@@YA?AV?$unique_ptr@V?$R_formatter@Unull_scoped_padder@details@spdlog@@@details@spdlog@@U?$default_delete@V?$R_formatter@Unull_scoped_padder@details@spdlog@@@details@spdlog@@@std@@@std@@AEAUpadding_info@01@@Z
	??$make_unique@V?$R_formatter@Vscoped_padder@details@spdlog@@@details@spdlog@@AEAUpadding_info@23@@details@spdlog@@YA?AV?$unique_ptr@V?$R_formatter@Vscoped_padder@details@spdlog@@@details@spdlog@@U?$default_delete@V?$R_formatter@Vscoped_padder@details@spdlog@@@details@spdlog@@@std@@@std@@AEAUpadding_info@01@@Z
	??$make_unique@V?$S_formatter@Unull_scoped_padder@details@spdlog@@@details@spdlog@@AEAUpadding_info@23@@details@spdlog@@YA?AV?$unique_ptr@V?$S_formatter@Unull_scoped_padder@details@spdlog@@@details@spdlog@@U?$default_delete@V?$S_formatter@Unull_scoped_padder@details@spdlog@@@details@spdlog@@@std@@@std@@AEAUpadding_info@01@@Z
	??$make_unique@V?$S_formatter@Vscoped_padder@details@spdlog@@@details@spdlog@@AEAUpadding_info@23@@details@spdlog@@YA?AV?$unique_ptr@V?$S_formatter@Vscoped_padder@details@spdlog@@@details@spdlog@@U?$default_delete@V?$S_formatter@Vscoped_padder@details@spdlog@@@details@spdlog@@@std@@@std@@AEAUpadding_info@01@@Z
	??$make_unique@V?$T_formatter@Unull_scoped_padder@details@spdlog@@@details@spdlog@@AEAUpadding_info@23@@details@spdlog@@YA?AV?$unique_ptr@V?$T_formatter@Unull_scoped_padder@details@spdlog@@@details@spdlog@@U?$default_delete@V?$T_formatter@Unull_scoped_padder@details@spdlog@@@details@spdlog@@@std@@@std@@AEAUpadding_info@01@@Z
	??$make_unique@V?$T_formatter@Vscoped_padder@details@spdlog@@@details@spdlog@@AEAUpadding_info@23@@details@spdlog@@YA?AV?$unique_ptr@V?$T_formatter@Vscoped_padder@details@spdlog@@@details@spdlog@@U?$default_delete@V?$T_formatter@Vscoped_padder@details@spdlog@@@details@spdlog@@@std@@@std@@AEAUpadding_info@01@@Z
	??$make_unique@V?$Y_formatter@Unull_scoped_padder@details@spdlog@@@details@spdlog@@AEAUpadding_info@23@@details@spdlog@@YA?AV?$unique_ptr@V?$Y_formatter@Unull_scoped_padder@details@spdlog@@@details@spdlog@@U?$default_delete@V?$Y_formatter@Unull_scoped_padder@details@spdlog@@@details@spdlog@@@std@@@std@@AEAUpadding_info@01@@Z
	??$make_unique@V?$Y_formatter@Vscoped_padder@details@spdlog@@@details@spdlog@@AEAUpadding_info@23@@details@spdlog@@YA?AV?$unique_ptr@V?$Y_formatter@Vscoped_padder@details@spdlog@@@details@spdlog@@U?$default_delete@V?$Y_formatter@Vscoped_padder@details@spdlog@@@details@spdlog@@@std@@@std@@AEAUpadding_info@01@@Z
	??$make_unique@V?$a_formatter@Unull_scoped_padder@details@spdlog@@@details@spdlog@@AEAUpadding_info@23@@details@spdlog@@YA?AV?$unique_ptr@V?$a_formatter@Unull_scoped_padder@details@spdlog@@@details@spdlog@@U?$default_delete@V?$a_formatter@Unull_scoped_padder@details@spdlog@@@details@spdlog@@@std@@@std@@AEAUpadding_info@01@@Z
	??$make_unique@V?$a_formatter@Vscoped_padder@details@spdlog@@@details@spdlog@@AEAUpadding_info@23@@details@spdlog@@YA?AV?$unique_ptr@V?$a_formatter@Vscoped_padder@details@spdlog@@@details@spdlog@@U?$default_delete@V?$a_formatter@Vscoped_padder@details@spdlog@@@details@spdlog@@@std@@@std@@AEAUpadding_info@01@@Z
	??$make_unique@V?$b_formatter@Unull_scoped_padder@details@spdlog@@@details@spdlog@@AEAUpadding_info@23@@details@spdlog@@YA?AV?$unique_ptr@V?$b_formatter@Unull_scoped_padder@details@spdlog@@@details@spdlog@@U?$default_delete@V?$b_formatter@Unull_scoped_padder@details@spdlog@@@details@spdlog@@@std@@@std@@AEAUpadding_info@01@@Z
	??$make_unique@V?$b_formatter@Vscoped_padder@details@spdlog@@@details@spdlog@@AEAUpadding_info@23@@details@spdlog@@YA?AV?$unique_ptr@V?$b_formatter@Vscoped_padder@details@spdlog@@@details@spdlog@@U?$default_delete@V?$b_formatter@Vscoped_padder@details@spdlog@@@details@spdlog@@@std@@@std@@AEAUpadding_info@01@@Z
	??$make_unique@V?$c_formatter@Unull_scoped_padder@details@spdlog@@@details@spdlog@@AEAUpadding_info@23@@details@spdlog@@YA?AV?$unique_ptr@V?$c_formatter@Unull_scoped_padder@details@spdlog@@@details@spdlog@@U?$default_delete@V?$c_formatter@Unull_scoped_padder@details@spdlog@@@details@spdlog@@@std@@@std@@AEAUpadding_info@01@@Z
	??$make_unique@V?$c_formatter@Vscoped_padder@details@spdlog@@@details@spdlog@@AEAUpadding_info@23@@details@spdlog@@YA?AV?$unique_ptr@V?$c_formatter@Vscoped_padder@details@spdlog@@@details@spdlog@@U?$default_delete@V?$c_formatter@Vscoped_padder@details@spdlog@@@details@spdlog@@@std@@@std@@AEAUpadding_info@01@@Z
	??$make_unique@V?$d_formatter@Unull_scoped_padder@details@spdlog@@@details@spdlog@@AEAUpadding_info@23@@details@spdlog@@YA?AV?$unique_ptr@V?$d_formatter@Unull_scoped_padder@details@spdlog@@@details@spdlog@@U?$default_delete@V?$d_formatter@Unull_scoped_padder@details@spdlog@@@details@spdlog@@@std@@@std@@AEAUpadding_info@01@@Z
	??$make_unique@V?$d_formatter@Vscoped_padder@details@spdlog@@@details@spdlog@@AEAUpadding_info@23@@details@spdlog@@YA?AV?$unique_ptr@V?$d_formatter@Vscoped_padder@details@spdlog@@@details@spdlog@@U?$default_delete@V?$d_formatter@Vscoped_padder@details@spdlog@@@details@spdlog@@@std@@@std@@AEAUpadding_info@01@@Z
	??$make_unique@V?$e_formatter@Unull_scoped_padder@details@spdlog@@@details@spdlog@@AEAUpadding_info@23@@details@spdlog@@YA?AV?$unique_ptr@V?$e_formatter@Unull_scoped_padder@details@spdlog@@@details@spdlog@@U?$default_delete@V?$e_formatter@Unull_scoped_padder@details@spdlog@@@details@spdlog@@@std@@@std@@AEAUpadding_info@01@@Z
	??$make_unique@V?$e_formatter@Vscoped_padder@details@spdlog@@@details@spdlog@@AEAUpadding_info@23@@details@spdlog@@YA?AV?$unique_ptr@V?$e_formatter@Vscoped_padder@details@spdlog@@@details@spdlog@@U?$default_delete@V?$e_formatter@Vscoped_padder@details@spdlog@@@details@spdlog@@@std@@@std@@AEAUpadding_info@01@@Z
	??$make_unique@V?$elapsed_formatter@Unull_scoped_padder@details@spdlog@@V?$duration@_JU?$ratio@$00$00@std@@@chrono@std@@@details@spdlog@@AEAUpadding_info@23@@details@spdlog@@YA?AV?$unique_ptr@V?$elapsed_formatter@Unull_scoped_padder@details@spdlog@@V?$duration@_JU?$ratio@$00$00@std@@@chrono@std@@@details@spdlog@@U?$default_delete@V?$elapsed_formatter@Unull_scoped_padder@details@spdlog@@V?$duration@_JU?$ratio@$00$00@std@@@chrono@std@@@details@spdlog@@@std@@@std@@AEAUpadding_info@01@@Z
	??$make_unique@V?$elapsed_formatter@Unull_scoped_padder@details@spdlog@@V?$duration@_JU?$ratio@$00$0DLJKMKAA@@std@@@chrono@std@@@details@spdlog@@AEAUpadding_info@23@@details@spdlog@@YA?AV?$unique_ptr@V?$elapsed_formatter@Unull_scoped_padder@details@spdlog@@V?$duration@_JU?$ratio@$00$0DLJKMKAA@@std@@@chrono@std@@@details@spdlog@@U?$default_delete@V?$elapsed_formatter@Unull_scoped_padder@details@spdlog@@V?$duration@_JU?$ratio@$00$0DLJKMKAA@@std@@@chrono@std@@@details@spdlog@@@std@@@std@@AEAUpadding_info@01@@Z
	??$make_unique@V?$elapsed_formatter@Unull_scoped_padder@details@spdlog@@V?$duration@_JU?$ratio@$00$0DOI@@std@@@chrono@std@@@details@spdlog@@AEAUpadding_info@23@@details@spdlog@@YA?AV?$unique_ptr@V?$elapsed_formatter@Unull_scoped_padder@details@spdlog@@V?$duration@_JU?$ratio@$00$0DOI@@std@@@chrono@std@@@details@spdlog@@U?$default_delete@V?$elapsed_formatter@Unull_scoped_padder@details@spdlog@@V?$duration@_JU?$ratio@$00$0DOI@@std@@@chrono@std@@@details@spdlog@@@std@@@std@@AEAUpadding_info@01@@Z
	??$make_unique@V?$elapsed_formatter@Unull_scoped_padder@details@spdlog@@V?$duration@_JU?$ratio@$00$0PECEA@@std@@@chrono@std@@@details@spdlog@@AEAUpadding_info@23@@details@spdlog@@YA?AV?$unique_ptr@V?$elapsed_formatter@Unull_scoped_padder@details@spdlog@@V?$duration@_JU?$ratio@$00$0PECEA@@std@@@chrono@std@@@details@spdlog@@U?$default_delete@V?$elapsed_formatter@Unull_scoped_padder@details@spdlog@@V?$duration@_JU?$ratio@$00$0PECEA@@std@@@chrono@std@@@details@spdlog@@@std@@@std@@AEAUpadding_info@01@@Z
	??$make_unique@V?$elapsed_formatter@Vscoped_padder@details@spdlog@@V?$duration@_JU?$ratio@$00$00@std@@@chrono@std@@@details@spdlog@@AEAUpadding_info@23@@details@spdlog@@YA?AV?$unique_ptr@V?$elapsed_formatter@Vscoped_padder@details@spdlog@@V?$duration@_JU?$ratio@$00$00@std@@@chrono@std@@@details@spdlog@@U?$default_delete@V?$elapsed_formatter@Vscoped_padder@details@spdlog@@V?$duration@_JU?$ratio@$00$00@std@@@chrono@std@@@details@spdlog@@@std@@@std@@AEAUpadding_info@01@@Z
	??$make_unique@V?$elapsed_formatter@Vscoped_padder@details@spdlog@@V?$duration@_JU?$ratio@$00$0DLJKMKAA@@std@@@chrono@std@@@details@spdlog@@AEAUpadding_info@23@@details@spdlog@@YA?AV?$unique_ptr@V?$elapsed_formatter@Vscoped_padder@details@spdlog@@V?$duration@_JU?$ratio@$00$0DLJKMKAA@@std@@@chrono@std@@@details@spdlog@@U?$default_delete@V?$elapsed_formatter@Vscoped_padder@details@spdlog@@V?$duration@_JU?$ratio@$00$0DLJKMKAA@@std@@@chrono@std@@@details@spdlog@@@std@@@std@@AEAUpadding_info@01@@Z
	??$make_unique@V?$elapsed_formatter@Vscoped_padder@details@spdlog@@V?$duration@_JU?$ratio@$00$0DOI@@std@@@chrono@std@@@details@spdlog@@AEAUpadding_info@23@@details@spdlog@@YA?AV?$unique_ptr@V?$elapsed_formatter@Vscoped_padder@details@spdlog@@V?$duration@_JU?$ratio@$00$0DOI@@std@@@chrono@std@@@details@spdlog@@U?$default_delete@V?$elapsed_formatter@Vscoped_padder@details@spdlog@@V?$duration@_JU?$ratio@$00$0DOI@@std@@@chrono@std@@@details@spdlog@@@std@@@std@@AEAUpadding_info@01@@Z
	??$make_unique@V?$elapsed_formatter@Vscoped_padder@details@spdlog@@V?$duration@_JU?$ratio@$00$0PECEA@@std@@@chrono@std@@@details@spdlog@@AEAUpadding_info@23@@details@spdlog@@YA?AV?$unique_ptr@V?$elapsed_formatter@Vscoped_padder@details@spdlog@@V?$duration@_JU?$ratio@$00$0PECEA@@std@@@chrono@std@@@details@spdlog@@U?$default_delete@V?$elapsed_formatter@Vscoped_padder@details@spdlog@@V?$duration@_JU?$ratio@$00$0PECEA@@std@@@chrono@std@@@details@spdlog@@@std@@@std@@AEAUpadding_info@01@@Z
	??$make_unique@V?$f_formatter@Unull_scoped_padder@details@spdlog@@@details@spdlog@@AEAUpadding_info@23@@details@spdlog@@YA?AV?$unique_ptr@V?$f_formatter@Unull_scoped_padder@details@spdlog@@@details@spdlog@@U?$default_delete@V?$f_formatter@Unull_scoped_padder@details@spdlog@@@details@spdlog@@@std@@@std@@AEAUpadding_info@01@@Z
	??$make_unique@V?$f_formatter@Vscoped_padder@details@spdlog@@@details@spdlog@@AEAUpadding_info@23@@details@spdlog@@YA?AV?$unique_ptr@V?$f_formatter@Vscoped_padder@details@spdlog@@@details@spdlog@@U?$default_delete@V?$f_formatter@Vscoped_padder@details@spdlog@@@details@spdlog@@@std@@@std@@AEAUpadding_info@01@@Z
	??$make_unique@V?$level_formatter@Unull_scoped_padder@details@spdlog@@@details@spdlog@@AEAUpadding_info@23@@details@spdlog@@YA?AV?$unique_ptr@V?$level_formatter@Unull_scoped_padder@details@spdlog@@@details@spdlog@@U?$default_delete@V?$level_formatter@Unull_scoped_padder@details@spdlog@@@details@spdlog@@@std@@@std@@AEAUpadding_info@01@@Z
	??$make_unique@V?$level_formatter@Vscoped_padder@details@spdlog@@@details@spdlog@@AEAUpadding_info@23@@details@spdlog@@YA?AV?$unique_ptr@V?$level_formatter@Vscoped_padder@details@spdlog@@@details@spdlog@@U?$default_delete@V?$level_formatter@Vscoped_padder@details@spdlog@@@details@spdlog@@@std@@@std@@AEAUpadding_info@01@@Z
	??$make_unique@V?$m_formatter@Unull_scoped_padder@details@spdlog@@@details@spdlog@@AEAUpadding_info@23@@details@spdlog@@YA?AV?$unique_ptr@V?$m_formatter@Unull_scoped_padder@details@spdlog@@@details@spdlog@@U?$default_delete@V?$m_formatter@Unull_scoped_padder@details@spdlog@@@details@spdlog@@@std@@@std@@AEAUpadding_info@01@@Z
	??$make_unique@V?$m_formatter@Vscoped_padder@details@spdlog@@@details@spdlog@@AEAUpadding_info@23@@details@spdlog@@YA?AV?$unique_ptr@V?$m_formatter@Vscoped_padder@details@spdlog@@@details@spdlog@@U?$default_delete@V?$m_formatter@Vscoped_padder@details@spdlog@@@details@spdlog@@@std@@@std@@AEAUpadding_info@01@@Z
	??$make_unique@V?$mdc_formatter@Unull_scoped_padder@details@spdlog@@@details@spdlog@@AEAUpadding_info@23@@details@spdlog@@YA?AV?$unique_ptr@V?$mdc_formatter@Unull_scoped_padder@details@spdlog@@@details@spdlog@@U?$default_delete@V?$mdc_formatter@Unull_scoped_padder@details@spdlog@@@details@spdlog@@@std@@@std@@AEAUpadding_info@01@@Z
	??$make_unique@V?$mdc_formatter@Vscoped_padder@details@spdlog@@@details@spdlog@@AEAUpadding_info@23@@details@spdlog@@YA?AV?$unique_ptr@V?$mdc_formatter@Vscoped_padder@details@spdlog@@@details@spdlog@@U?$default_delete@V?$mdc_formatter@Vscoped_padder@details@spdlog@@@details@spdlog@@@std@@@std@@AEAUpadding_info@01@@Z
	??$make_unique@V?$name_formatter@Unull_scoped_padder@details@spdlog@@@details@spdlog@@AEAUpadding_info@23@@details@spdlog@@YA?AV?$unique_ptr@V?$name_formatter@Unull_scoped_padder@details@spdlog@@@details@spdlog@@U?$default_delete@V?$name_formatter@Unull_scoped_padder@details@spdlog@@@details@spdlog@@@std@@@std@@AEAUpadding_info@01@@Z
	??$make_unique@V?$name_formatter@Vscoped_padder@details@spdlog@@@details@spdlog@@AEAUpadding_info@23@@details@spdlog@@YA?AV?$unique_ptr@V?$name_formatter@Vscoped_padder@details@spdlog@@@details@spdlog@@U?$default_delete@V?$name_formatter@Vscoped_padder@details@spdlog@@@details@spdlog@@@std@@@std@@AEAUpadding_info@01@@Z
	??$make_unique@V?$p_formatter@Unull_scoped_padder@details@spdlog@@@details@spdlog@@AEAUpadding_info@23@@details@spdlog@@YA?AV?$unique_ptr@V?$p_formatter@Unull_scoped_padder@details@spdlog@@@details@spdlog@@U?$default_delete@V?$p_formatter@Unull_scoped_padder@details@spdlog@@@details@spdlog@@@std@@@std@@AEAUpadding_info@01@@Z
	??$make_unique@V?$p_formatter@Vscoped_padder@details@spdlog@@@details@spdlog@@AEAUpadding_info@23@@details@spdlog@@YA?AV?$unique_ptr@V?$p_formatter@Vscoped_padder@details@spdlog@@@details@spdlog@@U?$default_delete@V?$p_formatter@Vscoped_padder@details@spdlog@@@details@spdlog@@@std@@@std@@AEAUpadding_info@01@@Z
	??$make_unique@V?$pid_formatter@Unull_scoped_padder@details@spdlog@@@details@spdlog@@AEAUpadding_info@23@@details@spdlog@@YA?AV?$unique_ptr@V?$pid_formatter@Unull_scoped_padder@details@spdlog@@@details@spdlog@@U?$default_delete@V?$pid_formatter@Unull_scoped_padder@details@spdlog@@@details@spdlog@@@std@@@std@@AEAUpadding_info@01@@Z
	??$make_unique@V?$pid_formatter@Vscoped_padder@details@spdlog@@@details@spdlog@@AEAUpadding_info@23@@details@spdlog@@YA?AV?$unique_ptr@V?$pid_formatter@Vscoped_padder@details@spdlog@@@details@spdlog@@U?$default_delete@V?$pid_formatter@Vscoped_padder@details@spdlog@@@details@spdlog@@@std@@@std@@AEAUpadding_info@01@@Z
	??$make_unique@V?$r_formatter@Unull_scoped_padder@details@spdlog@@@details@spdlog@@AEAUpadding_info@23@@details@spdlog@@YA?AV?$unique_ptr@V?$r_formatter@Unull_scoped_padder@details@spdlog@@@details@spdlog@@U?$default_delete@V?$r_formatter@Unull_scoped_padder@details@spdlog@@@details@spdlog@@@std@@@std@@AEAUpadding_info@01@@Z
	??$make_unique@V?$r_formatter@Vscoped_padder@details@spdlog@@@details@spdlog@@AEAUpadding_info@23@@details@spdlog@@YA?AV?$unique_ptr@V?$r_formatter@Vscoped_padder@details@spdlog@@@details@spdlog@@U?$default_delete@V?$r_formatter@Vscoped_padder@details@spdlog@@@details@spdlog@@@std@@@std@@AEAUpadding_info@01@@Z
	??$make_unique@V?$short_filename_formatter@Unull_scoped_padder@details@spdlog@@@details@spdlog@@AEAUpadding_info@23@@details@spdlog@@YA?AV?$unique_ptr@V?$short_filename_formatter@Unull_scoped_padder@details@spdlog@@@details@spdlog@@U?$default_delete@V?$short_filename_formatter@Unull_scoped_padder@details@spdlog@@@details@spdlog@@@std@@@std@@AEAUpadding_info@01@@Z
	??$make_unique@V?$short_filename_formatter@Vscoped_padder@details@spdlog@@@details@spdlog@@AEAUpadding_info@23@@details@spdlog@@YA?AV?$unique_ptr@V?$short_filename_formatter@Vscoped_padder@details@spdlog@@@details@spdlog@@U?$default_delete@V?$short_filename_formatter@Vscoped_padder@details@spdlog@@@details@spdlog@@@std@@@std@@AEAUpadding_info@01@@Z
	??$make_unique@V?$short_level_formatter@Unull_scoped_padder@details@spdlog@@@details@spdlog@@AEAUpadding_info@23@@details@spdlog@@YA?AV?$unique_ptr@V?$short_level_formatter@Unull_scoped_padder@details@spdlog@@@details@spdlog@@U?$default_delete@V?$short_level_formatter@Unull_scoped_padder@details@spdlog@@@details@spdlog@@@std@@@std@@AEAUpadding_info@01@@Z
	??$make_unique@V?$short_level_formatter@Vscoped_padder@details@spdlog@@@details@spdlog@@AEAUpadding_info@23@@details@spdlog@@YA?AV?$unique_ptr@V?$short_level_formatter@Vscoped_padder@details@spdlog@@@details@spdlog@@U?$default_delete@V?$short_level_formatter@Vscoped_padder@details@spdlog@@@details@spdlog@@@std@@@std@@AEAUpadding_info@01@@Z
	??$make_unique@V?$source_filename_formatter@Unull_scoped_padder@details@spdlog@@@details@spdlog@@AEAUpadding_info@23@@details@spdlog@@YA?AV?$unique_ptr@V?$source_filename_formatter@Unull_scoped_padder@details@spdlog@@@details@spdlog@@U?$default_delete@V?$source_filename_formatter@Unull_scoped_padder@details@spdlog@@@details@spdlog@@@std@@@std@@AEAUpadding_info@01@@Z
	??$make_unique@V?$source_filename_formatter@Vscoped_padder@details@spdlog@@@details@spdlog@@AEAUpadding_info@23@@details@spdlog@@YA?AV?$unique_ptr@V?$source_filename_formatter@Vscoped_padder@details@spdlog@@@details@spdlog@@U?$default_delete@V?$source_filename_formatter@Vscoped_padder@details@spdlog@@@details@spdlog@@@std@@@std@@AEAUpadding_info@01@@Z
	??$make_unique@V?$source_funcname_formatter@Unull_scoped_padder@details@spdlog@@@details@spdlog@@AEAUpadding_info@23@@details@spdlog@@YA?AV?$unique_ptr@V?$source_funcname_formatter@Unull_scoped_padder@details@spdlog@@@details@spdlog@@U?$default_delete@V?$source_funcname_formatter@Unull_scoped_padder@details@spdlog@@@details@spdlog@@@std@@@std@@AEAUpadding_info@01@@Z
